; Listing generated by Microsoft (R) Optimizing Compiler Version 19.00.23506.0 

	TITLE	C:\Users\Michel\Desktop\Source\GameServer\Source\ZTLuaBackup.cpp
	.686P
	.XMM
	include listing.inc
	.model	flat

INCLUDELIB LIBCMT
INCLUDELIB OLDNAMES

PUBLIC	?__empty_global_delete@@YAXPAX@Z		; __empty_global_delete
PUBLIC	?__empty_global_delete@@YAXPAXI@Z		; __empty_global_delete
PUBLIC	??1OBJECTSTRUCT@@QAE@XZ				; OBJECTSTRUCT::~OBJECTSTRUCT
PUBLIC	??_EOBJECTSTRUCT@@QAEPAXI@Z			; OBJECTSTRUCT::`vector deleting destructor'
PUBLIC	?deallocate@?$allocator@UZTLuaScriptMember@@@std@@QAEXPAUZTLuaScriptMember@@I@Z ; std::allocator<ZTLuaScriptMember>::deallocate
PUBLIC	??0?$_Wrap_alloc@V?$allocator@UZTLuaScriptMember@@@std@@@std@@QAE@ABV?$allocator@UZTLuaScriptMember@@@1@@Z ; std::_Wrap_alloc<std::allocator<ZTLuaScriptMember> >::_Wrap_alloc<std::allocator<ZTLuaScriptMember> >
PUBLIC	?_Orphan_all@?$_Vector_alloc@U?$_Vec_base_types@UZTLuaScriptMember@@V?$allocator@UZTLuaScriptMember@@@std@@@std@@@std@@QAEXXZ ; std::_Vector_alloc<std::_Vec_base_types<ZTLuaScriptMember,std::allocator<ZTLuaScriptMember> > >::_Orphan_all
PUBLIC	??$_Destroy_range@U?$_Wrap_alloc@V?$allocator@UZTLuaScriptMember@@@std@@@std@@@std@@YAXPAUZTLuaScriptMember@@0AAU?$_Wrap_alloc@V?$allocator@UZTLuaScriptMember@@@std@@@0@U_Nonscalar_ptr_iterator_tag@0@@Z ; std::_Destroy_range<std::_Wrap_alloc<std::allocator<ZTLuaScriptMember> > >
PUBLIC	?g_LuaBackup@@3VZTLuaBackup@@A			; g_LuaBackup
PUBLIC	?id@?$codecvt@DDU_Mbstatet@@@std@@2V0locale@2@A	; std::codecvt<char,char,_Mbstatet>::id
EXTRN	??_M@YGXPAXIIP6EX0@Z@Z:PROC			; `eh vector destructor iterator'
EXTRN	??3@YAXPAX@Z:PROC				; operator delete
EXTRN	??3@YAXPAXI@Z:PROC				; operator delete
EXTRN	??_V@YAXPAXI@Z:PROC				; operator delete[]
EXTRN	_atexit:PROC
EXTRN	__invalid_parameter_noinfo_noreturn:PROC
EXTRN	__imp__InitializeCriticalSection@4:PROC
EXTRN	__imp__DeleteCriticalSection@4:PROC
EXTRN	??1CSkillDelay@@UAE@XZ:PROC			; CSkillDelay::~CSkillDelay
EXTRN	??1TMonsterAIAgro@@UAE@XZ:PROC			; TMonsterAIAgro::~TMonsterAIAgro
EXTRN	@__security_check_cookie@4:PROC
EXTRN	___CxxFrameHandler3:PROC
EXTRN	_memcpy:PROC
EXTRN	___security_cookie:DWORD
_BSS	SEGMENT
?g_LuaBackup@@3VZTLuaBackup@@A DB 024H DUP (?)		; g_LuaBackup
_BSS	ENDS
;	COMDAT ?id@?$codecvt@DDU_Mbstatet@@@std@@2V0locale@2@A
_BSS	SEGMENT
?id@?$codecvt@DDU_Mbstatet@@@std@@2V0locale@2@A DD 01H DUP (?) ; std::codecvt<char,char,_Mbstatet>::id
_BSS	ENDS
CRT$XCU	SEGMENT
?g_LuaBackup$initializer$@@3P6AXXZA DD FLAT:??__Eg_LuaBackup@@YAXXZ ; g_LuaBackup$initializer$
CRT$XCU	ENDS
;	COMDAT xdata$x
xdata$x	SEGMENT
__ehfuncinfo$??_EOBJECTSTRUCT@@QAEPAXI@Z DD 019930522H
	DD	00H
	DD	00H
	DD	2 DUP(00H)
	DD	2 DUP(00H)
	DD	00H
	DD	05H
xdata$x	ENDS
; Function compile flags: /Ogtp
; File c:\program files (x86)\microsoft visual studio 14.0\vc\include\xmemory0
;	COMDAT ??$destroy@UZTLuaScriptMember@@@?$allocator@UZTLuaScriptMember@@@std@@QAEXPAUZTLuaScriptMember@@@Z
_TEXT	SEGMENT
__Ptr$ = 8						; size = 4
??$destroy@UZTLuaScriptMember@@@?$allocator@UZTLuaScriptMember@@@std@@QAEXPAUZTLuaScriptMember@@@Z PROC ; std::allocator<ZTLuaScriptMember>::destroy<ZTLuaScriptMember>, COMDAT
; _this$ = ecx

; 661  : 		{	// destroy object at _Ptr

  00000	55		 push	 ebp
  00001	8b ec		 mov	 ebp, esp
  00003	8b 4d 08	 mov	 ecx, DWORD PTR __Ptr$[ebp]
  00006	e8 00 00 00 00	 call	 ??1ZTLuaScriptMember@@QAE@XZ

; 662  : 		_Ptr->~_Uty();
; 663  : 		}

  0000b	5d		 pop	 ebp
  0000c	c2 04 00	 ret	 4
??$destroy@UZTLuaScriptMember@@@?$allocator@UZTLuaScriptMember@@@std@@QAEXPAUZTLuaScriptMember@@@Z ENDP ; std::allocator<ZTLuaScriptMember>::destroy<ZTLuaScriptMember>
_TEXT	ENDS
; Function compile flags: /Ogtp
; File c:\program files (x86)\microsoft visual studio 14.0\vc\include\xmemory0
;	COMDAT ??$destroy@UZTLuaScriptMember@@@?$allocator_traits@V?$allocator@UZTLuaScriptMember@@@std@@@std@@SAXAAV?$allocator@UZTLuaScriptMember@@@1@PAUZTLuaScriptMember@@@Z
_TEXT	SEGMENT
__Al$ = 8						; size = 4
__Ptr$ = 12						; size = 4
??$destroy@UZTLuaScriptMember@@@?$allocator_traits@V?$allocator@UZTLuaScriptMember@@@std@@@std@@SAXAAV?$allocator@UZTLuaScriptMember@@@1@PAUZTLuaScriptMember@@@Z PROC ; std::allocator_traits<std::allocator<ZTLuaScriptMember> >::destroy<ZTLuaScriptMember>, COMDAT

; 779  : 		{	// destroy object at _Ptr

  00000	55		 push	 ebp
  00001	8b ec		 mov	 ebp, esp
  00003	8b 4d 0c	 mov	 ecx, DWORD PTR __Ptr$[ebp]

; 780  : 		_Al.destroy(_Ptr);
; 781  : 		}

  00006	5d		 pop	 ebp
  00007	e9 00 00 00 00	 jmp	 ??1ZTLuaScriptMember@@QAE@XZ
??$destroy@UZTLuaScriptMember@@@?$allocator_traits@V?$allocator@UZTLuaScriptMember@@@std@@@std@@SAXAAV?$allocator@UZTLuaScriptMember@@@1@PAUZTLuaScriptMember@@@Z ENDP ; std::allocator_traits<std::allocator<ZTLuaScriptMember> >::destroy<ZTLuaScriptMember>
_TEXT	ENDS
; Function compile flags: /Ogtp
; File c:\program files (x86)\microsoft visual studio 14.0\vc\include\xstddef
;	COMDAT ??$_Addressof@UZTLuaScriptMember@@@std@@YAPAUZTLuaScriptMember@@AAU1@U?$integral_constant@_N$0A@@0@@Z
_TEXT	SEGMENT
__Val$ = 8						; size = 4
___formal$ = 12						; size = 1
??$_Addressof@UZTLuaScriptMember@@@std@@YAPAUZTLuaScriptMember@@AAU1@U?$integral_constant@_N$0A@@0@@Z PROC ; std::_Addressof<ZTLuaScriptMember>, COMDAT

; 688  : 	{	// return address of object _Val

  00000	55		 push	 ebp
  00001	8b ec		 mov	 ebp, esp

; 689  : 	return (reinterpret_cast<_Ty *>(

  00003	8b 45 08	 mov	 eax, DWORD PTR __Val$[ebp]

; 690  : 		&const_cast<char&>(
; 691  : 		reinterpret_cast<const volatile char&>(_Val))));
; 692  : 	}

  00006	5d		 pop	 ebp
  00007	c3		 ret	 0
??$_Addressof@UZTLuaScriptMember@@@std@@YAPAUZTLuaScriptMember@@AAU1@U?$integral_constant@_N$0A@@0@@Z ENDP ; std::_Addressof<ZTLuaScriptMember>
_TEXT	ENDS
; Function compile flags: /Ogtp
; File c:\program files (x86)\microsoft visual studio 14.0\vc\include\xmemory0
;	COMDAT ??$destroy@UZTLuaScriptMember@@@?$_Wrap_alloc@V?$allocator@UZTLuaScriptMember@@@std@@@std@@QAEXPAUZTLuaScriptMember@@@Z
_TEXT	SEGMENT
__Ptr$ = 8						; size = 4
??$destroy@UZTLuaScriptMember@@@?$_Wrap_alloc@V?$allocator@UZTLuaScriptMember@@@std@@@std@@QAEXPAUZTLuaScriptMember@@@Z PROC ; std::_Wrap_alloc<std::allocator<ZTLuaScriptMember> >::destroy<ZTLuaScriptMember>, COMDAT
; _this$ = ecx

; 924  : 		{	// destroy object at _Ptr

  00000	55		 push	 ebp
  00001	8b ec		 mov	 ebp, esp
  00003	8b 4d 08	 mov	 ecx, DWORD PTR __Ptr$[ebp]
  00006	e8 00 00 00 00	 call	 ??1ZTLuaScriptMember@@QAE@XZ

; 925  : 		_Mytraits::destroy(*this, _Ptr);
; 926  : 		}

  0000b	5d		 pop	 ebp
  0000c	c2 04 00	 ret	 4
??$destroy@UZTLuaScriptMember@@@?$_Wrap_alloc@V?$allocator@UZTLuaScriptMember@@@std@@@std@@QAEXPAUZTLuaScriptMember@@@Z ENDP ; std::_Wrap_alloc<std::allocator<ZTLuaScriptMember> >::destroy<ZTLuaScriptMember>
_TEXT	ENDS
; Function compile flags: /Ogtp
; File c:\program files (x86)\microsoft visual studio 14.0\vc\include\xstddef
;	COMDAT ??$addressof@UZTLuaScriptMember@@@std@@YAPAUZTLuaScriptMember@@AAU1@@Z
_TEXT	SEGMENT
__Val$ = 8						; size = 4
??$addressof@UZTLuaScriptMember@@@std@@YAPAUZTLuaScriptMember@@AAU1@@Z PROC ; std::addressof<ZTLuaScriptMember>, COMDAT

; 696  : 	{	// return address of _Val

  00000	55		 push	 ebp
  00001	8b ec		 mov	 ebp, esp

; 697  : 	return (_Addressof(_Val, is_function<_Ty>()));

  00003	8b 45 08	 mov	 eax, DWORD PTR __Val$[ebp]

; 698  : 	}

  00006	5d		 pop	 ebp
  00007	c3		 ret	 0
??$addressof@UZTLuaScriptMember@@@std@@YAPAUZTLuaScriptMember@@AAU1@@Z ENDP ; std::addressof<ZTLuaScriptMember>
_TEXT	ENDS
; Function compile flags: /Ogtp
; File c:\program files (x86)\microsoft visual studio 14.0\vc\include\xmemory0
; File c:\program files (x86)\microsoft visual studio 14.0\vc\include\xstring
; File c:\program files (x86)\microsoft visual studio 14.0\vc\include\xmemory0
; File c:\program files (x86)\microsoft visual studio 14.0\vc\include\xstring
; File c:\program files (x86)\microsoft visual studio 14.0\vc\include\xstddef
; File c:\program files (x86)\microsoft visual studio 14.0\vc\include\xstring
; File c:\program files (x86)\microsoft visual studio 14.0\vc\include\iosfwd
; File c:\program files (x86)\microsoft visual studio 14.0\vc\include\xstring
; File c:\program files (x86)\microsoft visual studio 14.0\vc\include\xmemory0
; File c:\program files (x86)\microsoft visual studio 14.0\vc\include\xstring
; File c:\program files (x86)\microsoft visual studio 14.0\vc\include\xstddef
; File c:\program files (x86)\microsoft visual studio 14.0\vc\include\xstring
; File c:\program files (x86)\microsoft visual studio 14.0\vc\include\xmemory0
; File c:\program files (x86)\microsoft visual studio 14.0\vc\include\iosfwd
; File c:\program files (x86)\microsoft visual studio 14.0\vc\include\xmemory0
;	COMDAT ??$_Destroy_range@U?$_Wrap_alloc@V?$allocator@UZTLuaScriptMember@@@std@@@std@@@std@@YAXPAUZTLuaScriptMember@@0AAU?$_Wrap_alloc@V?$allocator@UZTLuaScriptMember@@@std@@@0@U_Nonscalar_ptr_iterator_tag@0@@Z
_TEXT	SEGMENT
__First$ = 8						; size = 4
__Last$ = 12						; size = 4
__Al$ = 16						; size = 4
___formal$ = 20						; size = 1
??$_Destroy_range@U?$_Wrap_alloc@V?$allocator@UZTLuaScriptMember@@@std@@@std@@@std@@YAXPAUZTLuaScriptMember@@0AAU?$_Wrap_alloc@V?$allocator@UZTLuaScriptMember@@@std@@@0@U_Nonscalar_ptr_iterator_tag@0@@Z PROC ; std::_Destroy_range<std::_Wrap_alloc<std::allocator<ZTLuaScriptMember> > >, COMDAT

; 170  : 	{	// destroy [_First, _Last), arbitrary type

  00000	55		 push	 ebp
  00001	8b ec		 mov	 ebp, esp
  00003	56		 push	 esi

; 171  : 	for (; _First != _Last; ++_First)

  00004	8b 75 08	 mov	 esi, DWORD PTR __First$[ebp]
  00007	57		 push	 edi
  00008	8b 7d 0c	 mov	 edi, DWORD PTR __Last$[ebp]
  0000b	3b f7		 cmp	 esi, edi
  0000d	0f 84 da 00 00
	00		 je	 $LN311@Destroy_ra
  00013	83 c6 2c	 add	 esi, 44			; 0000002cH
$LL4@Destroy_ra:
; File c:\program files (x86)\microsoft visual studio 14.0\vc\include\xstring

; 2232 : 		else if (this->_BUF_SIZE <= this->_Myres())

  00016	8b 06		 mov	 eax, DWORD PTR [esi]
  00018	83 f8 10	 cmp	 eax, 16			; 00000010H
  0001b	72 49		 jb	 SHORT $LN112@Destroy_ra

; 2233 : 			{	// copy any leftovers to small buffer and deallocate
; 2234 : 			pointer _Ptr = this->_Bx()._Ptr;
; 2235 : 			this->_Getal().destroy(&this->_Bx()._Ptr);
; 2236 : 			if (0 < _Newsize)
; 2237 : 				_Traits::copy(this->_Bx()._Buf,
; 2238 : 					_STD addressof(*_Ptr), _Newsize);
; 2239 : 			this->_Getal().deallocate(_Ptr, this->_Myres() + 1);

  0001d	8d 48 01	 lea	 ecx, DWORD PTR [eax+1]
; File c:\program files (x86)\microsoft visual studio 14.0\vc\include\xmemory0

; 638  : 		_Deallocate(_Ptr, _Count, sizeof (_Ty));

  00020	8b 46 ec	 mov	 eax, DWORD PTR [esi-20]

; 100  : 	_SCL_SECURE_ALWAYS_VALIDATE(_Count <= (size_t)(-1) / _Sz);

  00023	83 f9 ff	 cmp	 ecx, -1
  00026	0f 87 c5 00 00
	00		 ja	 $LN313@Destroy_ra

; 101  : 	const size_t _User_size = _Count * _Sz;
; 102  : 	if (_BIG_ALLOCATION_THRESHOLD <= _User_size)

  0002c	81 f9 00 10 00
	00		 cmp	 ecx, 4096		; 00001000H
  00032	72 29		 jb	 SHORT $LN107@Destroy_ra

; 103  : 		{	// deallocate large block
; 104  : 		const uintptr_t _Ptr_user = reinterpret_cast<uintptr_t>(_Ptr);
; 105  : 		_SCL_SECURE_ALWAYS_VALIDATE(

  00034	a8 1f		 test	 al, 31			; 0000001fH
  00036	0f 85 b5 00 00
	00		 jne	 $LN313@Destroy_ra

; 106  : 			(_Ptr_user & (_BIG_ALLOCATION_ALIGNMENT - 1)) == 0);
; 107  : 		const uintptr_t _Ptr_ptr = _Ptr_user - sizeof(void *);
; 108  : 		const uintptr_t _Ptr_container =
; 109  : 			*reinterpret_cast<uintptr_t *>(_Ptr_ptr);

  0003c	8b 48 fc	 mov	 ecx, DWORD PTR [eax-4]

; 110  : 
; 111  :  #ifdef _DEBUG
; 112  : 		// If the following asserts, it likely means that we are performing
; 113  : 		// an aligned delete on memory coming from an unaligned allocation.
; 114  : 		_SCL_SECURE_ALWAYS_VALIDATE(
; 115  : 			reinterpret_cast<uintptr_t *>(_Ptr_ptr)[-1] ==
; 116  : 				_BIG_ALLOCATION_SENTINEL);
; 117  :  #endif /* _DEBUG */
; 118  : 
; 119  : 		// Extra paranoia on aligned allocation/deallocation
; 120  : 		_SCL_SECURE_ALWAYS_VALIDATE(_Ptr_container < _Ptr_user);

  0003f	3b c8		 cmp	 ecx, eax
  00041	0f 83 aa 00 00
	00		 jae	 $LN313@Destroy_ra

; 121  : 
; 122  :  #ifdef _DEBUG
; 123  : 		_SCL_SECURE_ALWAYS_VALIDATE(2 * sizeof(void *)
; 124  : 			<= _Ptr_user - _Ptr_container);
; 125  : 
; 126  :  #else /* _DEBUG */
; 127  : 		_SCL_SECURE_ALWAYS_VALIDATE(sizeof(void *)

  00047	2b c1		 sub	 eax, ecx
  00049	83 f8 04	 cmp	 eax, 4
  0004c	0f 82 9f 00 00
	00		 jb	 $LN313@Destroy_ra

; 128  : 			<= _Ptr_user - _Ptr_container);
; 129  :  #endif /* _DEBUG */
; 130  : 
; 131  : 		_SCL_SECURE_ALWAYS_VALIDATE(_Ptr_user - _Ptr_container

  00052	83 f8 23	 cmp	 eax, 35			; 00000023H
  00055	0f 87 96 00 00
	00		 ja	 $LN313@Destroy_ra

; 132  : 			<= _NON_USER_SIZE);
; 133  : 
; 134  : 		_Ptr = reinterpret_cast<void *>(_Ptr_container);

  0005b	8b c1		 mov	 eax, ecx
$LN107@Destroy_ra:

; 135  : 		}
; 136  :  #endif /* defined(_M_IX86) || defined(_M_X64) */
; 137  : 
; 138  : 	::operator delete(_Ptr);

  0005d	50		 push	 eax
  0005e	e8 00 00 00 00	 call	 ??3@YAXPAX@Z		; operator delete
  00063	83 c4 04	 add	 esp, 4
$LN112@Destroy_ra:
; File c:\program files (x86)\microsoft visual studio 14.0\vc\include\xstring

; 2241 : 		this->_Myres() = this->_BUF_SIZE - 1;

  00066	c7 06 0f 00 00
	00		 mov	 DWORD PTR [esi], 15	; 0000000fH

; 506  : 			? _STD addressof(*this->_Bx._Ptr)
; 507  : 			: this->_Bx._Buf);
; 508  : 		}
; 509  : 
; 510  : 	const value_type *_Myptr() const
; 511  : 		{	// determine current pointer to buffer for nonmutable string
; 512  : 		return (this->_BUF_SIZE <= this->_Myres
; 513  : 			? _STD addressof(*this->_Bx._Ptr)
; 514  : 			: this->_Bx._Buf);
; 515  : 		}
; 516  : 
; 517  : 	union _Bxty
; 518  : 		{	// storage for small buffer or pointer to larger one
; 519  : 		value_type _Buf[_BUF_SIZE];
; 520  : 		pointer _Ptr;
; 521  : 		char _Alias[_BUF_SIZE];	// to permit aliasing
; 522  : 		} _Bx;
; 523  : 
; 524  : 	size_type _Mysize;	// current length of string
; 525  : 	size_type _Myres;	// current storage reserved for string
; 526  : 	};
; 527  : 
; 528  : 		// TEMPLATE CLASS _String_alloc
; 529  : template<class _Alloc_types>
; 530  : 	class _String_alloc
; 531  : 	{	// base class for basic_string to hold allocator
; 532  : public:
; 533  : 	typedef _String_alloc<_Alloc_types> _Myt;
; 534  : 	typedef typename _Alloc_types::_Alloc _Alloc;
; 535  : 	typedef typename _Alloc_types::_Alty _Alty;
; 536  : 	typedef typename _Alloc_types::_Val_types _Val_types;
; 537  : 
; 538  : 	typedef typename _Val_types::value_type value_type;
; 539  : 	typedef typename _Val_types::size_type size_type;
; 540  : 	typedef typename _Val_types::difference_type difference_type;
; 541  : 	typedef typename _Val_types::pointer pointer;
; 542  : 	typedef typename _Val_types::const_pointer const_pointer;
; 543  : 	typedef typename _Val_types::reference reference;
; 544  : 	typedef typename _Val_types::const_reference const_reference;
; 545  : 
; 546  : 	typedef _String_iterator<_String_val<_Val_types> > iterator;
; 547  : 	typedef _String_const_iterator<_String_val<_Val_types> > const_iterator;
; 548  : 
; 549  : 	enum
; 550  : 		{	// length of internal buffer, [1, 16]
; 551  : 		_BUF_SIZE = _String_val<_Val_types>::_BUF_SIZE
; 552  : 		};
; 553  : 
; 554  : 	enum
; 555  : 		{	// roundup mask for allocated buffers, [0, 15]
; 556  : 		_ALLOC_MASK = _String_val<_Val_types>::_ALLOC_MASK
; 557  : 		};
; 558  : 
; 559  : 	value_type *_Myptr()
; 560  : 		{	// determine current pointer to buffer for mutable string
; 561  : 		return (_Get_data()._Myptr());
; 562  : 		}
; 563  : 
; 564  : 	const value_type *_Myptr() const
; 565  : 		{	// determine current pointer to buffer for nonmutable string
; 566  : 		return (_Get_data()._Myptr());
; 567  : 		}
; 568  : 
; 569  :  #if _ITERATOR_DEBUG_LEVEL == 0
; 570  : 	_String_alloc(const _Alloc& _Al = _Alloc())
; 571  : 		: _Mypair(_One_then_variadic_args_t(), _Al)
; 572  : 		{	// construct allocator from _Al
; 573  : 		}
; 574  : 
; 575  : 	_String_alloc(_Alloc&& _Al)
; 576  : 		: _Mypair(_One_then_variadic_args_t(), _STD move(_Al))
; 577  : 		{	// construct allocator from _Al
; 578  : 		}
; 579  : 
; 580  : 	void _Copy_alloc(const _Alty& _Al)
; 581  : 		{	// replace old allocator
; 582  : 		_Pocca(_Getal(), _Al);
; 583  : 		}
; 584  : 
; 585  : 	void _Move_alloc(_Alty& _Al)
; 586  : 		{	// replace old allocator
; 587  : 		_Pocma(_Getal(), _Al);
; 588  : 		}
; 589  : 
; 590  : 	void _Swap_alloc(_Myt& _Right)
; 591  : 		{	// swap allocators
; 592  : 		_Pocs(_Getal(), _Right._Getal());
; 593  : 		}
; 594  : 
; 595  :  #else /* _ITERATOR_DEBUG_LEVEL == 0 */
; 596  : 	_String_alloc(const _Alloc& _Al = _Alloc())
; 597  : 		: _Mypair(_One_then_variadic_args_t(), _Al)
; 598  : 		{	// construct allocator from _Al
; 599  : 		_Alloc_proxy();
; 600  : 		}
; 601  : 
; 602  : 	_String_alloc(_Alloc&& _Al)
; 603  : 		: _Mypair(_One_then_variadic_args_t(), _STD move(_Al))
; 604  : 		{	// construct allocator from _Al
; 605  : 		_Alloc_proxy();
; 606  : 		}
; 607  : 
; 608  : 	~_String_alloc() _NOEXCEPT
; 609  : 		{	// destroy the object
; 610  : 		_Free_proxy();
; 611  : 		}
; 612  : 
; 613  : 	void _Copy_alloc(const _Alty& _Al)
; 614  : 		{	// replace old allocator
; 615  : 		_Free_proxy();
; 616  : 		_Pocca(_Getal(), _Al);
; 617  : 		_Alloc_proxy();
; 618  : 		}
; 619  : 
; 620  : 	void _Move_alloc(_Alty& _Al)
; 621  : 		{	// replace old allocator
; 622  : 		_Free_proxy();
; 623  : 		_Pocma(_Getal(), _Al);
; 624  : 		_Alloc_proxy();
; 625  : 		}
; 626  : 
; 627  : 	void _Swap_alloc(_Myt& _Right)
; 628  : 		{	// swap allocators
; 629  : 		_Pocs(_Getal(), _Right._Getal());
; 630  : 		_Swap_adl(_Myproxy(), _Right._Myproxy());
; 631  : 		}
; 632  : 
; 633  : 	void _Alloc_proxy()
; 634  : 		{	// construct proxy
; 635  : 		typename _Alty::template rebind<_Container_proxy>::other
; 636  : 			_Alproxy(_Getal());
; 637  : 		_Myproxy() = _Alproxy.allocate(1);
; 638  : 		_Alproxy.construct(_Myproxy(), _Container_proxy());
; 639  : 		_Myproxy()->_Mycont = &_Get_data();
; 640  : 		}
; 641  : 
; 642  : 	void _Free_proxy()
; 643  : 		{	// destroy proxy
; 644  : 		typename _Alty::template rebind<_Container_proxy>::other
; 645  : 			_Alproxy(_Getal());
; 646  : 		_Orphan_all();
; 647  : 		_Alproxy.destroy(_Myproxy());
; 648  : 		_Alproxy.deallocate(_Myproxy(), 1);
; 649  : 		_Myproxy() = 0;
; 650  : 		}
; 651  : 
; 652  : 	_Iterator_base12 **_Getpfirst() const
; 653  : 		{	// get address of iterator chain
; 654  : 		return (_Get_data()._Getpfirst());
; 655  : 		}
; 656  : 
; 657  : 	_Container_proxy * & _Myproxy() _NOEXCEPT
; 658  : 		{	// return reference to _Myproxy
; 659  : 		return (_Get_data()._Myproxy);
; 660  : 		}
; 661  : 
; 662  : 	_Container_proxy * const & _Myproxy() const _NOEXCEPT
; 663  : 		{	// return const reference to _Myproxy
; 664  : 		return (_Get_data()._Myproxy);
; 665  : 		}
; 666  :  #endif /* _ITERATOR_DEBUG_LEVEL == 0 */
; 667  : 
; 668  : 	void _Orphan_all()
; 669  : 		{	// orphan all iterators
; 670  : 		_Get_data()._Orphan_all();
; 671  : 		}
; 672  : 
; 673  : 	void _Swap_all(_Myt& _Right)
; 674  : 		{	// swap all iterators
; 675  : 		_Get_data()._Swap_all(_Right._Get_data());
; 676  : 		}
; 677  : 
; 678  : 	_Alty& _Getal() _NOEXCEPT
; 679  : 		{	// return reference to allocator
; 680  : 		return (_Mypair._Get_first());
; 681  : 		}
; 682  : 
; 683  : 	const _Alty& _Getal() const _NOEXCEPT
; 684  : 		{	// return const reference to allocator
; 685  : 		return (_Mypair._Get_first());
; 686  : 		}
; 687  : 
; 688  : 	_String_val<_Val_types>& _Get_data() _NOEXCEPT
; 689  : 		{	// return reference to _String_val
; 690  : 		return (_Mypair._Get_second());
; 691  : 		}
; 692  : 
; 693  : 	const _String_val<_Val_types>& _Get_data() const _NOEXCEPT
; 694  : 		{	// return const reference to _String_val
; 695  : 		return (_Mypair._Get_second());
; 696  : 		}
; 697  : 
; 698  : 	typedef typename _String_val<_Val_types>::_Bxty _Bxty;
; 699  : 
; 700  : 	_Bxty& _Bx() _NOEXCEPT
; 701  : 		{	// return reference to _Bx
; 702  : 		return (_Get_data()._Bx);
; 703  : 		}
; 704  : 
; 705  : 	const _Bxty& _Bx() const _NOEXCEPT
; 706  : 		{	// return const reference to _Bx
; 707  : 		return (_Get_data()._Bx);
; 708  : 		}
; 709  : 
; 710  : 	size_type& _Mysize() _NOEXCEPT
; 711  : 		{	// return reference to _Mysize
; 712  : 		return (_Get_data()._Mysize);
; 713  : 		}
; 714  : 
; 715  : 	const size_type& _Mysize() const _NOEXCEPT
; 716  : 		{	// return const reference to _Mysize
; 717  : 		return (_Get_data()._Mysize);
; 718  : 		}
; 719  : 
; 720  : 	size_type& _Myres() _NOEXCEPT
; 721  : 		{	// return reference to _Myres
; 722  : 		return (_Get_data()._Myres);
; 723  : 		}
; 724  : 
; 725  : 	const size_type& _Myres() const _NOEXCEPT
; 726  : 		{	// return const reference to _Myres
; 727  : 		return (_Get_data()._Myres);
; 728  : 		}
; 729  : 
; 730  : private:
; 731  : 	_Compressed_pair<_Alty, _String_val<_Val_types> > _Mypair;
; 732  : 	};
; 733  : 
; 734  : 		// TEMPLATE CLASS basic_string
; 735  : template<class _Elem,
; 736  : 	class _Traits,
; 737  : 	class _Alloc>
; 738  : 	class basic_string
; 739  : 		: public _String_alloc<_String_base_types<_Elem, _Alloc> >
; 740  : 	{	// null-terminated transparent array of elements
; 741  : public:
; 742  : 	typedef basic_string<_Elem, _Traits, _Alloc> _Myt;
; 743  : 	typedef _String_alloc<_String_base_types<_Elem, _Alloc> > _Mybase;
; 744  : 	typedef _Traits traits_type;
; 745  : 	typedef _Alloc allocator_type;
; 746  : 
; 747  : 	typedef typename _Mybase::_Alty _Alty;
; 748  : 
; 749  : 	typedef typename _Mybase::value_type value_type;
; 750  : 	typedef typename _Mybase::size_type size_type;
; 751  : 	typedef typename _Mybase::difference_type difference_type;
; 752  : 	typedef typename _Mybase::pointer pointer;
; 753  : 	typedef typename _Mybase::const_pointer const_pointer;
; 754  : 	typedef typename _Mybase::reference reference;
; 755  : 	typedef typename _Mybase::const_reference const_reference;
; 756  : 
; 757  : 	typedef typename _Mybase::iterator iterator;
; 758  : 	typedef typename _Mybase::const_iterator const_iterator;
; 759  : 
; 760  : 	typedef _STD reverse_iterator<iterator> reverse_iterator;
; 761  : 	typedef _STD reverse_iterator<const_iterator> const_reverse_iterator;
; 762  : 
; 763  : 	basic_string(const _Myt& _Right)
; 764  : 
; 765  : 		: _Mybase(_Right._Getal().select_on_container_copy_construction())
; 766  : 
; 767  : 
; 768  : 		{	// construct by copying _Right
; 769  : 		_Tidy();
; 770  : 		assign(_Right, 0, npos);
; 771  : 		}
; 772  : 
; 773  : 	basic_string(const _Myt& _Right, const _Alloc& _Al)
; 774  : 		: _Mybase(_Al)
; 775  : 		{	// construct by copying with allocator
; 776  : 		_Tidy();
; 777  : 		assign(_Right, 0, npos);
; 778  : 		}
; 779  : 
; 780  : 	basic_string() _NOEXCEPT
; 781  : 		: _Mybase()
; 782  : 		{	// construct empty string
; 783  : 		_Tidy();
; 784  : 		}
; 785  : 
; 786  : 	explicit basic_string(const _Alloc& _Al) _NOEXCEPT
; 787  : 		: _Mybase(_Al)
; 788  : 		{	// construct empty string with allocator
; 789  : 		_Tidy();
; 790  : 		}
; 791  : 
; 792  : 	basic_string(const _Myt& _Right, size_type _Roff,
; 793  : 		size_type _Count = npos)
; 794  : 		: _Mybase(_Right._Getal())
; 795  : 		{	// construct from _Right [_Roff, _Roff + _Count)
; 796  : 		_Tidy();
; 797  : 		assign(_Right, _Roff, _Count);
; 798  : 		}
; 799  : 
; 800  : 	basic_string(const _Myt& _Right, size_type _Roff, size_type _Count,
; 801  : 		const _Alloc& _Al)
; 802  : 		: _Mybase(_Al)
; 803  : 		{	// construct from _Right [_Roff, _Roff + _Count) with allocator
; 804  : 		_Tidy();
; 805  : 		assign(_Right, _Roff, _Count);
; 806  : 		}
; 807  : 
; 808  : 	basic_string(const _Elem *_Ptr, size_type _Count)
; 809  : 		: _Mybase()
; 810  : 		{	// construct from [_Ptr, _Ptr + _Count)
; 811  : 		_Tidy();
; 812  : 		assign(_Ptr, _Count);
; 813  : 		}
; 814  : 
; 815  : 	basic_string(const _Elem *_Ptr, size_type _Count, const _Alloc& _Al)
; 816  : 		: _Mybase(_Al)
; 817  : 		{	// construct from [_Ptr, _Ptr + _Count) with allocator
; 818  : 		_Tidy();
; 819  : 		assign(_Ptr, _Count);
; 820  : 		}
; 821  : 
; 822  : 	basic_string(const _Elem *_Ptr)
; 823  : 		: _Mybase()
; 824  : 		{	// construct from [_Ptr, <null>)
; 825  : 		_Tidy();
; 826  : 		assign(_Ptr);
; 827  : 		}
; 828  : 
; 829  : 	basic_string(const _Elem *_Ptr, const _Alloc& _Al)
; 830  : 		: _Mybase(_Al)
; 831  : 		{	// construct from [_Ptr, <null>) with allocator
; 832  : 		_Tidy();
; 833  : 		assign(_Ptr);
; 834  : 		}
; 835  : 
; 836  : 	basic_string(size_type _Count, _Elem _Ch)
; 837  : 		: _Mybase()
; 838  : 		{	// construct from _Count * _Ch
; 839  : 		_Tidy();
; 840  : 		assign(_Count, _Ch);
; 841  : 		}
; 842  : 
; 843  : 	basic_string(size_type _Count, _Elem _Ch, const _Alloc& _Al)
; 844  : 		: _Mybase(_Al)
; 845  : 		{	// construct from _Count * _Ch with allocator
; 846  : 		_Tidy();
; 847  : 		assign(_Count, _Ch);
; 848  : 		}
; 849  : 
; 850  : 	template<class _Iter,
; 851  : 		class = typename enable_if<_Is_iterator<_Iter>::value,
; 852  : 			void>::type>
; 853  : 		basic_string(_Iter _First, _Iter _Last, const _Alloc& _Al = _Alloc())
; 854  : 		: _Mybase(_Al)
; 855  : 		{	// construct from [_First, _Last) with optional allocator
; 856  : 		_DEBUG_RANGE(_First, _Last);
; 857  : 		_Tidy();
; 858  : 		_Construct(_Unchecked(_First), _Unchecked(_Last), _Iter_cat(_First));
; 859  : 		}
; 860  : 
; 861  : 	template<class _Iter>
; 862  : 		void _Construct(_Iter _First,
; 863  : 			_Iter _Last, input_iterator_tag)
; 864  : 		{	// initialize from [_First, _Last), input iterators
; 865  : 		_TRY_BEGIN
; 866  : 		for (; _First != _Last; ++_First)
; 867  : 			append((size_type)1, (_Elem)*_First);
; 868  : 		_CATCH_ALL
; 869  : 		_Tidy(true);
; 870  : 		_RERAISE;
; 871  : 		_CATCH_END
; 872  : 		}
; 873  : 
; 874  : 	template<class _Iter>
; 875  : 		void _Construct(_Iter _First,
; 876  : 			_Iter _Last, forward_iterator_tag)
; 877  : 		{	// initialize from [_First, _Last), forward iterators
; 878  : 		size_type _Count = 0;
; 879  : 		_Distance(_First, _Last, _Count);
; 880  : 		reserve(_Count);
; 881  : 		_Construct(_First, _Last, input_iterator_tag());
; 882  : 		}
; 883  : 
; 884  : 	void _Construct(_Elem *_First,
; 885  : 		_Elem *_Last, random_access_iterator_tag)
; 886  : 		{	// initialize from [_First, _Last), pointers
; 887  : 		if (_First != _Last)
; 888  : 			assign(_First, _Last - _First);
; 889  : 		}
; 890  : 
; 891  : 	void _Construct(const _Elem *_First,
; 892  : 		const _Elem *_Last, random_access_iterator_tag)
; 893  : 		{	// initialize from [_First, _Last), const pointers
; 894  : 		if (_First != _Last)
; 895  : 			assign(_First, _Last - _First);
; 896  : 		}
; 897  : 
; 898  : 	basic_string(_Myt&& _Right) _NOEXCEPT
; 899  : 		: _Mybase(_STD move(_Right._Getal()))
; 900  : 		{	// construct by moving _Right
; 901  : 		_Tidy();
; 902  : 		_Assign_rv(_STD forward<_Myt>(_Right));
; 903  : 		}
; 904  : 
; 905  : 	basic_string(_Myt&& _Right, const _Alloc& _Al)
; 906  : 		: _Mybase(_Al)
; 907  : 		{	// construct by moving _Right, allocator
; 908  : 		if (this->_Getal() != _Right._Getal())
; 909  : 			assign(_Right.begin(), _Right.end());
; 910  : 		else
; 911  : 			_Assign_rv(_STD forward<_Myt>(_Right));
; 912  : 		}
; 913  : 
; 914  : 	_Myt& operator=(_Myt&& _Right)
; 915  : 		_NOEXCEPT_OP(_Alty::propagate_on_container_move_assignment::value
; 916  : 			|| _Alty::is_always_equal::value)
; 917  : 		{	// assign by moving _Right
; 918  : 		if (this != &_Right)
; 919  : 			{	// different, assign it
; 920  : 			_Tidy(true);
; 921  : 
; 922  : 			if (_Alty::propagate_on_container_move_assignment::value
; 923  : 				&& this->_Getal() != _Right._Getal())
; 924  : 				this->_Move_alloc(_Right._Getal());
; 925  : 
; 926  : 			if (this->_Getal() != _Right._Getal())
; 927  : 				assign(_Right.begin(), _Right.end());
; 928  : 			else
; 929  : 				_Assign_rv(_STD forward<_Myt>(_Right));
; 930  : 			}
; 931  : 		return (*this);
; 932  : 		}
; 933  : 
; 934  : 	_Myt& assign(_Myt&& _Right) _NOEXCEPT
; 935  : 		{	// assign by moving _Right
; 936  : 		if (this == &_Right)
; 937  : 			;
; 938  : 		else if (get_allocator() != _Right.get_allocator()
; 939  : 			&& this->_BUF_SIZE <= _Right._Myres())
; 940  : 			*this = _Right;
; 941  : 		else
; 942  : 			{	// not same, clear this and steal from _Right
; 943  : 			_Tidy(true);
; 944  : 			_Assign_rv(_STD forward<_Myt>(_Right));
; 945  : 			}
; 946  : 		return (*this);
; 947  : 		}
; 948  : 
; 949  : 	void _Assign_rv(_Myt&& _Right)
; 950  : 		{	// assign by moving _Right
; 951  : 		if (_Right._Myres() < this->_BUF_SIZE)
; 952  : 			_Traits::move(this->_Bx()._Buf, _Right._Bx()._Buf,
; 953  : 				_Right._Mysize() + 1);
; 954  : 		else
; 955  : 			{	// copy pointer
; 956  : 			this->_Getal().construct(&this->_Bx()._Ptr, _Right._Bx()._Ptr);
; 957  : 			_Right._Bx()._Ptr = pointer();
; 958  : 			}
; 959  : 		this->_Mysize() = _Right._Mysize();
; 960  : 		this->_Myres() = _Right._Myres();
; 961  : 		_Right._Tidy();
; 962  : 		}
; 963  : 
; 964  : 	basic_string(_XSTD initializer_list<_Elem> _Ilist,
; 965  : 		const _Alloc& _Al = allocator_type())
; 966  : 		: _Mybase(_Al)
; 967  : 		{	// construct from initializer_list
; 968  : 		_Tidy();
; 969  : 		assign(_Ilist.begin(), _Ilist.end());
; 970  : 		}
; 971  : 
; 972  : 	_Myt& operator=(_XSTD initializer_list<_Elem> _Ilist)
; 973  : 		{	// assign initializer_list
; 974  : 		return (assign(_Ilist.begin(), _Ilist.end()));
; 975  : 		}
; 976  : 
; 977  : 	_Myt& operator+=(_XSTD initializer_list<_Elem> _Ilist)
; 978  : 		{	// append initializer_list
; 979  : 		return (append(_Ilist.begin(), _Ilist.end()));
; 980  : 		}
; 981  : 
; 982  : 	_Myt& assign(_XSTD initializer_list<_Elem> _Ilist)
; 983  : 		{	// assign initializer_list
; 984  : 		return (assign(_Ilist.begin(), _Ilist.end()));
; 985  : 		}
; 986  : 
; 987  : 	_Myt& append(_XSTD initializer_list<_Elem> _Ilist)
; 988  : 		{	// append initializer_list
; 989  : 		return (append(_Ilist.begin(), _Ilist.end()));
; 990  : 		}
; 991  : 
; 992  : 	iterator insert(const_iterator _Where,
; 993  : 		_XSTD initializer_list<_Elem> _Ilist)
; 994  : 		{	// insert initializer_list
; 995  : 		return (insert(_Where, _Ilist.begin(), _Ilist.end()));
; 996  : 		}
; 997  : 
; 998  : 	_Myt& replace(const_iterator _First, const_iterator _Last,
; 999  : 		_XSTD initializer_list<_Elem> _Ilist)
; 1000 : 		{	// replace with initializer_list
; 1001 : 		return (replace(_First, _Last, _Ilist.begin(), _Ilist.end()));
; 1002 : 		}
; 1003 : 
; 1004 : 	~basic_string() _NOEXCEPT
; 1005 : 		{	// destroy the string
; 1006 : 		_Tidy(true);
; 1007 : 		}
; 1008 : 
; 1009 : 	_PGLOBAL static const size_type npos;	// bad/missing length/position
; 1010 : 
; 1011 : 	_Myt& operator=(const _Myt& _Right)
; 1012 : 		{	// assign _Right
; 1013 : 		if (this != &_Right)
; 1014 : 			{	// different, assign it
; 1015 : 			if (this->_Getal() != _Right._Getal()
; 1016 : 				&& _Alty::propagate_on_container_copy_assignment::value)
; 1017 : 				{	// change allocator before copying
; 1018 : 				_Tidy(true);
; 1019 : 				this->_Copy_alloc(_Right._Getal());
; 1020 : 				}
; 1021 : 
; 1022 : 			assign(_Right);
; 1023 : 			}
; 1024 : 		return (*this);
; 1025 : 		}
; 1026 : 
; 1027 : 	_Myt& operator=(const _Elem *_Ptr)
; 1028 : 		{	// assign [_Ptr, <null>)
; 1029 : 		return (assign(_Ptr));
; 1030 : 		}
; 1031 : 
; 1032 : 	_Myt& operator=(_Elem _Ch)
; 1033 : 		{	// assign 1 * _Ch
; 1034 : 		return (assign(1, _Ch));
; 1035 : 		}
; 1036 : 
; 1037 : 	_Myt& operator+=(const _Myt& _Right)
; 1038 : 		{	// append _Right
; 1039 : 		return (append(_Right));
; 1040 : 		}
; 1041 : 
; 1042 : 	_Myt& operator+=(const _Elem *_Ptr)
; 1043 : 		{	// append [_Ptr, <null>)
; 1044 : 		return (append(_Ptr));
; 1045 : 		}
; 1046 : 
; 1047 : 	_Myt& operator+=(_Elem _Ch)
; 1048 : 		{	// append 1 * _Ch
; 1049 : 		return (append((size_type)1, _Ch));
; 1050 : 		}
; 1051 : 
; 1052 : 	_Myt& append(const _Myt& _Right)
; 1053 : 		{	// append _Right
; 1054 : 		return (append(_Right, 0, npos));
; 1055 : 		}
; 1056 : 
; 1057 : 	_Myt& append(const _Myt& _Right,
; 1058 : 		size_type _Roff, size_type _Count = npos)
; 1059 : 		{	// append _Right [_Roff, _Roff + _Count)
; 1060 : 		if (_Right.size() < _Roff)
; 1061 : 			_Xran();	// _Roff off end
; 1062 : 		size_type _Num = _Right.size() - _Roff;
; 1063 : 		if (_Num < _Count)
; 1064 : 			_Count = _Num;	// trim _Count to size
; 1065 : 		if (npos - this->_Mysize() <= _Count)
; 1066 : 			_Xlen();	// result too long
; 1067 : 
; 1068 : 		if (0 < _Count && _Grow(_Num = this->_Mysize() + _Count))
; 1069 : 			{	// make room and append new stuff
; 1070 : 			_Traits::copy(this->_Myptr() + this->_Mysize(),
; 1071 : 				_Right._Myptr() + _Roff, _Count);
; 1072 : 			_Eos(_Num);
; 1073 : 			}
; 1074 : 		return (*this);
; 1075 : 		}
; 1076 : 
; 1077 : 	_Myt& append(const _Elem *_Ptr, size_type _Count)
; 1078 : 		{	// append [_Ptr, _Ptr + _Count)
; 1079 : 		_DEBUG_POINTER_IF(_Count != 0, _Ptr);
; 1080 : 		if (_Inside(_Ptr))
; 1081 : 			return (append(*this,
; 1082 : 				_Ptr - this->_Myptr(), _Count));	// substring
; 1083 : 		if (npos - this->_Mysize() <= _Count)
; 1084 : 			_Xlen();	// result too long
; 1085 : 
; 1086 : 		size_type _Num;
; 1087 : 		if (0 < _Count && _Grow(_Num = this->_Mysize() + _Count))
; 1088 : 			{	// make room and append new stuff
; 1089 : 			_Traits::copy(this->_Myptr() + this->_Mysize(), _Ptr, _Count);
; 1090 : 			_Eos(_Num);
; 1091 : 			}
; 1092 : 		return (*this);
; 1093 : 		}
; 1094 : 
; 1095 : 	_Myt& append(const _Elem *_Ptr)
; 1096 : 		{	// append [_Ptr, <null>)
; 1097 : 		_DEBUG_POINTER(_Ptr);
; 1098 : 		return (append(_Ptr, _Traits::length(_Ptr)));
; 1099 : 		}
; 1100 : 
; 1101 : 	_Myt& append(size_type _Count, _Elem _Ch)
; 1102 : 		{	// append _Count * _Ch
; 1103 : 		if (npos - this->_Mysize() <= _Count)
; 1104 : 			_Xlen();	// result too long
; 1105 : 
; 1106 : 		size_type _Num;
; 1107 : 		if (0 < _Count && _Grow(_Num = this->_Mysize() + _Count))
; 1108 : 			{	// make room and append new stuff using assign
; 1109 : 			_Chassign(this->_Mysize(), _Count, _Ch);
; 1110 : 			_Eos(_Num);
; 1111 : 			}
; 1112 : 		return (*this);
; 1113 : 		}
; 1114 : 
; 1115 : 	template<class _Iter>
; 1116 : 		typename enable_if<_Is_iterator<_Iter>::value,
; 1117 : 			_Myt&>::type
; 1118 : 		append(_Iter _First, _Iter _Last)
; 1119 : 		{	// append [_First, _Last), input iterators
; 1120 : 		return (replace(end(), end(), _First, _Last));
; 1121 : 		}
; 1122 : 
; 1123 : 	_Myt& append(const_pointer _First, const_pointer _Last)
; 1124 : 		{	// append [_First, _Last), const pointers
; 1125 : 		return (replace(end(), end(), _First, _Last));
; 1126 : 		}
; 1127 : 
; 1128 : 	_Myt& append(const_iterator _First, const_iterator _Last)
; 1129 : 		{	// append [_First, _Last), const_iterators
; 1130 : 		return (replace(end(), end(), _First, _Last));
; 1131 : 		}
; 1132 : 
; 1133 : 	_Myt& assign(const _Myt& _Right)
; 1134 : 		{	// assign _Right
; 1135 : 		return (assign(_Right, 0, npos));
; 1136 : 		}
; 1137 : 
; 1138 : 	_Myt& assign(const _Myt& _Right,
; 1139 : 		size_type _Roff, size_type _Count = npos)
; 1140 : 		{	// assign _Right [_Roff, _Roff + _Count)
; 1141 : 		if (_Right.size() < _Roff)
; 1142 : 			_Xran();	// _Roff off end
; 1143 : 		size_type _Num = _Right.size() - _Roff;
; 1144 : 		if (_Count < _Num)
; 1145 : 			_Num = _Count;	// trim _Num to size
; 1146 : 
; 1147 : 		if (this == &_Right)
; 1148 : 			erase((size_type)(_Roff + _Num)), erase(0, _Roff);	// substring
; 1149 : 		else if (_Grow(_Num))
; 1150 : 			{	// make room and assign new stuff
; 1151 : 			_Traits::copy(this->_Myptr(),
; 1152 : 				_Right._Myptr() + _Roff, _Num);
; 1153 : 			_Eos(_Num);
; 1154 : 			}
; 1155 : 		return (*this);
; 1156 : 		}
; 1157 : 
; 1158 : 	_Myt& assign(const _Elem *_Ptr, size_type _Count)
; 1159 : 		{	// assign [_Ptr, _Ptr + _Count)
; 1160 : 		_DEBUG_POINTER_IF(_Count != 0, _Ptr);
; 1161 : 		if (_Inside(_Ptr))
; 1162 : 			return (assign(*this,
; 1163 : 				_Ptr - this->_Myptr(), _Count));	// substring
; 1164 : 
; 1165 : 		if (_Grow(_Count))
; 1166 : 			{	// make room and assign new stuff
; 1167 : 			_Traits::copy(this->_Myptr(), _Ptr, _Count);
; 1168 : 			_Eos(_Count);
; 1169 : 			}
; 1170 : 		return (*this);
; 1171 : 		}
; 1172 : 
; 1173 : 	_Myt& assign(const _Elem *_Ptr)
; 1174 : 		{	// assign [_Ptr, <null>)
; 1175 : 		_DEBUG_POINTER(_Ptr);
; 1176 : 		return (assign(_Ptr, _Traits::length(_Ptr)));
; 1177 : 		}
; 1178 : 
; 1179 : 	_Myt& assign(size_type _Count, _Elem _Ch)
; 1180 : 		{	// assign _Count * _Ch
; 1181 : 		if (_Count == npos)
; 1182 : 			_Xlen();	// result too long
; 1183 : 
; 1184 : 		if (_Grow(_Count))
; 1185 : 			{	// make room and assign new stuff
; 1186 : 			_Chassign(0, _Count, _Ch);
; 1187 : 			_Eos(_Count);
; 1188 : 			}
; 1189 : 		return (*this);
; 1190 : 		}
; 1191 : 
; 1192 : 	template<class _Iter>
; 1193 : 		typename enable_if<_Is_iterator<_Iter>::value,
; 1194 : 			_Myt&>::type
; 1195 : 		assign(_Iter _First, _Iter _Last)
; 1196 : 		{	// assign [_First, _Last), input iterators
; 1197 : 		return (replace(begin(), end(), _First, _Last));
; 1198 : 		}
; 1199 : 
; 1200 : 	_Myt& assign(const_pointer _First, const_pointer _Last)
; 1201 : 		{	// assign [_First, _Last), const pointers
; 1202 : 		return (replace(begin(), end(), _First, _Last));
; 1203 : 		}
; 1204 : 
; 1205 : 	_Myt& assign(const_iterator _First, const_iterator _Last)
; 1206 : 		{	// assign [_First, _Last), const_iterators
; 1207 : 		return (replace(begin(), end(), _First, _Last));
; 1208 : 		}
; 1209 : 
; 1210 : 	_Myt& insert(size_type _Off, const _Myt& _Right)
; 1211 : 		{	// insert _Right at _Off
; 1212 : 		return (insert(_Off, _Right, 0, npos));
; 1213 : 		}
; 1214 : 
; 1215 : 	_Myt& insert(size_type _Off,
; 1216 : 		const _Myt& _Right, size_type _Roff, size_type _Count = npos)
; 1217 : 		{	// insert _Right [_Roff, _Roff + _Count) at _Off
; 1218 : 		if (this->_Mysize() < _Off || _Right.size() < _Roff)
; 1219 : 			_Xran();	// _Off or _Roff off end
; 1220 : 		size_type _Num = _Right.size() - _Roff;
; 1221 : 		if (_Num < _Count)
; 1222 : 			_Count = _Num;	// trim _Count to size
; 1223 : 		if (npos - this->_Mysize() <= _Count)
; 1224 : 			_Xlen();	// result too long
; 1225 : 
; 1226 : 		if (0 < _Count && _Grow(_Num = this->_Mysize() + _Count))
; 1227 : 			{	// make room and insert new stuff
; 1228 : 			_Traits::move(this->_Myptr() + _Off + _Count,
; 1229 : 				this->_Myptr() + _Off,
; 1230 : 				this->_Mysize() - _Off);	// empty out hole
; 1231 : 			if (this == &_Right)
; 1232 : 				_Traits::move(this->_Myptr() + _Off,
; 1233 : 					this->_Myptr() + (_Off < _Roff ? _Roff + _Count : _Roff),
; 1234 : 						_Count);	// substring
; 1235 : 			else
; 1236 : 				_Traits::copy(this->_Myptr() + _Off,
; 1237 : 					_Right._Myptr() + _Roff, _Count);	// fill hole
; 1238 : 			_Eos(_Num);
; 1239 : 			}
; 1240 : 		return (*this);
; 1241 : 		}
; 1242 : 
; 1243 : 	_Myt& insert(size_type _Off,
; 1244 : 		const _Elem *_Ptr, size_type _Count)
; 1245 : 		{	// insert [_Ptr, _Ptr + _Count) at _Off
; 1246 : 		_DEBUG_POINTER_IF(_Count != 0, _Ptr);
; 1247 : 		if (_Inside(_Ptr))
; 1248 : 			return (insert(_Off, *this,
; 1249 : 				_Ptr - this->_Myptr(), _Count));	// substring
; 1250 : 		if (this->_Mysize() < _Off)
; 1251 : 			_Xran();	// _Off off end
; 1252 : 		if (npos - this->_Mysize() <= _Count)
; 1253 : 			_Xlen();	// result too long
; 1254 : 		size_type _Num;
; 1255 : 		if (0 < _Count && _Grow(_Num = this->_Mysize() + _Count))
; 1256 : 			{	// make room and insert new stuff
; 1257 : 			_Traits::move(this->_Myptr() + _Off + _Count,
; 1258 : 				this->_Myptr() + _Off,
; 1259 : 				this->_Mysize() - _Off);	// empty out hole
; 1260 : 			_Traits::copy(this->_Myptr() + _Off, _Ptr, _Count);	// fill hole
; 1261 : 			_Eos(_Num);
; 1262 : 			}
; 1263 : 		return (*this);
; 1264 : 		}
; 1265 : 
; 1266 : 	_Myt& insert(size_type _Off, const _Elem *_Ptr)
; 1267 : 		{	// insert [_Ptr, <null>) at _Off
; 1268 : 		_DEBUG_POINTER(_Ptr);
; 1269 : 		return (insert(_Off, _Ptr, _Traits::length(_Ptr)));
; 1270 : 		}
; 1271 : 
; 1272 : 	_Myt& insert(size_type _Off,
; 1273 : 		size_type _Count, _Elem _Ch)
; 1274 : 		{	// insert _Count * _Ch at _Off
; 1275 : 		if (this->_Mysize() < _Off)
; 1276 : 			_Xran();	// _Off off end
; 1277 : 		if (npos - this->_Mysize() <= _Count)
; 1278 : 			_Xlen();	// result too long
; 1279 : 		size_type _Num;
; 1280 : 		if (0 < _Count && _Grow(_Num = this->_Mysize() + _Count))
; 1281 : 			{	// make room and insert new stuff
; 1282 : 			_Traits::move(this->_Myptr() + _Off + _Count,
; 1283 : 				this->_Myptr() + _Off,
; 1284 : 				this->_Mysize() - _Off);	// empty out hole
; 1285 : 			_Chassign(_Off, _Count, _Ch);	// fill hole
; 1286 : 			_Eos(_Num);
; 1287 : 			}
; 1288 : 		return (*this);
; 1289 : 		}
; 1290 : 
; 1291 : 	iterator insert(const_iterator _Where)
; 1292 : 		{	// insert <null> at _Where
; 1293 : 		return (insert(_Where, _Elem()));
; 1294 : 		}
; 1295 : 
; 1296 : 	iterator insert(const_iterator _Where, _Elem _Ch)
; 1297 : 		{	// insert _Ch at _Where
; 1298 : 		size_type _Off = _Where - begin();
; 1299 : 		insert(_Off, 1, _Ch);
; 1300 : 		return (begin() + _Off);
; 1301 : 		}
; 1302 : 
; 1303 : 	iterator insert(const_iterator _Where, size_type _Count, _Elem _Ch)
; 1304 : 		{	// insert _Count * _Elem at _Where
; 1305 : 		size_type _Off = _Where - begin();
; 1306 : 		insert(_Off, _Count, _Ch);
; 1307 : 		return (begin() + _Off);
; 1308 : 		}
; 1309 : 
; 1310 : 	template<class _Iter>
; 1311 : 		typename enable_if<_Is_iterator<_Iter>::value,
; 1312 : 			iterator>::type
; 1313 : 		insert(const_iterator _Where, _Iter _First, _Iter _Last)
; 1314 : 		{	// insert [_First, _Last) at _Where, input iterators
; 1315 : 		size_type _Off = _Where - begin();
; 1316 : 		replace(_Where, _Where, _First, _Last);
; 1317 : 		return (begin() + _Off);
; 1318 : 		}
; 1319 : 
; 1320 : 	iterator insert(const_iterator _Where,
; 1321 : 		const_pointer _First, const_pointer _Last)
; 1322 : 		{	// insert [_First, _Last) at _Where, const pointers
; 1323 : 		size_type _Off = _Where - begin();
; 1324 : 		replace(_Where, _Where, _First, _Last);
; 1325 : 		return (begin() + _Off);
; 1326 : 		}
; 1327 : 
; 1328 : 	iterator insert(const_iterator _Where,
; 1329 : 		const_iterator _First, const_iterator _Last)
; 1330 : 		{	// insert [_First, _Last) at _Where, const_iterators
; 1331 : 		size_type _Off = _Where - begin();
; 1332 : 		replace(_Where, _Where, _First, _Last);
; 1333 : 		return (begin() + _Off);
; 1334 : 		}
; 1335 : 
; 1336 : 	_Myt& erase(size_type _Off = 0)
; 1337 : 		{	// erase elements [_Off, ...)
; 1338 : 		if (this->_Mysize() < _Off)
; 1339 : 			_Xran();	// _Off off end
; 1340 : 		_Eos(_Off);
; 1341 : 		return (*this);
; 1342 : 		}
; 1343 : 
; 1344 : 	_Myt& erase(size_type _Off, size_type _Count)
; 1345 : 		{	// erase elements [_Off, _Off + _Count)
; 1346 : 		if (this->_Mysize() < _Off)
; 1347 : 			_Xran();	// _Off off end
; 1348 : 		if (this->_Mysize() - _Off <= _Count)
; 1349 : 			_Eos(_Off);	// erase elements [_Off, ...)
; 1350 : 		else if (0 < _Count)
; 1351 : 			{	// move elements down
; 1352 : 			value_type *_Ptr = this->_Myptr() + _Off;
; 1353 : 			size_type _Newsize = this->_Mysize() - _Count;
; 1354 : 			_Traits::move(_Ptr, _Ptr + _Count, _Newsize - _Off);
; 1355 : 			_Eos(_Newsize);
; 1356 : 			}
; 1357 : 		return (*this);
; 1358 : 		}
; 1359 : 
; 1360 : 	iterator erase(const_iterator _Where)
; 1361 : 		{	// erase element at _Where
; 1362 : 		size_type _Count = _Where - begin();
; 1363 : 		erase(_Count, 1);
; 1364 : 		return (begin() + _Count);
; 1365 : 		}
; 1366 : 
; 1367 : 	iterator erase(const_iterator _First, const_iterator _Last)
; 1368 : 		{	// erase substring [_First, _Last)
; 1369 : 		_DEBUG_RANGE(_First, _Last);
; 1370 : 		size_type _Count = _First - begin();
; 1371 : 		erase(_Count, _Last - _First);
; 1372 : 		return (begin() + _Count);
; 1373 : 		}
; 1374 : 
; 1375 : 	void clear() _NOEXCEPT
; 1376 : 		{	// erase all
; 1377 : 		_Eos(0);
; 1378 : 		}
; 1379 : 
; 1380 : 	_Myt& replace(size_type _Off, size_type _N0, const _Myt& _Right)
; 1381 : 		{	// replace [_Off, _Off + _N0) with _Right
; 1382 : 		return (replace(_Off, _N0, _Right, 0, npos));
; 1383 : 		}
; 1384 : 
; 1385 : 	_Myt& replace(size_type _Off,
; 1386 : 		size_type _N0, const _Myt& _Right, size_type _Roff,
; 1387 : 			size_type _Count = npos)
; 1388 : 		{	// replace [_Off, _Off + _N0) with _Right [_Roff, _Roff + _Count)
; 1389 : 		if (this->_Mysize() < _Off || _Right.size() < _Roff)
; 1390 : 			_Xran();	// _Off or _Roff off end
; 1391 : 		if (this->_Mysize() - _Off < _N0)
; 1392 : 			_N0 = this->_Mysize() - _Off;	// trim _N0 to size
; 1393 : 		size_type _Num = _Right.size() - _Roff;
; 1394 : 		if (_Num < _Count)
; 1395 : 			_Count = _Num;	// trim _Count to size
; 1396 : 		if (npos - _Count <= this->_Mysize() - _N0)
; 1397 : 			_Xlen();	// result too long
; 1398 : 
; 1399 : 		size_type _Nm = this->_Mysize() - _N0 - _Off;	// length of kept tail
; 1400 : 		size_type _Newsize = this->_Mysize() + _Count - _N0;
; 1401 : 		if (this->_Mysize() < _Newsize)
; 1402 : 			_Grow(_Newsize);
; 1403 : 
; 1404 : 		if (this != &_Right)
; 1405 : 			{	// no overlap, just move down and copy in new stuff
; 1406 : 			_Traits::move(this->_Myptr() + _Off + _Count,
; 1407 : 				this->_Myptr() + _Off + _N0, _Nm);	// empty hole
; 1408 : 			_Traits::copy(this->_Myptr() + _Off,
; 1409 : 				_Right._Myptr() + _Roff, _Count);	// fill hole
; 1410 : 			}
; 1411 : 		else if (_Count <= _N0)
; 1412 : 			{	// hole doesn't get larger, just copy in substring
; 1413 : 			_Traits::move(this->_Myptr() + _Off,
; 1414 : 				this->_Myptr() + _Roff, _Count);	// fill hole
; 1415 : 			_Traits::move(this->_Myptr() + _Off + _Count,
; 1416 : 				this->_Myptr() + _Off + _N0, _Nm);	// move tail down
; 1417 : 			}
; 1418 : 		else if (_Roff <= _Off)
; 1419 : 			{	// hole gets larger, substring begins before hole
; 1420 : 			_Traits::move(this->_Myptr() + _Off + _Count,
; 1421 : 				this->_Myptr() + _Off + _N0, _Nm);	// move tail down
; 1422 : 			_Traits::move(this->_Myptr() + _Off,
; 1423 : 				this->_Myptr() + _Roff, _Count);	// fill hole
; 1424 : 			}
; 1425 : 		else if (_Off + _N0 <= _Roff)
; 1426 : 			{	// hole gets larger, substring begins after hole
; 1427 : 			_Traits::move(this->_Myptr() + _Off + _Count,
; 1428 : 				this->_Myptr() + _Off + _N0, _Nm);	// move tail down
; 1429 : 			_Traits::move(this->_Myptr() + _Off,
; 1430 : 				this->_Myptr() + (_Roff + _Count - _N0),
; 1431 : 				_Count);	// fill hole
; 1432 : 			}
; 1433 : 		else
; 1434 : 			{	// hole gets larger, substring begins in hole
; 1435 : 			_Traits::move(this->_Myptr() + _Off,
; 1436 : 				this->_Myptr() + _Roff, _N0);	// fill old hole
; 1437 : 			_Traits::move(this->_Myptr() + _Off + _Count,
; 1438 : 				this->_Myptr() + _Off + _N0, _Nm);	// move tail down
; 1439 : 			_Traits::move(this->_Myptr() + _Off + _N0,
; 1440 : 				this->_Myptr() + _Roff + _Count,
; 1441 : 				_Count - _N0);	// fill rest of new hole
; 1442 : 			}
; 1443 : 
; 1444 : 		_Eos(_Newsize);
; 1445 : 		return (*this);
; 1446 : 		}
; 1447 : 
; 1448 : 	_Myt& replace(size_type _Off,
; 1449 : 		size_type _N0, const _Elem *_Ptr, size_type _Count)
; 1450 : 		{	// replace [_Off, _Off + _N0) with [_Ptr, _Ptr + _Count)
; 1451 : 		_DEBUG_POINTER_IF(_Count != 0, _Ptr);
; 1452 : 		if (_Inside(_Ptr))
; 1453 : 			return (replace(_Off, _N0, *this,
; 1454 : 				_Ptr - this->_Myptr(),
; 1455 : 				_Count));	// substring, replace carefully
; 1456 : 		if (this->_Mysize() < _Off)
; 1457 : 			_Xran();	// _Off off end
; 1458 : 		if (this->_Mysize() - _Off < _N0)
; 1459 : 			_N0 = this->_Mysize() - _Off;	// trim _N0 to size
; 1460 : 		if (npos - _Count <= this->_Mysize() - _N0)
; 1461 : 			_Xlen();	// result too long
; 1462 : 		size_type _Nm = this->_Mysize() - _N0 - _Off;
; 1463 : 
; 1464 : 		if (_Count < _N0)
; 1465 : 			_Traits::move(this->_Myptr() + _Off + _Count,
; 1466 : 				this->_Myptr() + _Off + _N0,
; 1467 : 				_Nm);	// smaller hole, move tail up
; 1468 : 		size_type _Num;
; 1469 : 		if ((0 < _Count || 0 < _N0)
; 1470 : 			&& _Grow(_Num = this->_Mysize() + _Count - _N0))
; 1471 : 			{	// make room and rearrange
; 1472 : 			if (_N0 < _Count)
; 1473 : 				_Traits::move(this->_Myptr() + _Off + _Count,
; 1474 : 					this->_Myptr() + _Off + _N0, _Nm);	// move tail down
; 1475 : 			_Traits::copy(this->_Myptr() + _Off, _Ptr, _Count);	// fill hole
; 1476 : 			_Eos(_Num);
; 1477 : 			}
; 1478 : 		return (*this);
; 1479 : 		}
; 1480 : 
; 1481 : 	_Myt& replace(size_type _Off, size_type _N0, const _Elem *_Ptr)
; 1482 : 		{	// replace [_Off, _Off + _N0) with [_Ptr, <null>)
; 1483 : 		_DEBUG_POINTER(_Ptr);
; 1484 : 		return (replace(_Off, _N0, _Ptr, _Traits::length(_Ptr)));
; 1485 : 		}
; 1486 : 
; 1487 : 	_Myt& replace(size_type _Off,
; 1488 : 		size_type _N0, size_type _Count, _Elem _Ch)
; 1489 : 		{	// replace [_Off, _Off + _N0) with _Count * _Ch
; 1490 : 		if (this->_Mysize() < _Off)
; 1491 : 			_Xran();	// _Off off end
; 1492 : 		if (this->_Mysize() - _Off < _N0)
; 1493 : 			_N0 = this->_Mysize() - _Off;	// trim _N0 to size
; 1494 : 		if (npos - _Count <= this->_Mysize() - _N0)
; 1495 : 			_Xlen();	// result too long
; 1496 : 		size_type _Nm = this->_Mysize() - _N0 - _Off;
; 1497 : 
; 1498 : 		if (_Count < _N0)
; 1499 : 			_Traits::move(this->_Myptr() + _Off + _Count,
; 1500 : 				this->_Myptr() + _Off + _N0,
; 1501 : 				_Nm);	// smaller hole, move tail up
; 1502 : 		size_type _Num;
; 1503 : 		if ((0 < _Count || 0 < _N0)
; 1504 : 			&& _Grow(_Num = this->_Mysize() + _Count - _N0))
; 1505 : 			{	// make room and rearrange
; 1506 : 			if (_N0 < _Count)
; 1507 : 				_Traits::move(this->_Myptr() + _Off + _Count,
; 1508 : 					this->_Myptr() + _Off + _N0, _Nm);	// move tail down
; 1509 : 			_Chassign(_Off, _Count, _Ch);	// fill hole
; 1510 : 			_Eos(_Num);
; 1511 : 			}
; 1512 : 		return (*this);
; 1513 : 		}
; 1514 : 
; 1515 : 	_Myt& replace(const_iterator _First, const_iterator _Last,
; 1516 : 		const _Myt& _Right)
; 1517 : 		{	// replace [_First, _Last) with _Right
; 1518 : 		return (replace(_First - begin(), _Last - _First, _Right));
; 1519 : 		}
; 1520 : 
; 1521 : 	_Myt& replace(const_iterator _First, const_iterator _Last,
; 1522 : 		const _Elem *_Ptr, size_type _Count)
; 1523 : 		{	// replace [_First, _Last) with [_Ptr, _Ptr + _Count)
; 1524 : 		return (replace(_First - begin(), _Last - _First, _Ptr, _Count));
; 1525 : 		}
; 1526 : 
; 1527 : 	_Myt& replace(const_iterator _First, const_iterator _Last,
; 1528 : 		const _Elem *_Ptr)
; 1529 : 		{	// replace [_First, _Last) with [_Ptr, <null>)
; 1530 : 		return (replace(_First - begin(), _Last - _First, _Ptr));
; 1531 : 		}
; 1532 : 
; 1533 : 	_Myt& replace(const_iterator _First, const_iterator _Last,
; 1534 : 		size_type _Count, _Elem _Ch)
; 1535 : 		{	// replace [_First, _Last) with _Count * _Ch
; 1536 : 		return (replace(_First - begin(), _Last - _First, _Count, _Ch));
; 1537 : 		}
; 1538 : 
; 1539 : 	template<class _Iter>
; 1540 : 		typename enable_if<_Is_iterator<_Iter>::value,
; 1541 : 			_Myt&>::type
; 1542 : 		replace(const_iterator _First, const_iterator _Last,
; 1543 : 			_Iter _First2, _Iter _Last2)
; 1544 : 		{	// replace [_First, _Last) with [_First2, _Last2), input iterators
; 1545 : 		_Myt _Right(_First2, _Last2);
; 1546 : 		replace(_First, _Last, _Right);
; 1547 : 		return (*this);
; 1548 : 		}
; 1549 : 
; 1550 : 	_Myt& replace(const_iterator _First, const_iterator _Last,
; 1551 : 		const_pointer _First2, const_pointer _Last2)
; 1552 : 		{	// replace [_First, _Last) with [_First2, _Last2), const pointers
; 1553 : 		if (_First2 == _Last2)
; 1554 : 			erase(_First - begin(), _Last - _First);
; 1555 : 		else
; 1556 : 			replace(_First - begin(), _Last - _First,
; 1557 : 				&*_First2, _Last2 - _First2);
; 1558 : 		return (*this);
; 1559 : 		}
; 1560 : 
; 1561 : 	_Myt& replace(const_iterator _First, const_iterator _Last,
; 1562 : 		pointer _First2, pointer _Last2)
; 1563 : 		{	// replace [_First, _Last) with [_First2, _Last2), const pointers
; 1564 : 		if (_First2 == _Last2)
; 1565 : 			erase(_First - begin(), _Last - _First);
; 1566 : 		else
; 1567 : 			replace(_First - begin(), _Last - _First,
; 1568 : 				&*_First2, _Last2 - _First2);
; 1569 : 		return (*this);
; 1570 : 		}
; 1571 : 
; 1572 : 	_Myt& replace(const_iterator _First, const_iterator _Last,
; 1573 : 		const_iterator _First2, const_iterator _Last2)
; 1574 : 		{	// replace [_First, _Last) with [_First2, _Last2), const_iterators
; 1575 : 		if (_First2 == _Last2)
; 1576 : 			erase(_First - begin(), _Last - _First);
; 1577 : 		else
; 1578 : 			replace(_First - begin(), _Last - _First,
; 1579 : 				&*_First2, _Last2 - _First2);
; 1580 : 		return (*this);
; 1581 : 		}
; 1582 : 
; 1583 : 	_Myt& replace(const_iterator _First, const_iterator _Last,
; 1584 : 		iterator _First2, iterator _Last2)
; 1585 : 		{	// replace [_First, _Last) with [_First2, _Last2), const_iterators
; 1586 : 		if (_First2 == _Last2)
; 1587 : 			erase(_First - begin(), _Last - _First);
; 1588 : 		else
; 1589 : 			replace(_First - begin(), _Last - _First,
; 1590 : 				&*_First2, _Last2 - _First2);
; 1591 : 		return (*this);
; 1592 : 		}
; 1593 : 
; 1594 : 	iterator begin() _NOEXCEPT
; 1595 : 		{	// return iterator for beginning of mutable sequence
; 1596 : 		return (iterator(this->_Myptr(), &this->_Get_data()));
; 1597 : 		}
; 1598 : 
; 1599 : 	const_iterator begin() const _NOEXCEPT
; 1600 : 		{	// return iterator for beginning of nonmutable sequence
; 1601 : 		return (const_iterator(this->_Myptr(), &this->_Get_data()));
; 1602 : 		}
; 1603 : 
; 1604 : 	iterator end() _NOEXCEPT
; 1605 : 		{	// return iterator for end of mutable sequence
; 1606 : 		return (iterator(this->_Myptr() + this->_Mysize(), &this->_Get_data()));
; 1607 : 		}
; 1608 : 
; 1609 : 	const_iterator end() const _NOEXCEPT
; 1610 : 		{	// return iterator for end of nonmutable sequence
; 1611 : 		return (const_iterator(this->_Myptr() + this->_Mysize(), &this->_Get_data()));
; 1612 : 		}
; 1613 : 
; 1614 : 	reverse_iterator rbegin() _NOEXCEPT
; 1615 : 		{	// return iterator for beginning of reversed mutable sequence
; 1616 : 		return (reverse_iterator(end()));
; 1617 : 		}
; 1618 : 
; 1619 : 	const_reverse_iterator rbegin() const _NOEXCEPT
; 1620 : 		{	// return iterator for beginning of reversed nonmutable sequence
; 1621 : 		return (const_reverse_iterator(end()));
; 1622 : 		}
; 1623 : 
; 1624 : 	reverse_iterator rend() _NOEXCEPT
; 1625 : 		{	// return iterator for end of reversed mutable sequence
; 1626 : 		return (reverse_iterator(begin()));
; 1627 : 		}
; 1628 : 
; 1629 : 	const_reverse_iterator rend() const _NOEXCEPT
; 1630 : 		{	// return iterator for end of reversed nonmutable sequence
; 1631 : 		return (const_reverse_iterator(begin()));
; 1632 : 		}
; 1633 : 
; 1634 : 	const_iterator cbegin() const _NOEXCEPT
; 1635 : 		{	// return iterator for beginning of nonmutable sequence
; 1636 : 		return (begin());
; 1637 : 		}
; 1638 : 
; 1639 : 	const_iterator cend() const _NOEXCEPT
; 1640 : 		{	// return iterator for end of nonmutable sequence
; 1641 : 		return (end());
; 1642 : 		}
; 1643 : 
; 1644 : 	const_reverse_iterator crbegin() const _NOEXCEPT
; 1645 : 		{	// return iterator for beginning of reversed nonmutable sequence
; 1646 : 		return (rbegin());
; 1647 : 		}
; 1648 : 
; 1649 : 	const_reverse_iterator crend() const _NOEXCEPT
; 1650 : 		{	// return iterator for end of reversed nonmutable sequence
; 1651 : 		return (rend());
; 1652 : 		}
; 1653 : 
; 1654 : 	void shrink_to_fit()
; 1655 : 		{	// reduce capacity
; 1656 : 		if ((size() | this->_ALLOC_MASK) < capacity())
; 1657 : 			{	// worth shrinking, do it
; 1658 : 			_Myt _Tmp(*this);
; 1659 : 			swap(_Tmp);
; 1660 : 			}
; 1661 : 		}
; 1662 : 
; 1663 : 	reference at(size_type _Off)
; 1664 : 		{	// subscript mutable sequence with checking
; 1665 : 		if (this->_Mysize() <= _Off)
; 1666 : 			_Xran();	// _Off off end
; 1667 : 		return (this->_Myptr()[_Off]);
; 1668 : 		}
; 1669 : 
; 1670 : 	const_reference at(size_type _Off) const
; 1671 : 		{	// subscript nonmutable sequence with checking
; 1672 : 		if (this->_Mysize() <= _Off)
; 1673 : 			_Xran();	// _Off off end
; 1674 : 		return (this->_Myptr()[_Off]);
; 1675 : 		}
; 1676 : 
; 1677 : 	reference operator[](size_type _Off)
; 1678 : 		{	// subscript mutable sequence
; 1679 :  #if _ITERATOR_DEBUG_LEVEL == 2
; 1680 : 		if (this->_Mysize() < _Off)	// sic
; 1681 : 			_DEBUG_ERROR("string subscript out of range");
; 1682 : 
; 1683 :  #elif _ITERATOR_DEBUG_LEVEL == 1
; 1684 : 		_SCL_SECURE_VALIDATE_RANGE(_Off <= this->_Mysize());	// sic
; 1685 :  #endif /* _ITERATOR_DEBUG_LEVEL == 2 */
; 1686 : 
; 1687 : 		return (this->_Myptr()[_Off]);
; 1688 : 		}
; 1689 : 
; 1690 : 	const_reference operator[](size_type _Off) const
; 1691 : 		{	// subscript nonmutable sequence
; 1692 :  #if _ITERATOR_DEBUG_LEVEL == 2
; 1693 : 		if (this->_Mysize() < _Off)	// sic
; 1694 : 			_DEBUG_ERROR("string subscript out of range");
; 1695 : 
; 1696 :  #elif _ITERATOR_DEBUG_LEVEL == 1
; 1697 : 		_SCL_SECURE_VALIDATE_RANGE(_Off <= this->_Mysize());	// sic
; 1698 :  #endif /* _ITERATOR_DEBUG_LEVEL == 2 */
; 1699 : 
; 1700 : 		return (this->_Myptr()[_Off]);
; 1701 : 		}
; 1702 : 
; 1703 : 	void push_back(_Elem _Ch)
; 1704 : 		{	// insert element at end
; 1705 : 		insert(end(), _Ch);
; 1706 : 		}
; 1707 : 
; 1708 : 	void pop_back()
; 1709 : 		{	// erase element at end
; 1710 : 		erase(this->_Mysize() - 1);	// throws if _Mysize() == 0
; 1711 : 		}
; 1712 : 
; 1713 : 	reference front()
; 1714 : 		{	// return first element of mutable sequence
; 1715 : 		return (*begin());
; 1716 : 		}
; 1717 : 
; 1718 : 	const_reference front() const
; 1719 : 		{	// return first element of nonmutable sequence
; 1720 : 		return (*begin());
; 1721 : 		}
; 1722 : 
; 1723 : 	reference back()
; 1724 : 		{	// return last element of mutable sequence
; 1725 : 		return (*(end() - 1));
; 1726 : 		}
; 1727 : 
; 1728 : 	const_reference back() const
; 1729 : 		{	// return last element of nonmutable sequence
; 1730 : 		return (*(end() - 1));
; 1731 : 		}
; 1732 : 
; 1733 : 	const _Elem *c_str() const _NOEXCEPT
; 1734 : 		{	// return pointer to null-terminated nonmutable array
; 1735 : 		return (this->_Myptr());
; 1736 : 		}
; 1737 : 
; 1738 : 	const _Elem *data() const _NOEXCEPT
; 1739 : 		{	// return pointer to nonmutable array
; 1740 : 		return (c_str());
; 1741 : 		}
; 1742 : 
; 1743 : 	size_type length() const _NOEXCEPT
; 1744 : 		{	// return length of sequence
; 1745 : 		return (this->_Mysize());
; 1746 : 		}
; 1747 : 
; 1748 : 	size_type size() const _NOEXCEPT
; 1749 : 		{	// return length of sequence
; 1750 : 		return (this->_Mysize());
; 1751 : 		}
; 1752 : 
; 1753 : 	size_type max_size() const _NOEXCEPT
; 1754 : 		{	// return maximum possible length of sequence
; 1755 : 		size_type _Num = this->_Getal().max_size();
; 1756 : 		return (_Num <= 1 ? 1 : _Num - 1);
; 1757 : 		}
; 1758 : 
; 1759 : 	void resize(size_type _Newsize)
; 1760 : 		{	// determine new length, padding with null elements as needed
; 1761 : 		resize(_Newsize, _Elem());
; 1762 : 		}
; 1763 : 
; 1764 : 	void resize(size_type _Newsize, _Elem _Ch)
; 1765 : 		{	// determine new length, padding with _Ch elements as needed
; 1766 : 		if (_Newsize <= this->_Mysize())
; 1767 : 			_Eos(_Newsize);
; 1768 : 		else
; 1769 : 			append(_Newsize - this->_Mysize(), _Ch);
; 1770 : 		}
; 1771 : 
; 1772 : 	size_type capacity() const _NOEXCEPT
; 1773 : 		{	// return current length of allocated storage
; 1774 : 		return (this->_Myres());
; 1775 : 		}
; 1776 : 
; 1777 : 	void reserve(size_type _Newcap = 0)
; 1778 : 		{	// determine new minimum length of allocated storage
; 1779 : 		if (this->_Mysize() <= _Newcap && this->_Myres() != _Newcap)
; 1780 : 			{	// change reservation
; 1781 : 			size_type _Size = this->_Mysize();
; 1782 : 			if (_Grow(_Newcap, true))
; 1783 : 				_Eos(_Size);
; 1784 : 			}
; 1785 : 		}
; 1786 : 
; 1787 : 	bool empty() const _NOEXCEPT
; 1788 : 		{	// test if sequence is empty
; 1789 : 		return (this->_Mysize() == 0);
; 1790 : 		}
; 1791 : 
; 1792 : 	_SCL_INSECURE_DEPRECATE
; 1793 : 
; 1794 : 	size_type copy(_Elem *_Ptr,
; 1795 : 		size_type _Count, size_type _Off = 0) const
; 1796 : 		{	// copy [_Off, _Off + _Count) to [_Ptr, _Ptr + _Count)
; 1797 : 		_DEBUG_POINTER_IF(_Count != 0, _Ptr);
; 1798 : 		if (this->_Mysize() < _Off)
; 1799 : 			_Xran();	// _Off off end
; 1800 : 		if (this->_Mysize() - _Off < _Count)
; 1801 : 			_Count = this->_Mysize() - _Off;
; 1802 : 		_Traits::copy(_Ptr, this->_Myptr() + _Off, _Count);
; 1803 : 		return (_Count);
; 1804 : 		}
; 1805 : 
; 1806 : 	size_type _Copy_s(_Elem *_Dest, size_type _Dest_size,
; 1807 : 		size_type _Count, size_type _Off = 0) const
; 1808 : 		{	// copy [_Off, _Off + _Count) to [_Dest, _Dest + _Count)
; 1809 : 		_DEBUG_POINTER_IF(_Count != 0, _Dest);
; 1810 : 		if (this->_Mysize() < _Off)
; 1811 : 			_Xran();	// _Off off end
; 1812 : 		if (this->_Mysize() - _Off < _Count)
; 1813 : 			_Count = this->_Mysize() - _Off;
; 1814 : 		_Traits::_Copy_s(_Dest, _Dest_size, this->_Myptr() + _Off, _Count);
; 1815 : 		return (_Count);
; 1816 : 		}
; 1817 : 
; 1818 : 	void _Swap_bx(_Myt& _Right)
; 1819 : 		{	// exchange _Bx() with _Right._Bx()
; 1820 : 		if (this->_BUF_SIZE <= this->_Myres())
; 1821 : 			if (this->_BUF_SIZE <= _Right._Myres())
; 1822 : 				_Swap_adl(this->_Bx()._Ptr, _Right._Bx()._Ptr);
; 1823 : 			else
; 1824 : 				{	// swap large with small
; 1825 : 				pointer _Ptr = this->_Bx()._Ptr;
; 1826 : 				this->_Getal().destroy(&this->_Bx()._Ptr);
; 1827 : 				_Traits::copy(this->_Bx()._Buf,
; 1828 : 					_Right._Bx()._Buf, _Right._Mysize() + 1);
; 1829 : 				this->_Getal().construct(&_Right._Bx()._Ptr, _Ptr);
; 1830 : 				}
; 1831 : 		else
; 1832 : 			if (_Right._Myres() < this->_BUF_SIZE)
; 1833 : 				_STD swap(this->_Bx()._Buf, _Right._Bx()._Buf);
; 1834 : 			else
; 1835 : 				{	// swap small with large
; 1836 : 				pointer _Ptr = _Right._Bx()._Ptr;
; 1837 : 				this->_Getal().destroy(&_Right._Bx()._Ptr);
; 1838 : 				_Traits::copy(_Right._Bx()._Buf,
; 1839 : 					this->_Bx()._Buf, this->_Mysize() + 1);
; 1840 : 				this->_Getal().construct(&this->_Bx()._Ptr, _Ptr);
; 1841 : 				}
; 1842 : 		}
; 1843 : 
; 1844 : 	void swap(_Myt& _Right)
; 1845 : 		_NOEXCEPT_OP(_Alty::propagate_on_container_swap::value
; 1846 : 			|| _Alty::is_always_equal::value)
; 1847 : 		{	// exchange contents with _Right
; 1848 : 		if (this == &_Right)
; 1849 : 			;	// same object, do nothing
; 1850 : 		else if (this->_Getal() == _Right._Getal())
; 1851 : 			{	// same allocator, swap control information
; 1852 : 			this->_Swap_all(_Right);
; 1853 : 			_Swap_bx(_Right);
; 1854 : 			_STD swap(this->_Mysize(), _Right._Mysize());
; 1855 : 			_STD swap(this->_Myres(), _Right._Myres());
; 1856 : 			}
; 1857 : 
; 1858 : 		else if (_Alty::propagate_on_container_swap::value)
; 1859 : 			{	// swap allocators and control information
; 1860 : 				// assumes pointer is bitwise copyable
; 1861 : 			this->_Swap_alloc(_Right);
; 1862 : 			_Swap_bx(_Right);
; 1863 : 			_STD swap(this->_Bx(), _Right._Bx());
; 1864 : 			_STD swap(this->_Mysize(), _Right._Mysize());
; 1865 : 			_STD swap(this->_Myres(), _Right._Myres());
; 1866 : 			}
; 1867 : 
; 1868 : 		else
; 1869 : 			{	// different allocator, do multiple assigns
; 1870 : 			_Myt _Tmp = *this;
; 1871 : 
; 1872 : 			*this = _Right;
; 1873 : 			_Right = _Tmp;
; 1874 : 			}
; 1875 : 		}
; 1876 : 
; 1877 : 	size_type find(const _Myt& _Right, size_type _Off = 0) const _NOEXCEPT
; 1878 : 		{	// look for _Right beginning at or after _Off
; 1879 : 		return (find(_Right._Myptr(), _Off, _Right.size()));
; 1880 : 		}
; 1881 : 
; 1882 : 	size_type find(const _Elem *_Ptr,
; 1883 : 		size_type _Off, size_type _Count) const
; 1884 : 		{	// look for [_Ptr, _Ptr + _Count) beginning at or after _Off
; 1885 : 		_DEBUG_POINTER_IF(_Count != 0, _Ptr);
; 1886 : 		if (_Count == 0 && _Off <= this->_Mysize())
; 1887 : 			return (_Off);	// null string always matches (if inside string)
; 1888 : 
; 1889 : 		size_type _Nm;
; 1890 : 		if (_Off < this->_Mysize() && _Count <= (_Nm = this->_Mysize() - _Off))
; 1891 : 			{	// room for match, look for it
; 1892 : 			const _Elem *_Uptr, *_Vptr;
; 1893 : 			for (_Nm -= _Count - 1, _Vptr = this->_Myptr() + _Off;
; 1894 : 				(_Uptr = _Traits::find(_Vptr, _Nm, *_Ptr)) != 0;
; 1895 : 				_Nm -= _Uptr - _Vptr + 1, _Vptr = _Uptr + 1)
; 1896 : 				if (_Traits::compare(_Uptr, _Ptr, _Count) == 0)
; 1897 : 					return (_Uptr - this->_Myptr());	// found a match
; 1898 : 			}
; 1899 : 
; 1900 : 		return (npos);	// no match
; 1901 : 		}
; 1902 : 
; 1903 : 	size_type find(const _Elem *_Ptr, size_type _Off = 0) const
; 1904 : 		{	// look for [_Ptr, <null>) beginning at or after _Off
; 1905 : 		_DEBUG_POINTER(_Ptr);
; 1906 : 		return (find(_Ptr, _Off, _Traits::length(_Ptr)));
; 1907 : 		}
; 1908 : 
; 1909 : 	size_type find(_Elem _Ch, size_type _Off = 0) const
; 1910 : 		{	// look for _Ch at or after _Off
; 1911 : 		return (find((const _Elem *)&_Ch, _Off, 1));
; 1912 : 		}
; 1913 : 
; 1914 : 	size_type rfind(const _Myt& _Right, size_type _Off = npos) const _NOEXCEPT
; 1915 : 		{	// look for _Right beginning before _Off
; 1916 : 		return (rfind(_Right._Myptr(), _Off, _Right.size()));
; 1917 : 		}
; 1918 : 
; 1919 : 	size_type rfind(const _Elem *_Ptr,
; 1920 : 		size_type _Off, size_type _Count) const
; 1921 : 		{	// look for [_Ptr, _Ptr + _Count) beginning before _Off
; 1922 : 		_DEBUG_POINTER_IF(_Count != 0, _Ptr);
; 1923 : 		if (_Count == 0)
; 1924 : 			return (_Off < this->_Mysize() ? _Off
; 1925 : 				: this->_Mysize());	// null always matches
; 1926 : 		if (_Count <= this->_Mysize())
; 1927 : 			{	// room for match, look for it
; 1928 : 			const _Elem *_Uptr = this->_Myptr() +
; 1929 : 				(_Off < this->_Mysize() - _Count ? _Off
; 1930 : 					: this->_Mysize() - _Count);
; 1931 : 			for (; ; --_Uptr)
; 1932 : 				if (_Traits::eq(*_Uptr, *_Ptr)
; 1933 : 					&& _Traits::compare(_Uptr, _Ptr, _Count) == 0)
; 1934 : 					return (_Uptr - this->_Myptr());	// found a match
; 1935 : 				else if (_Uptr == this->_Myptr())
; 1936 : 					break;	// at beginning, no more chance for match
; 1937 : 			}
; 1938 : 
; 1939 : 		return (npos);	// no match
; 1940 : 		}
; 1941 : 
; 1942 : 	size_type rfind(const _Elem *_Ptr, size_type _Off = npos) const
; 1943 : 		{	// look for [_Ptr, <null>) beginning before _Off
; 1944 : 		_DEBUG_POINTER(_Ptr);
; 1945 : 		return (rfind(_Ptr, _Off, _Traits::length(_Ptr)));
; 1946 : 		}
; 1947 : 
; 1948 : 	size_type rfind(_Elem _Ch, size_type _Off = npos) const
; 1949 : 		{	// look for _Ch before _Off
; 1950 : 		return (rfind((const _Elem *)&_Ch, _Off, 1));
; 1951 : 		}
; 1952 : 
; 1953 : 	size_type find_first_of(const _Myt& _Right,
; 1954 : 		size_type _Off = 0) const _NOEXCEPT
; 1955 : 		{	// look for one of _Right at or after _Off
; 1956 : 		return (find_first_of(_Right._Myptr(), _Off, _Right.size()));
; 1957 : 		}
; 1958 : 
; 1959 : 	size_type find_first_of(const _Elem *_Ptr,
; 1960 : 		size_type _Off, size_type _Count) const
; 1961 : 		{	// look for one of [_Ptr, _Ptr + _Count) at or after _Off
; 1962 : 		_DEBUG_POINTER_IF(_Count != 0, _Ptr);
; 1963 : 		if (0 < _Count && _Off < this->_Mysize())
; 1964 : 			{	// room for match, look for it
; 1965 : 			const _Elem *const _Vptr = this->_Myptr() + this->_Mysize();
; 1966 : 			for (const _Elem *_Uptr = this->_Myptr() + _Off;
; 1967 : 				_Uptr < _Vptr; ++_Uptr)
; 1968 : 				if (_Traits::find(_Ptr, _Count, *_Uptr) != 0)
; 1969 : 					return (_Uptr - this->_Myptr());	// found a match
; 1970 : 			}
; 1971 : 
; 1972 : 		return (npos);	// no match
; 1973 : 		}
; 1974 : 
; 1975 : 	size_type find_first_of(const _Elem *_Ptr,
; 1976 : 		size_type _Off = 0) const
; 1977 : 		{	// look for one of [_Ptr, <null>) at or after _Off
; 1978 : 		_DEBUG_POINTER(_Ptr);
; 1979 : 		return (find_first_of(_Ptr, _Off, _Traits::length(_Ptr)));
; 1980 : 		}
; 1981 : 
; 1982 : 	size_type find_first_of(_Elem _Ch,
; 1983 : 		size_type _Off = 0) const
; 1984 : 		{	// look for _Ch at or after _Off
; 1985 : 		return (find((const _Elem *)&_Ch, _Off, 1));
; 1986 : 		}
; 1987 : 
; 1988 : 	size_type find_last_of(const _Myt& _Right,
; 1989 : 		size_type _Off = npos) const _NOEXCEPT
; 1990 : 		{	// look for one of _Right before _Off
; 1991 : 		return (find_last_of(_Right._Myptr(), _Off, _Right.size()));
; 1992 : 		}
; 1993 : 
; 1994 : 	size_type find_last_of(const _Elem *_Ptr,
; 1995 : 		size_type _Off, size_type _Count) const
; 1996 : 		{	// look for one of [_Ptr, _Ptr + _Count) before _Off
; 1997 : 		_DEBUG_POINTER_IF(_Count != 0, _Ptr);
; 1998 : 		if (0 < _Count && 0 < this->_Mysize())
; 1999 : 			{	// worth searching, do it
; 2000 : 			const _Elem *_Uptr = this->_Myptr()
; 2001 : 				+ (_Off < this->_Mysize() ? _Off : this->_Mysize() - 1);
; 2002 : 			for (; ; --_Uptr)
; 2003 : 				if (_Traits::find(_Ptr, _Count, *_Uptr) != 0)
; 2004 : 					return (_Uptr - this->_Myptr());	// found a match
; 2005 : 				else if (_Uptr == this->_Myptr())
; 2006 : 					break;	// at beginning, no more chance for match
; 2007 : 			}
; 2008 : 
; 2009 : 		return (npos);	// no match
; 2010 : 		}
; 2011 : 
; 2012 : 	size_type find_last_of(const _Elem *_Ptr,
; 2013 : 		size_type _Off = npos) const
; 2014 : 		{	// look for one of [_Ptr, <null>) before _Off
; 2015 : 		_DEBUG_POINTER(_Ptr);
; 2016 : 		return (find_last_of(_Ptr, _Off, _Traits::length(_Ptr)));
; 2017 : 		}
; 2018 : 
; 2019 : 	size_type find_last_of(_Elem _Ch,
; 2020 : 		size_type _Off = npos) const
; 2021 : 		{	// look for _Ch before _Off
; 2022 : 		return (rfind((const _Elem *)&_Ch, _Off, 1));
; 2023 : 		}
; 2024 : 
; 2025 : 	size_type find_first_not_of(const _Myt& _Right,
; 2026 : 		size_type _Off = 0) const _NOEXCEPT
; 2027 : 		{	// look for none of _Right at or after _Off
; 2028 : 		return (find_first_not_of(_Right._Myptr(), _Off,
; 2029 : 			_Right.size()));
; 2030 : 		}
; 2031 : 
; 2032 : 	size_type find_first_not_of(const _Elem *_Ptr,
; 2033 : 		size_type _Off, size_type _Count) const
; 2034 : 		{	// look for none of [_Ptr, _Ptr + _Count) at or after _Off
; 2035 : 		_DEBUG_POINTER_IF(_Count != 0, _Ptr);
; 2036 : 		if (_Off < this->_Mysize())
; 2037 : 			{	// room for match, look for it
; 2038 : 			const _Elem *const _Vptr = this->_Myptr() + this->_Mysize();
; 2039 : 			for (const _Elem *_Uptr = this->_Myptr() + _Off;
; 2040 : 				_Uptr < _Vptr; ++_Uptr)
; 2041 : 				if (_Traits::find(_Ptr, _Count, *_Uptr) == 0)
; 2042 : 					return (_Uptr - this->_Myptr());
; 2043 : 			}
; 2044 : 		return (npos);
; 2045 : 		}
; 2046 : 
; 2047 : 	size_type find_first_not_of(const _Elem *_Ptr,
; 2048 : 		size_type _Off = 0) const
; 2049 : 		{	// look for one of [_Ptr, <null>) at or after _Off
; 2050 : 		_DEBUG_POINTER(_Ptr);
; 2051 : 		return (find_first_not_of(_Ptr, _Off, _Traits::length(_Ptr)));
; 2052 : 		}
; 2053 : 
; 2054 : 	size_type find_first_not_of(_Elem _Ch,
; 2055 : 		size_type _Off = 0) const
; 2056 : 		{	// look for non _Ch at or after _Off
; 2057 : 		return (find_first_not_of((const _Elem *)&_Ch, _Off, 1));
; 2058 : 		}
; 2059 : 
; 2060 : 	size_type find_last_not_of(const _Myt& _Right,
; 2061 : 		size_type _Off = npos) const _NOEXCEPT
; 2062 : 		{	// look for none of _Right before _Off
; 2063 : 		return (find_last_not_of(_Right._Myptr(), _Off, _Right.size()));
; 2064 : 		}
; 2065 : 
; 2066 : 	size_type find_last_not_of(const _Elem *_Ptr,
; 2067 : 		size_type _Off, size_type _Count) const
; 2068 : 		{	// look for none of [_Ptr, _Ptr + _Count) before _Off
; 2069 : 		_DEBUG_POINTER_IF(_Count != 0, _Ptr);
; 2070 : 		if (0 < this->_Mysize())
; 2071 : 			{	// worth searching, do it
; 2072 : 			const _Elem *_Uptr = this->_Myptr()
; 2073 : 				+ (_Off < this->_Mysize() ? _Off : this->_Mysize() - 1);
; 2074 : 			for (; ; --_Uptr)
; 2075 : 				if (_Traits::find(_Ptr, _Count, *_Uptr) == 0)
; 2076 : 					return (_Uptr - this->_Myptr());
; 2077 : 				else if (_Uptr == this->_Myptr())
; 2078 : 					break;
; 2079 : 			}
; 2080 : 		return (npos);
; 2081 : 		}
; 2082 : 
; 2083 : 	size_type find_last_not_of(const _Elem *_Ptr,
; 2084 : 		size_type _Off = npos) const
; 2085 : 		{	// look for none of [_Ptr, <null>) before _Off
; 2086 : 		_DEBUG_POINTER(_Ptr);
; 2087 : 		return (find_last_not_of(_Ptr, _Off, _Traits::length(_Ptr)));
; 2088 : 		}
; 2089 : 
; 2090 : 	size_type find_last_not_of(_Elem _Ch,
; 2091 : 		size_type _Off = npos) const
; 2092 : 		{	// look for non _Ch before _Off
; 2093 : 		return (find_last_not_of((const _Elem *)&_Ch, _Off, 1));
; 2094 : 		}
; 2095 : 
; 2096 : 	_Myt substr(size_type _Off = 0, size_type _Count = npos) const
; 2097 : 		{	// return [_Off, _Off + _Count) as new string
; 2098 : 		return (_Myt(*this, _Off, _Count, get_allocator()));
; 2099 : 		}
; 2100 : 
; 2101 : 	int compare(const _Myt& _Right) const _NOEXCEPT
; 2102 : 		{	// compare [0, _Mysize()) with _Right
; 2103 : 		return (compare(0, this->_Mysize(), _Right._Myptr(), _Right.size()));
; 2104 : 		}
; 2105 : 
; 2106 : 	int compare(size_type _Off, size_type _N0,
; 2107 : 		const _Myt& _Right) const
; 2108 : 		{	// compare [_Off, _Off + _N0) with _Right
; 2109 : 		return (compare(_Off, _N0, _Right, 0, npos));
; 2110 : 		}
; 2111 : 
; 2112 : 	int compare(size_type _Off,
; 2113 : 		size_type _N0, const _Myt& _Right,
; 2114 : 		size_type _Roff, size_type _Count = npos) const
; 2115 : 		{	// compare [_Off, _Off + _N0) with _Right [_Roff, _Roff + _Count)
; 2116 : 		if (_Right.size() < _Roff)
; 2117 : 			_Xran();	// _Off off end
; 2118 : 		if (_Right._Mysize() - _Roff < _Count)
; 2119 : 			_Count = _Right._Mysize() - _Roff;	// trim _Count to size
; 2120 : 		return (compare(_Off, _N0, _Right._Myptr() + _Roff, _Count));
; 2121 : 		}
; 2122 : 
; 2123 : 	int compare(const _Elem *_Ptr) const
; 2124 : 		{	// compare [0, _Mysize()) with [_Ptr, <null>)
; 2125 : 		_DEBUG_POINTER(_Ptr);
; 2126 : 		return (compare(0, this->_Mysize(), _Ptr, _Traits::length(_Ptr)));
; 2127 : 		}
; 2128 : 
; 2129 : 	int compare(size_type _Off, size_type _N0, const _Elem *_Ptr) const
; 2130 : 		{	// compare [_Off, _Off + _N0) with [_Ptr, <null>)
; 2131 : 		_DEBUG_POINTER(_Ptr);
; 2132 : 		return (compare(_Off, _N0, _Ptr, _Traits::length(_Ptr)));
; 2133 : 		}
; 2134 : 
; 2135 : 	int compare(size_type _Off,
; 2136 : 		size_type _N0, const _Elem *_Ptr, size_type _Count) const
; 2137 : 		{	// compare [_Off, _Off + _N0) with [_Ptr, _Ptr + _Count)
; 2138 : 		_DEBUG_POINTER_IF(_Count != 0, _Ptr);
; 2139 : 		if (this->_Mysize() < _Off)
; 2140 : 			_Xran();	// _Off off end
; 2141 : 		if (this->_Mysize() - _Off < _N0)
; 2142 : 			_N0 = this->_Mysize() - _Off;	// trim _N0 to size
; 2143 : 
; 2144 : 		size_type _Ans = _Traits::compare(this->_Myptr() + _Off, _Ptr,
; 2145 : 			_N0 < _Count ? _N0 : _Count);
; 2146 : 		return (_Ans != 0 ? (int)_Ans : _N0 < _Count ? -1
; 2147 : 			: _N0 == _Count ? 0 : +1);
; 2148 : 		}
; 2149 : 
; 2150 : 	allocator_type get_allocator() const _NOEXCEPT
; 2151 : 		{	// return allocator object for values
; 2152 : 		return (this->_Getal());
; 2153 : 		}
; 2154 : 
; 2155 : 	void _Chassign(size_type _Off, size_type _Count, _Elem _Ch)
; 2156 : 		{	// assign _Count copies of _Ch beginning at _Off
; 2157 : 		if (_Count == 1)
; 2158 : 			_Traits::assign(*(this->_Myptr() + _Off), _Ch);
; 2159 : 		else
; 2160 : 			_Traits::assign(this->_Myptr() + _Off, _Count, _Ch);
; 2161 : 		}
; 2162 : 
; 2163 : 	void _Copy(size_type _Newsize, size_type _Oldlen)
; 2164 : 		{	// copy _Oldlen elements to newly allocated buffer
; 2165 : 		size_type _Newres = _Newsize | this->_ALLOC_MASK;
; 2166 : 		if (max_size() < _Newres)
; 2167 : 			_Newres = _Newsize;	// undo roundup if too big
; 2168 : 		else if (this->_Myres() / 2 <= _Newres / 3)
; 2169 : 			;
; 2170 : 		else if (this->_Myres() <= max_size() - this->_Myres() / 2)
; 2171 : 			_Newres = this->_Myres()
; 2172 : 				+ this->_Myres() / 2;	// grow exponentially if possible
; 2173 : 		else
; 2174 : 			_Newres = max_size();	// settle for max_size()
; 2175 : 
; 2176 : 		_Elem *_Ptr;
; 2177 : 		_TRY_BEGIN
; 2178 : 			_Ptr = this->_Getal().allocate(_Newres + 1);
; 2179 : 		_CATCH_ALL
; 2180 : 			_Newres = _Newsize;	// allocation failed, undo roundup and retry
; 2181 : 			_TRY_BEGIN
; 2182 : 				_Ptr = this->_Getal().allocate(_Newres + 1);
; 2183 : 			_CATCH_ALL
; 2184 : 			_Tidy(true);	// failed again, discard storage and reraise
; 2185 : 			_RERAISE;
; 2186 : 			_CATCH_END
; 2187 : 		_CATCH_END
; 2188 : 
; 2189 : 		if (0 < _Oldlen)
; 2190 : 			_Traits::copy(_Ptr, this->_Myptr(),
; 2191 : 				_Oldlen);	// copy existing elements
; 2192 : 		_Tidy(true);
; 2193 : 		this->_Getal().construct(&this->_Bx()._Ptr, _Ptr);
; 2194 : 		this->_Myres() = _Newres;
; 2195 : 		_Eos(_Oldlen);
; 2196 : 		}
; 2197 : 
; 2198 : 	void _Eos(size_type _Newsize)
; 2199 : 		{	// set new length and null terminator
; 2200 : 		_Traits::assign(this->_Myptr()[this->_Mysize() = _Newsize], _Elem());

  0006c	c7 46 fc 00 00
	00 00		 mov	 DWORD PTR [esi-4], 0

; 505  : 		return (this->_BUF_SIZE <= this->_Myres

  00073	83 3e 10	 cmp	 DWORD PTR [esi], 16	; 00000010H
  00076	72 05		 jb	 SHORT $LN146@Destroy_ra
; File c:\program files (x86)\microsoft visual studio 14.0\vc\include\xstddef

; 689  : 	return (reinterpret_cast<_Ty *>(

  00078	8b 46 ec	 mov	 eax, DWORD PTR [esi-20]
; File c:\program files (x86)\microsoft visual studio 14.0\vc\include\xstring

; 505  : 		return (this->_BUF_SIZE <= this->_Myres

  0007b	eb 03		 jmp	 SHORT $LN147@Destroy_ra
$LN146@Destroy_ra:
  0007d	8d 46 ec	 lea	 eax, DWORD PTR [esi-20]
$LN147@Destroy_ra:
; File c:\program files (x86)\microsoft visual studio 14.0\vc\include\iosfwd

; 565  : 		_Left = _Right;

  00080	c6 00 00	 mov	 BYTE PTR [eax], 0
; File c:\program files (x86)\microsoft visual studio 14.0\vc\include\xstring

; 2232 : 		else if (this->_BUF_SIZE <= this->_Myres())

  00083	8b 46 e8	 mov	 eax, DWORD PTR [esi-24]
  00086	83 f8 10	 cmp	 eax, 16			; 00000010H
  00089	72 35		 jb	 SHORT $LN246@Destroy_ra

; 2233 : 			{	// copy any leftovers to small buffer and deallocate
; 2234 : 			pointer _Ptr = this->_Bx()._Ptr;
; 2235 : 			this->_Getal().destroy(&this->_Bx()._Ptr);
; 2236 : 			if (0 < _Newsize)
; 2237 : 				_Traits::copy(this->_Bx()._Buf,
; 2238 : 					_STD addressof(*_Ptr), _Newsize);
; 2239 : 			this->_Getal().deallocate(_Ptr, this->_Myres() + 1);

  0008b	8d 48 01	 lea	 ecx, DWORD PTR [eax+1]
; File c:\program files (x86)\microsoft visual studio 14.0\vc\include\xmemory0

; 638  : 		_Deallocate(_Ptr, _Count, sizeof (_Ty));

  0008e	8b 46 d4	 mov	 eax, DWORD PTR [esi-44]

; 100  : 	_SCL_SECURE_ALWAYS_VALIDATE(_Count <= (size_t)(-1) / _Sz);

  00091	83 f9 ff	 cmp	 ecx, -1
  00094	77 5b		 ja	 SHORT $LN313@Destroy_ra

; 101  : 	const size_t _User_size = _Count * _Sz;
; 102  : 	if (_BIG_ALLOCATION_THRESHOLD <= _User_size)

  00096	81 f9 00 10 00
	00		 cmp	 ecx, 4096		; 00001000H
  0009c	72 19		 jb	 SHORT $LN241@Destroy_ra

; 103  : 		{	// deallocate large block
; 104  : 		const uintptr_t _Ptr_user = reinterpret_cast<uintptr_t>(_Ptr);
; 105  : 		_SCL_SECURE_ALWAYS_VALIDATE(

  0009e	a8 1f		 test	 al, 31			; 0000001fH
  000a0	75 4f		 jne	 SHORT $LN313@Destroy_ra

; 106  : 			(_Ptr_user & (_BIG_ALLOCATION_ALIGNMENT - 1)) == 0);
; 107  : 		const uintptr_t _Ptr_ptr = _Ptr_user - sizeof(void *);
; 108  : 		const uintptr_t _Ptr_container =
; 109  : 			*reinterpret_cast<uintptr_t *>(_Ptr_ptr);

  000a2	8b 48 fc	 mov	 ecx, DWORD PTR [eax-4]

; 110  : 
; 111  :  #ifdef _DEBUG
; 112  : 		// If the following asserts, it likely means that we are performing
; 113  : 		// an aligned delete on memory coming from an unaligned allocation.
; 114  : 		_SCL_SECURE_ALWAYS_VALIDATE(
; 115  : 			reinterpret_cast<uintptr_t *>(_Ptr_ptr)[-1] ==
; 116  : 				_BIG_ALLOCATION_SENTINEL);
; 117  :  #endif /* _DEBUG */
; 118  : 
; 119  : 		// Extra paranoia on aligned allocation/deallocation
; 120  : 		_SCL_SECURE_ALWAYS_VALIDATE(_Ptr_container < _Ptr_user);

  000a5	3b c8		 cmp	 ecx, eax
  000a7	73 48		 jae	 SHORT $LN313@Destroy_ra

; 121  : 
; 122  :  #ifdef _DEBUG
; 123  : 		_SCL_SECURE_ALWAYS_VALIDATE(2 * sizeof(void *)
; 124  : 			<= _Ptr_user - _Ptr_container);
; 125  : 
; 126  :  #else /* _DEBUG */
; 127  : 		_SCL_SECURE_ALWAYS_VALIDATE(sizeof(void *)

  000a9	2b c1		 sub	 eax, ecx
  000ab	83 f8 04	 cmp	 eax, 4
  000ae	72 41		 jb	 SHORT $LN313@Destroy_ra

; 128  : 			<= _Ptr_user - _Ptr_container);
; 129  :  #endif /* _DEBUG */
; 130  : 
; 131  : 		_SCL_SECURE_ALWAYS_VALIDATE(_Ptr_user - _Ptr_container

  000b0	83 f8 23	 cmp	 eax, 35			; 00000023H
  000b3	77 3c		 ja	 SHORT $LN313@Destroy_ra

; 132  : 			<= _NON_USER_SIZE);
; 133  : 
; 134  : 		_Ptr = reinterpret_cast<void *>(_Ptr_container);

  000b5	8b c1		 mov	 eax, ecx
$LN241@Destroy_ra:

; 135  : 		}
; 136  :  #endif /* defined(_M_IX86) || defined(_M_X64) */
; 137  : 
; 138  : 	::operator delete(_Ptr);

  000b7	50		 push	 eax
  000b8	e8 00 00 00 00	 call	 ??3@YAXPAX@Z		; operator delete
  000bd	83 c4 04	 add	 esp, 4
$LN246@Destroy_ra:
; File c:\program files (x86)\microsoft visual studio 14.0\vc\include\xstring

; 2241 : 		this->_Myres() = this->_BUF_SIZE - 1;

  000c0	c7 46 e8 0f 00
	00 00		 mov	 DWORD PTR [esi-24], 15	; 0000000fH

; 506  : 			? _STD addressof(*this->_Bx._Ptr)
; 507  : 			: this->_Bx._Buf);
; 508  : 		}
; 509  : 
; 510  : 	const value_type *_Myptr() const
; 511  : 		{	// determine current pointer to buffer for nonmutable string
; 512  : 		return (this->_BUF_SIZE <= this->_Myres
; 513  : 			? _STD addressof(*this->_Bx._Ptr)
; 514  : 			: this->_Bx._Buf);
; 515  : 		}
; 516  : 
; 517  : 	union _Bxty
; 518  : 		{	// storage for small buffer or pointer to larger one
; 519  : 		value_type _Buf[_BUF_SIZE];
; 520  : 		pointer _Ptr;
; 521  : 		char _Alias[_BUF_SIZE];	// to permit aliasing
; 522  : 		} _Bx;
; 523  : 
; 524  : 	size_type _Mysize;	// current length of string
; 525  : 	size_type _Myres;	// current storage reserved for string
; 526  : 	};
; 527  : 
; 528  : 		// TEMPLATE CLASS _String_alloc
; 529  : template<class _Alloc_types>
; 530  : 	class _String_alloc
; 531  : 	{	// base class for basic_string to hold allocator
; 532  : public:
; 533  : 	typedef _String_alloc<_Alloc_types> _Myt;
; 534  : 	typedef typename _Alloc_types::_Alloc _Alloc;
; 535  : 	typedef typename _Alloc_types::_Alty _Alty;
; 536  : 	typedef typename _Alloc_types::_Val_types _Val_types;
; 537  : 
; 538  : 	typedef typename _Val_types::value_type value_type;
; 539  : 	typedef typename _Val_types::size_type size_type;
; 540  : 	typedef typename _Val_types::difference_type difference_type;
; 541  : 	typedef typename _Val_types::pointer pointer;
; 542  : 	typedef typename _Val_types::const_pointer const_pointer;
; 543  : 	typedef typename _Val_types::reference reference;
; 544  : 	typedef typename _Val_types::const_reference const_reference;
; 545  : 
; 546  : 	typedef _String_iterator<_String_val<_Val_types> > iterator;
; 547  : 	typedef _String_const_iterator<_String_val<_Val_types> > const_iterator;
; 548  : 
; 549  : 	enum
; 550  : 		{	// length of internal buffer, [1, 16]
; 551  : 		_BUF_SIZE = _String_val<_Val_types>::_BUF_SIZE
; 552  : 		};
; 553  : 
; 554  : 	enum
; 555  : 		{	// roundup mask for allocated buffers, [0, 15]
; 556  : 		_ALLOC_MASK = _String_val<_Val_types>::_ALLOC_MASK
; 557  : 		};
; 558  : 
; 559  : 	value_type *_Myptr()
; 560  : 		{	// determine current pointer to buffer for mutable string
; 561  : 		return (_Get_data()._Myptr());
; 562  : 		}
; 563  : 
; 564  : 	const value_type *_Myptr() const
; 565  : 		{	// determine current pointer to buffer for nonmutable string
; 566  : 		return (_Get_data()._Myptr());
; 567  : 		}
; 568  : 
; 569  :  #if _ITERATOR_DEBUG_LEVEL == 0
; 570  : 	_String_alloc(const _Alloc& _Al = _Alloc())
; 571  : 		: _Mypair(_One_then_variadic_args_t(), _Al)
; 572  : 		{	// construct allocator from _Al
; 573  : 		}
; 574  : 
; 575  : 	_String_alloc(_Alloc&& _Al)
; 576  : 		: _Mypair(_One_then_variadic_args_t(), _STD move(_Al))
; 577  : 		{	// construct allocator from _Al
; 578  : 		}
; 579  : 
; 580  : 	void _Copy_alloc(const _Alty& _Al)
; 581  : 		{	// replace old allocator
; 582  : 		_Pocca(_Getal(), _Al);
; 583  : 		}
; 584  : 
; 585  : 	void _Move_alloc(_Alty& _Al)
; 586  : 		{	// replace old allocator
; 587  : 		_Pocma(_Getal(), _Al);
; 588  : 		}
; 589  : 
; 590  : 	void _Swap_alloc(_Myt& _Right)
; 591  : 		{	// swap allocators
; 592  : 		_Pocs(_Getal(), _Right._Getal());
; 593  : 		}
; 594  : 
; 595  :  #else /* _ITERATOR_DEBUG_LEVEL == 0 */
; 596  : 	_String_alloc(const _Alloc& _Al = _Alloc())
; 597  : 		: _Mypair(_One_then_variadic_args_t(), _Al)
; 598  : 		{	// construct allocator from _Al
; 599  : 		_Alloc_proxy();
; 600  : 		}
; 601  : 
; 602  : 	_String_alloc(_Alloc&& _Al)
; 603  : 		: _Mypair(_One_then_variadic_args_t(), _STD move(_Al))
; 604  : 		{	// construct allocator from _Al
; 605  : 		_Alloc_proxy();
; 606  : 		}
; 607  : 
; 608  : 	~_String_alloc() _NOEXCEPT
; 609  : 		{	// destroy the object
; 610  : 		_Free_proxy();
; 611  : 		}
; 612  : 
; 613  : 	void _Copy_alloc(const _Alty& _Al)
; 614  : 		{	// replace old allocator
; 615  : 		_Free_proxy();
; 616  : 		_Pocca(_Getal(), _Al);
; 617  : 		_Alloc_proxy();
; 618  : 		}
; 619  : 
; 620  : 	void _Move_alloc(_Alty& _Al)
; 621  : 		{	// replace old allocator
; 622  : 		_Free_proxy();
; 623  : 		_Pocma(_Getal(), _Al);
; 624  : 		_Alloc_proxy();
; 625  : 		}
; 626  : 
; 627  : 	void _Swap_alloc(_Myt& _Right)
; 628  : 		{	// swap allocators
; 629  : 		_Pocs(_Getal(), _Right._Getal());
; 630  : 		_Swap_adl(_Myproxy(), _Right._Myproxy());
; 631  : 		}
; 632  : 
; 633  : 	void _Alloc_proxy()
; 634  : 		{	// construct proxy
; 635  : 		typename _Alty::template rebind<_Container_proxy>::other
; 636  : 			_Alproxy(_Getal());
; 637  : 		_Myproxy() = _Alproxy.allocate(1);
; 638  : 		_Alproxy.construct(_Myproxy(), _Container_proxy());
; 639  : 		_Myproxy()->_Mycont = &_Get_data();
; 640  : 		}
; 641  : 
; 642  : 	void _Free_proxy()
; 643  : 		{	// destroy proxy
; 644  : 		typename _Alty::template rebind<_Container_proxy>::other
; 645  : 			_Alproxy(_Getal());
; 646  : 		_Orphan_all();
; 647  : 		_Alproxy.destroy(_Myproxy());
; 648  : 		_Alproxy.deallocate(_Myproxy(), 1);
; 649  : 		_Myproxy() = 0;
; 650  : 		}
; 651  : 
; 652  : 	_Iterator_base12 **_Getpfirst() const
; 653  : 		{	// get address of iterator chain
; 654  : 		return (_Get_data()._Getpfirst());
; 655  : 		}
; 656  : 
; 657  : 	_Container_proxy * & _Myproxy() _NOEXCEPT
; 658  : 		{	// return reference to _Myproxy
; 659  : 		return (_Get_data()._Myproxy);
; 660  : 		}
; 661  : 
; 662  : 	_Container_proxy * const & _Myproxy() const _NOEXCEPT
; 663  : 		{	// return const reference to _Myproxy
; 664  : 		return (_Get_data()._Myproxy);
; 665  : 		}
; 666  :  #endif /* _ITERATOR_DEBUG_LEVEL == 0 */
; 667  : 
; 668  : 	void _Orphan_all()
; 669  : 		{	// orphan all iterators
; 670  : 		_Get_data()._Orphan_all();
; 671  : 		}
; 672  : 
; 673  : 	void _Swap_all(_Myt& _Right)
; 674  : 		{	// swap all iterators
; 675  : 		_Get_data()._Swap_all(_Right._Get_data());
; 676  : 		}
; 677  : 
; 678  : 	_Alty& _Getal() _NOEXCEPT
; 679  : 		{	// return reference to allocator
; 680  : 		return (_Mypair._Get_first());
; 681  : 		}
; 682  : 
; 683  : 	const _Alty& _Getal() const _NOEXCEPT
; 684  : 		{	// return const reference to allocator
; 685  : 		return (_Mypair._Get_first());
; 686  : 		}
; 687  : 
; 688  : 	_String_val<_Val_types>& _Get_data() _NOEXCEPT
; 689  : 		{	// return reference to _String_val
; 690  : 		return (_Mypair._Get_second());
; 691  : 		}
; 692  : 
; 693  : 	const _String_val<_Val_types>& _Get_data() const _NOEXCEPT
; 694  : 		{	// return const reference to _String_val
; 695  : 		return (_Mypair._Get_second());
; 696  : 		}
; 697  : 
; 698  : 	typedef typename _String_val<_Val_types>::_Bxty _Bxty;
; 699  : 
; 700  : 	_Bxty& _Bx() _NOEXCEPT
; 701  : 		{	// return reference to _Bx
; 702  : 		return (_Get_data()._Bx);
; 703  : 		}
; 704  : 
; 705  : 	const _Bxty& _Bx() const _NOEXCEPT
; 706  : 		{	// return const reference to _Bx
; 707  : 		return (_Get_data()._Bx);
; 708  : 		}
; 709  : 
; 710  : 	size_type& _Mysize() _NOEXCEPT
; 711  : 		{	// return reference to _Mysize
; 712  : 		return (_Get_data()._Mysize);
; 713  : 		}
; 714  : 
; 715  : 	const size_type& _Mysize() const _NOEXCEPT
; 716  : 		{	// return const reference to _Mysize
; 717  : 		return (_Get_data()._Mysize);
; 718  : 		}
; 719  : 
; 720  : 	size_type& _Myres() _NOEXCEPT
; 721  : 		{	// return reference to _Myres
; 722  : 		return (_Get_data()._Myres);
; 723  : 		}
; 724  : 
; 725  : 	const size_type& _Myres() const _NOEXCEPT
; 726  : 		{	// return const reference to _Myres
; 727  : 		return (_Get_data()._Myres);
; 728  : 		}
; 729  : 
; 730  : private:
; 731  : 	_Compressed_pair<_Alty, _String_val<_Val_types> > _Mypair;
; 732  : 	};
; 733  : 
; 734  : 		// TEMPLATE CLASS basic_string
; 735  : template<class _Elem,
; 736  : 	class _Traits,
; 737  : 	class _Alloc>
; 738  : 	class basic_string
; 739  : 		: public _String_alloc<_String_base_types<_Elem, _Alloc> >
; 740  : 	{	// null-terminated transparent array of elements
; 741  : public:
; 742  : 	typedef basic_string<_Elem, _Traits, _Alloc> _Myt;
; 743  : 	typedef _String_alloc<_String_base_types<_Elem, _Alloc> > _Mybase;
; 744  : 	typedef _Traits traits_type;
; 745  : 	typedef _Alloc allocator_type;
; 746  : 
; 747  : 	typedef typename _Mybase::_Alty _Alty;
; 748  : 
; 749  : 	typedef typename _Mybase::value_type value_type;
; 750  : 	typedef typename _Mybase::size_type size_type;
; 751  : 	typedef typename _Mybase::difference_type difference_type;
; 752  : 	typedef typename _Mybase::pointer pointer;
; 753  : 	typedef typename _Mybase::const_pointer const_pointer;
; 754  : 	typedef typename _Mybase::reference reference;
; 755  : 	typedef typename _Mybase::const_reference const_reference;
; 756  : 
; 757  : 	typedef typename _Mybase::iterator iterator;
; 758  : 	typedef typename _Mybase::const_iterator const_iterator;
; 759  : 
; 760  : 	typedef _STD reverse_iterator<iterator> reverse_iterator;
; 761  : 	typedef _STD reverse_iterator<const_iterator> const_reverse_iterator;
; 762  : 
; 763  : 	basic_string(const _Myt& _Right)
; 764  : 
; 765  : 		: _Mybase(_Right._Getal().select_on_container_copy_construction())
; 766  : 
; 767  : 
; 768  : 		{	// construct by copying _Right
; 769  : 		_Tidy();
; 770  : 		assign(_Right, 0, npos);
; 771  : 		}
; 772  : 
; 773  : 	basic_string(const _Myt& _Right, const _Alloc& _Al)
; 774  : 		: _Mybase(_Al)
; 775  : 		{	// construct by copying with allocator
; 776  : 		_Tidy();
; 777  : 		assign(_Right, 0, npos);
; 778  : 		}
; 779  : 
; 780  : 	basic_string() _NOEXCEPT
; 781  : 		: _Mybase()
; 782  : 		{	// construct empty string
; 783  : 		_Tidy();
; 784  : 		}
; 785  : 
; 786  : 	explicit basic_string(const _Alloc& _Al) _NOEXCEPT
; 787  : 		: _Mybase(_Al)
; 788  : 		{	// construct empty string with allocator
; 789  : 		_Tidy();
; 790  : 		}
; 791  : 
; 792  : 	basic_string(const _Myt& _Right, size_type _Roff,
; 793  : 		size_type _Count = npos)
; 794  : 		: _Mybase(_Right._Getal())
; 795  : 		{	// construct from _Right [_Roff, _Roff + _Count)
; 796  : 		_Tidy();
; 797  : 		assign(_Right, _Roff, _Count);
; 798  : 		}
; 799  : 
; 800  : 	basic_string(const _Myt& _Right, size_type _Roff, size_type _Count,
; 801  : 		const _Alloc& _Al)
; 802  : 		: _Mybase(_Al)
; 803  : 		{	// construct from _Right [_Roff, _Roff + _Count) with allocator
; 804  : 		_Tidy();
; 805  : 		assign(_Right, _Roff, _Count);
; 806  : 		}
; 807  : 
; 808  : 	basic_string(const _Elem *_Ptr, size_type _Count)
; 809  : 		: _Mybase()
; 810  : 		{	// construct from [_Ptr, _Ptr + _Count)
; 811  : 		_Tidy();
; 812  : 		assign(_Ptr, _Count);
; 813  : 		}
; 814  : 
; 815  : 	basic_string(const _Elem *_Ptr, size_type _Count, const _Alloc& _Al)
; 816  : 		: _Mybase(_Al)
; 817  : 		{	// construct from [_Ptr, _Ptr + _Count) with allocator
; 818  : 		_Tidy();
; 819  : 		assign(_Ptr, _Count);
; 820  : 		}
; 821  : 
; 822  : 	basic_string(const _Elem *_Ptr)
; 823  : 		: _Mybase()
; 824  : 		{	// construct from [_Ptr, <null>)
; 825  : 		_Tidy();
; 826  : 		assign(_Ptr);
; 827  : 		}
; 828  : 
; 829  : 	basic_string(const _Elem *_Ptr, const _Alloc& _Al)
; 830  : 		: _Mybase(_Al)
; 831  : 		{	// construct from [_Ptr, <null>) with allocator
; 832  : 		_Tidy();
; 833  : 		assign(_Ptr);
; 834  : 		}
; 835  : 
; 836  : 	basic_string(size_type _Count, _Elem _Ch)
; 837  : 		: _Mybase()
; 838  : 		{	// construct from _Count * _Ch
; 839  : 		_Tidy();
; 840  : 		assign(_Count, _Ch);
; 841  : 		}
; 842  : 
; 843  : 	basic_string(size_type _Count, _Elem _Ch, const _Alloc& _Al)
; 844  : 		: _Mybase(_Al)
; 845  : 		{	// construct from _Count * _Ch with allocator
; 846  : 		_Tidy();
; 847  : 		assign(_Count, _Ch);
; 848  : 		}
; 849  : 
; 850  : 	template<class _Iter,
; 851  : 		class = typename enable_if<_Is_iterator<_Iter>::value,
; 852  : 			void>::type>
; 853  : 		basic_string(_Iter _First, _Iter _Last, const _Alloc& _Al = _Alloc())
; 854  : 		: _Mybase(_Al)
; 855  : 		{	// construct from [_First, _Last) with optional allocator
; 856  : 		_DEBUG_RANGE(_First, _Last);
; 857  : 		_Tidy();
; 858  : 		_Construct(_Unchecked(_First), _Unchecked(_Last), _Iter_cat(_First));
; 859  : 		}
; 860  : 
; 861  : 	template<class _Iter>
; 862  : 		void _Construct(_Iter _First,
; 863  : 			_Iter _Last, input_iterator_tag)
; 864  : 		{	// initialize from [_First, _Last), input iterators
; 865  : 		_TRY_BEGIN
; 866  : 		for (; _First != _Last; ++_First)
; 867  : 			append((size_type)1, (_Elem)*_First);
; 868  : 		_CATCH_ALL
; 869  : 		_Tidy(true);
; 870  : 		_RERAISE;
; 871  : 		_CATCH_END
; 872  : 		}
; 873  : 
; 874  : 	template<class _Iter>
; 875  : 		void _Construct(_Iter _First,
; 876  : 			_Iter _Last, forward_iterator_tag)
; 877  : 		{	// initialize from [_First, _Last), forward iterators
; 878  : 		size_type _Count = 0;
; 879  : 		_Distance(_First, _Last, _Count);
; 880  : 		reserve(_Count);
; 881  : 		_Construct(_First, _Last, input_iterator_tag());
; 882  : 		}
; 883  : 
; 884  : 	void _Construct(_Elem *_First,
; 885  : 		_Elem *_Last, random_access_iterator_tag)
; 886  : 		{	// initialize from [_First, _Last), pointers
; 887  : 		if (_First != _Last)
; 888  : 			assign(_First, _Last - _First);
; 889  : 		}
; 890  : 
; 891  : 	void _Construct(const _Elem *_First,
; 892  : 		const _Elem *_Last, random_access_iterator_tag)
; 893  : 		{	// initialize from [_First, _Last), const pointers
; 894  : 		if (_First != _Last)
; 895  : 			assign(_First, _Last - _First);
; 896  : 		}
; 897  : 
; 898  : 	basic_string(_Myt&& _Right) _NOEXCEPT
; 899  : 		: _Mybase(_STD move(_Right._Getal()))
; 900  : 		{	// construct by moving _Right
; 901  : 		_Tidy();
; 902  : 		_Assign_rv(_STD forward<_Myt>(_Right));
; 903  : 		}
; 904  : 
; 905  : 	basic_string(_Myt&& _Right, const _Alloc& _Al)
; 906  : 		: _Mybase(_Al)
; 907  : 		{	// construct by moving _Right, allocator
; 908  : 		if (this->_Getal() != _Right._Getal())
; 909  : 			assign(_Right.begin(), _Right.end());
; 910  : 		else
; 911  : 			_Assign_rv(_STD forward<_Myt>(_Right));
; 912  : 		}
; 913  : 
; 914  : 	_Myt& operator=(_Myt&& _Right)
; 915  : 		_NOEXCEPT_OP(_Alty::propagate_on_container_move_assignment::value
; 916  : 			|| _Alty::is_always_equal::value)
; 917  : 		{	// assign by moving _Right
; 918  : 		if (this != &_Right)
; 919  : 			{	// different, assign it
; 920  : 			_Tidy(true);
; 921  : 
; 922  : 			if (_Alty::propagate_on_container_move_assignment::value
; 923  : 				&& this->_Getal() != _Right._Getal())
; 924  : 				this->_Move_alloc(_Right._Getal());
; 925  : 
; 926  : 			if (this->_Getal() != _Right._Getal())
; 927  : 				assign(_Right.begin(), _Right.end());
; 928  : 			else
; 929  : 				_Assign_rv(_STD forward<_Myt>(_Right));
; 930  : 			}
; 931  : 		return (*this);
; 932  : 		}
; 933  : 
; 934  : 	_Myt& assign(_Myt&& _Right) _NOEXCEPT
; 935  : 		{	// assign by moving _Right
; 936  : 		if (this == &_Right)
; 937  : 			;
; 938  : 		else if (get_allocator() != _Right.get_allocator()
; 939  : 			&& this->_BUF_SIZE <= _Right._Myres())
; 940  : 			*this = _Right;
; 941  : 		else
; 942  : 			{	// not same, clear this and steal from _Right
; 943  : 			_Tidy(true);
; 944  : 			_Assign_rv(_STD forward<_Myt>(_Right));
; 945  : 			}
; 946  : 		return (*this);
; 947  : 		}
; 948  : 
; 949  : 	void _Assign_rv(_Myt&& _Right)
; 950  : 		{	// assign by moving _Right
; 951  : 		if (_Right._Myres() < this->_BUF_SIZE)
; 952  : 			_Traits::move(this->_Bx()._Buf, _Right._Bx()._Buf,
; 953  : 				_Right._Mysize() + 1);
; 954  : 		else
; 955  : 			{	// copy pointer
; 956  : 			this->_Getal().construct(&this->_Bx()._Ptr, _Right._Bx()._Ptr);
; 957  : 			_Right._Bx()._Ptr = pointer();
; 958  : 			}
; 959  : 		this->_Mysize() = _Right._Mysize();
; 960  : 		this->_Myres() = _Right._Myres();
; 961  : 		_Right._Tidy();
; 962  : 		}
; 963  : 
; 964  : 	basic_string(_XSTD initializer_list<_Elem> _Ilist,
; 965  : 		const _Alloc& _Al = allocator_type())
; 966  : 		: _Mybase(_Al)
; 967  : 		{	// construct from initializer_list
; 968  : 		_Tidy();
; 969  : 		assign(_Ilist.begin(), _Ilist.end());
; 970  : 		}
; 971  : 
; 972  : 	_Myt& operator=(_XSTD initializer_list<_Elem> _Ilist)
; 973  : 		{	// assign initializer_list
; 974  : 		return (assign(_Ilist.begin(), _Ilist.end()));
; 975  : 		}
; 976  : 
; 977  : 	_Myt& operator+=(_XSTD initializer_list<_Elem> _Ilist)
; 978  : 		{	// append initializer_list
; 979  : 		return (append(_Ilist.begin(), _Ilist.end()));
; 980  : 		}
; 981  : 
; 982  : 	_Myt& assign(_XSTD initializer_list<_Elem> _Ilist)
; 983  : 		{	// assign initializer_list
; 984  : 		return (assign(_Ilist.begin(), _Ilist.end()));
; 985  : 		}
; 986  : 
; 987  : 	_Myt& append(_XSTD initializer_list<_Elem> _Ilist)
; 988  : 		{	// append initializer_list
; 989  : 		return (append(_Ilist.begin(), _Ilist.end()));
; 990  : 		}
; 991  : 
; 992  : 	iterator insert(const_iterator _Where,
; 993  : 		_XSTD initializer_list<_Elem> _Ilist)
; 994  : 		{	// insert initializer_list
; 995  : 		return (insert(_Where, _Ilist.begin(), _Ilist.end()));
; 996  : 		}
; 997  : 
; 998  : 	_Myt& replace(const_iterator _First, const_iterator _Last,
; 999  : 		_XSTD initializer_list<_Elem> _Ilist)
; 1000 : 		{	// replace with initializer_list
; 1001 : 		return (replace(_First, _Last, _Ilist.begin(), _Ilist.end()));
; 1002 : 		}
; 1003 : 
; 1004 : 	~basic_string() _NOEXCEPT
; 1005 : 		{	// destroy the string
; 1006 : 		_Tidy(true);
; 1007 : 		}
; 1008 : 
; 1009 : 	_PGLOBAL static const size_type npos;	// bad/missing length/position
; 1010 : 
; 1011 : 	_Myt& operator=(const _Myt& _Right)
; 1012 : 		{	// assign _Right
; 1013 : 		if (this != &_Right)
; 1014 : 			{	// different, assign it
; 1015 : 			if (this->_Getal() != _Right._Getal()
; 1016 : 				&& _Alty::propagate_on_container_copy_assignment::value)
; 1017 : 				{	// change allocator before copying
; 1018 : 				_Tidy(true);
; 1019 : 				this->_Copy_alloc(_Right._Getal());
; 1020 : 				}
; 1021 : 
; 1022 : 			assign(_Right);
; 1023 : 			}
; 1024 : 		return (*this);
; 1025 : 		}
; 1026 : 
; 1027 : 	_Myt& operator=(const _Elem *_Ptr)
; 1028 : 		{	// assign [_Ptr, <null>)
; 1029 : 		return (assign(_Ptr));
; 1030 : 		}
; 1031 : 
; 1032 : 	_Myt& operator=(_Elem _Ch)
; 1033 : 		{	// assign 1 * _Ch
; 1034 : 		return (assign(1, _Ch));
; 1035 : 		}
; 1036 : 
; 1037 : 	_Myt& operator+=(const _Myt& _Right)
; 1038 : 		{	// append _Right
; 1039 : 		return (append(_Right));
; 1040 : 		}
; 1041 : 
; 1042 : 	_Myt& operator+=(const _Elem *_Ptr)
; 1043 : 		{	// append [_Ptr, <null>)
; 1044 : 		return (append(_Ptr));
; 1045 : 		}
; 1046 : 
; 1047 : 	_Myt& operator+=(_Elem _Ch)
; 1048 : 		{	// append 1 * _Ch
; 1049 : 		return (append((size_type)1, _Ch));
; 1050 : 		}
; 1051 : 
; 1052 : 	_Myt& append(const _Myt& _Right)
; 1053 : 		{	// append _Right
; 1054 : 		return (append(_Right, 0, npos));
; 1055 : 		}
; 1056 : 
; 1057 : 	_Myt& append(const _Myt& _Right,
; 1058 : 		size_type _Roff, size_type _Count = npos)
; 1059 : 		{	// append _Right [_Roff, _Roff + _Count)
; 1060 : 		if (_Right.size() < _Roff)
; 1061 : 			_Xran();	// _Roff off end
; 1062 : 		size_type _Num = _Right.size() - _Roff;
; 1063 : 		if (_Num < _Count)
; 1064 : 			_Count = _Num;	// trim _Count to size
; 1065 : 		if (npos - this->_Mysize() <= _Count)
; 1066 : 			_Xlen();	// result too long
; 1067 : 
; 1068 : 		if (0 < _Count && _Grow(_Num = this->_Mysize() + _Count))
; 1069 : 			{	// make room and append new stuff
; 1070 : 			_Traits::copy(this->_Myptr() + this->_Mysize(),
; 1071 : 				_Right._Myptr() + _Roff, _Count);
; 1072 : 			_Eos(_Num);
; 1073 : 			}
; 1074 : 		return (*this);
; 1075 : 		}
; 1076 : 
; 1077 : 	_Myt& append(const _Elem *_Ptr, size_type _Count)
; 1078 : 		{	// append [_Ptr, _Ptr + _Count)
; 1079 : 		_DEBUG_POINTER_IF(_Count != 0, _Ptr);
; 1080 : 		if (_Inside(_Ptr))
; 1081 : 			return (append(*this,
; 1082 : 				_Ptr - this->_Myptr(), _Count));	// substring
; 1083 : 		if (npos - this->_Mysize() <= _Count)
; 1084 : 			_Xlen();	// result too long
; 1085 : 
; 1086 : 		size_type _Num;
; 1087 : 		if (0 < _Count && _Grow(_Num = this->_Mysize() + _Count))
; 1088 : 			{	// make room and append new stuff
; 1089 : 			_Traits::copy(this->_Myptr() + this->_Mysize(), _Ptr, _Count);
; 1090 : 			_Eos(_Num);
; 1091 : 			}
; 1092 : 		return (*this);
; 1093 : 		}
; 1094 : 
; 1095 : 	_Myt& append(const _Elem *_Ptr)
; 1096 : 		{	// append [_Ptr, <null>)
; 1097 : 		_DEBUG_POINTER(_Ptr);
; 1098 : 		return (append(_Ptr, _Traits::length(_Ptr)));
; 1099 : 		}
; 1100 : 
; 1101 : 	_Myt& append(size_type _Count, _Elem _Ch)
; 1102 : 		{	// append _Count * _Ch
; 1103 : 		if (npos - this->_Mysize() <= _Count)
; 1104 : 			_Xlen();	// result too long
; 1105 : 
; 1106 : 		size_type _Num;
; 1107 : 		if (0 < _Count && _Grow(_Num = this->_Mysize() + _Count))
; 1108 : 			{	// make room and append new stuff using assign
; 1109 : 			_Chassign(this->_Mysize(), _Count, _Ch);
; 1110 : 			_Eos(_Num);
; 1111 : 			}
; 1112 : 		return (*this);
; 1113 : 		}
; 1114 : 
; 1115 : 	template<class _Iter>
; 1116 : 		typename enable_if<_Is_iterator<_Iter>::value,
; 1117 : 			_Myt&>::type
; 1118 : 		append(_Iter _First, _Iter _Last)
; 1119 : 		{	// append [_First, _Last), input iterators
; 1120 : 		return (replace(end(), end(), _First, _Last));
; 1121 : 		}
; 1122 : 
; 1123 : 	_Myt& append(const_pointer _First, const_pointer _Last)
; 1124 : 		{	// append [_First, _Last), const pointers
; 1125 : 		return (replace(end(), end(), _First, _Last));
; 1126 : 		}
; 1127 : 
; 1128 : 	_Myt& append(const_iterator _First, const_iterator _Last)
; 1129 : 		{	// append [_First, _Last), const_iterators
; 1130 : 		return (replace(end(), end(), _First, _Last));
; 1131 : 		}
; 1132 : 
; 1133 : 	_Myt& assign(const _Myt& _Right)
; 1134 : 		{	// assign _Right
; 1135 : 		return (assign(_Right, 0, npos));
; 1136 : 		}
; 1137 : 
; 1138 : 	_Myt& assign(const _Myt& _Right,
; 1139 : 		size_type _Roff, size_type _Count = npos)
; 1140 : 		{	// assign _Right [_Roff, _Roff + _Count)
; 1141 : 		if (_Right.size() < _Roff)
; 1142 : 			_Xran();	// _Roff off end
; 1143 : 		size_type _Num = _Right.size() - _Roff;
; 1144 : 		if (_Count < _Num)
; 1145 : 			_Num = _Count;	// trim _Num to size
; 1146 : 
; 1147 : 		if (this == &_Right)
; 1148 : 			erase((size_type)(_Roff + _Num)), erase(0, _Roff);	// substring
; 1149 : 		else if (_Grow(_Num))
; 1150 : 			{	// make room and assign new stuff
; 1151 : 			_Traits::copy(this->_Myptr(),
; 1152 : 				_Right._Myptr() + _Roff, _Num);
; 1153 : 			_Eos(_Num);
; 1154 : 			}
; 1155 : 		return (*this);
; 1156 : 		}
; 1157 : 
; 1158 : 	_Myt& assign(const _Elem *_Ptr, size_type _Count)
; 1159 : 		{	// assign [_Ptr, _Ptr + _Count)
; 1160 : 		_DEBUG_POINTER_IF(_Count != 0, _Ptr);
; 1161 : 		if (_Inside(_Ptr))
; 1162 : 			return (assign(*this,
; 1163 : 				_Ptr - this->_Myptr(), _Count));	// substring
; 1164 : 
; 1165 : 		if (_Grow(_Count))
; 1166 : 			{	// make room and assign new stuff
; 1167 : 			_Traits::copy(this->_Myptr(), _Ptr, _Count);
; 1168 : 			_Eos(_Count);
; 1169 : 			}
; 1170 : 		return (*this);
; 1171 : 		}
; 1172 : 
; 1173 : 	_Myt& assign(const _Elem *_Ptr)
; 1174 : 		{	// assign [_Ptr, <null>)
; 1175 : 		_DEBUG_POINTER(_Ptr);
; 1176 : 		return (assign(_Ptr, _Traits::length(_Ptr)));
; 1177 : 		}
; 1178 : 
; 1179 : 	_Myt& assign(size_type _Count, _Elem _Ch)
; 1180 : 		{	// assign _Count * _Ch
; 1181 : 		if (_Count == npos)
; 1182 : 			_Xlen();	// result too long
; 1183 : 
; 1184 : 		if (_Grow(_Count))
; 1185 : 			{	// make room and assign new stuff
; 1186 : 			_Chassign(0, _Count, _Ch);
; 1187 : 			_Eos(_Count);
; 1188 : 			}
; 1189 : 		return (*this);
; 1190 : 		}
; 1191 : 
; 1192 : 	template<class _Iter>
; 1193 : 		typename enable_if<_Is_iterator<_Iter>::value,
; 1194 : 			_Myt&>::type
; 1195 : 		assign(_Iter _First, _Iter _Last)
; 1196 : 		{	// assign [_First, _Last), input iterators
; 1197 : 		return (replace(begin(), end(), _First, _Last));
; 1198 : 		}
; 1199 : 
; 1200 : 	_Myt& assign(const_pointer _First, const_pointer _Last)
; 1201 : 		{	// assign [_First, _Last), const pointers
; 1202 : 		return (replace(begin(), end(), _First, _Last));
; 1203 : 		}
; 1204 : 
; 1205 : 	_Myt& assign(const_iterator _First, const_iterator _Last)
; 1206 : 		{	// assign [_First, _Last), const_iterators
; 1207 : 		return (replace(begin(), end(), _First, _Last));
; 1208 : 		}
; 1209 : 
; 1210 : 	_Myt& insert(size_type _Off, const _Myt& _Right)
; 1211 : 		{	// insert _Right at _Off
; 1212 : 		return (insert(_Off, _Right, 0, npos));
; 1213 : 		}
; 1214 : 
; 1215 : 	_Myt& insert(size_type _Off,
; 1216 : 		const _Myt& _Right, size_type _Roff, size_type _Count = npos)
; 1217 : 		{	// insert _Right [_Roff, _Roff + _Count) at _Off
; 1218 : 		if (this->_Mysize() < _Off || _Right.size() < _Roff)
; 1219 : 			_Xran();	// _Off or _Roff off end
; 1220 : 		size_type _Num = _Right.size() - _Roff;
; 1221 : 		if (_Num < _Count)
; 1222 : 			_Count = _Num;	// trim _Count to size
; 1223 : 		if (npos - this->_Mysize() <= _Count)
; 1224 : 			_Xlen();	// result too long
; 1225 : 
; 1226 : 		if (0 < _Count && _Grow(_Num = this->_Mysize() + _Count))
; 1227 : 			{	// make room and insert new stuff
; 1228 : 			_Traits::move(this->_Myptr() + _Off + _Count,
; 1229 : 				this->_Myptr() + _Off,
; 1230 : 				this->_Mysize() - _Off);	// empty out hole
; 1231 : 			if (this == &_Right)
; 1232 : 				_Traits::move(this->_Myptr() + _Off,
; 1233 : 					this->_Myptr() + (_Off < _Roff ? _Roff + _Count : _Roff),
; 1234 : 						_Count);	// substring
; 1235 : 			else
; 1236 : 				_Traits::copy(this->_Myptr() + _Off,
; 1237 : 					_Right._Myptr() + _Roff, _Count);	// fill hole
; 1238 : 			_Eos(_Num);
; 1239 : 			}
; 1240 : 		return (*this);
; 1241 : 		}
; 1242 : 
; 1243 : 	_Myt& insert(size_type _Off,
; 1244 : 		const _Elem *_Ptr, size_type _Count)
; 1245 : 		{	// insert [_Ptr, _Ptr + _Count) at _Off
; 1246 : 		_DEBUG_POINTER_IF(_Count != 0, _Ptr);
; 1247 : 		if (_Inside(_Ptr))
; 1248 : 			return (insert(_Off, *this,
; 1249 : 				_Ptr - this->_Myptr(), _Count));	// substring
; 1250 : 		if (this->_Mysize() < _Off)
; 1251 : 			_Xran();	// _Off off end
; 1252 : 		if (npos - this->_Mysize() <= _Count)
; 1253 : 			_Xlen();	// result too long
; 1254 : 		size_type _Num;
; 1255 : 		if (0 < _Count && _Grow(_Num = this->_Mysize() + _Count))
; 1256 : 			{	// make room and insert new stuff
; 1257 : 			_Traits::move(this->_Myptr() + _Off + _Count,
; 1258 : 				this->_Myptr() + _Off,
; 1259 : 				this->_Mysize() - _Off);	// empty out hole
; 1260 : 			_Traits::copy(this->_Myptr() + _Off, _Ptr, _Count);	// fill hole
; 1261 : 			_Eos(_Num);
; 1262 : 			}
; 1263 : 		return (*this);
; 1264 : 		}
; 1265 : 
; 1266 : 	_Myt& insert(size_type _Off, const _Elem *_Ptr)
; 1267 : 		{	// insert [_Ptr, <null>) at _Off
; 1268 : 		_DEBUG_POINTER(_Ptr);
; 1269 : 		return (insert(_Off, _Ptr, _Traits::length(_Ptr)));
; 1270 : 		}
; 1271 : 
; 1272 : 	_Myt& insert(size_type _Off,
; 1273 : 		size_type _Count, _Elem _Ch)
; 1274 : 		{	// insert _Count * _Ch at _Off
; 1275 : 		if (this->_Mysize() < _Off)
; 1276 : 			_Xran();	// _Off off end
; 1277 : 		if (npos - this->_Mysize() <= _Count)
; 1278 : 			_Xlen();	// result too long
; 1279 : 		size_type _Num;
; 1280 : 		if (0 < _Count && _Grow(_Num = this->_Mysize() + _Count))
; 1281 : 			{	// make room and insert new stuff
; 1282 : 			_Traits::move(this->_Myptr() + _Off + _Count,
; 1283 : 				this->_Myptr() + _Off,
; 1284 : 				this->_Mysize() - _Off);	// empty out hole
; 1285 : 			_Chassign(_Off, _Count, _Ch);	// fill hole
; 1286 : 			_Eos(_Num);
; 1287 : 			}
; 1288 : 		return (*this);
; 1289 : 		}
; 1290 : 
; 1291 : 	iterator insert(const_iterator _Where)
; 1292 : 		{	// insert <null> at _Where
; 1293 : 		return (insert(_Where, _Elem()));
; 1294 : 		}
; 1295 : 
; 1296 : 	iterator insert(const_iterator _Where, _Elem _Ch)
; 1297 : 		{	// insert _Ch at _Where
; 1298 : 		size_type _Off = _Where - begin();
; 1299 : 		insert(_Off, 1, _Ch);
; 1300 : 		return (begin() + _Off);
; 1301 : 		}
; 1302 : 
; 1303 : 	iterator insert(const_iterator _Where, size_type _Count, _Elem _Ch)
; 1304 : 		{	// insert _Count * _Elem at _Where
; 1305 : 		size_type _Off = _Where - begin();
; 1306 : 		insert(_Off, _Count, _Ch);
; 1307 : 		return (begin() + _Off);
; 1308 : 		}
; 1309 : 
; 1310 : 	template<class _Iter>
; 1311 : 		typename enable_if<_Is_iterator<_Iter>::value,
; 1312 : 			iterator>::type
; 1313 : 		insert(const_iterator _Where, _Iter _First, _Iter _Last)
; 1314 : 		{	// insert [_First, _Last) at _Where, input iterators
; 1315 : 		size_type _Off = _Where - begin();
; 1316 : 		replace(_Where, _Where, _First, _Last);
; 1317 : 		return (begin() + _Off);
; 1318 : 		}
; 1319 : 
; 1320 : 	iterator insert(const_iterator _Where,
; 1321 : 		const_pointer _First, const_pointer _Last)
; 1322 : 		{	// insert [_First, _Last) at _Where, const pointers
; 1323 : 		size_type _Off = _Where - begin();
; 1324 : 		replace(_Where, _Where, _First, _Last);
; 1325 : 		return (begin() + _Off);
; 1326 : 		}
; 1327 : 
; 1328 : 	iterator insert(const_iterator _Where,
; 1329 : 		const_iterator _First, const_iterator _Last)
; 1330 : 		{	// insert [_First, _Last) at _Where, const_iterators
; 1331 : 		size_type _Off = _Where - begin();
; 1332 : 		replace(_Where, _Where, _First, _Last);
; 1333 : 		return (begin() + _Off);
; 1334 : 		}
; 1335 : 
; 1336 : 	_Myt& erase(size_type _Off = 0)
; 1337 : 		{	// erase elements [_Off, ...)
; 1338 : 		if (this->_Mysize() < _Off)
; 1339 : 			_Xran();	// _Off off end
; 1340 : 		_Eos(_Off);
; 1341 : 		return (*this);
; 1342 : 		}
; 1343 : 
; 1344 : 	_Myt& erase(size_type _Off, size_type _Count)
; 1345 : 		{	// erase elements [_Off, _Off + _Count)
; 1346 : 		if (this->_Mysize() < _Off)
; 1347 : 			_Xran();	// _Off off end
; 1348 : 		if (this->_Mysize() - _Off <= _Count)
; 1349 : 			_Eos(_Off);	// erase elements [_Off, ...)
; 1350 : 		else if (0 < _Count)
; 1351 : 			{	// move elements down
; 1352 : 			value_type *_Ptr = this->_Myptr() + _Off;
; 1353 : 			size_type _Newsize = this->_Mysize() - _Count;
; 1354 : 			_Traits::move(_Ptr, _Ptr + _Count, _Newsize - _Off);
; 1355 : 			_Eos(_Newsize);
; 1356 : 			}
; 1357 : 		return (*this);
; 1358 : 		}
; 1359 : 
; 1360 : 	iterator erase(const_iterator _Where)
; 1361 : 		{	// erase element at _Where
; 1362 : 		size_type _Count = _Where - begin();
; 1363 : 		erase(_Count, 1);
; 1364 : 		return (begin() + _Count);
; 1365 : 		}
; 1366 : 
; 1367 : 	iterator erase(const_iterator _First, const_iterator _Last)
; 1368 : 		{	// erase substring [_First, _Last)
; 1369 : 		_DEBUG_RANGE(_First, _Last);
; 1370 : 		size_type _Count = _First - begin();
; 1371 : 		erase(_Count, _Last - _First);
; 1372 : 		return (begin() + _Count);
; 1373 : 		}
; 1374 : 
; 1375 : 	void clear() _NOEXCEPT
; 1376 : 		{	// erase all
; 1377 : 		_Eos(0);
; 1378 : 		}
; 1379 : 
; 1380 : 	_Myt& replace(size_type _Off, size_type _N0, const _Myt& _Right)
; 1381 : 		{	// replace [_Off, _Off + _N0) with _Right
; 1382 : 		return (replace(_Off, _N0, _Right, 0, npos));
; 1383 : 		}
; 1384 : 
; 1385 : 	_Myt& replace(size_type _Off,
; 1386 : 		size_type _N0, const _Myt& _Right, size_type _Roff,
; 1387 : 			size_type _Count = npos)
; 1388 : 		{	// replace [_Off, _Off + _N0) with _Right [_Roff, _Roff + _Count)
; 1389 : 		if (this->_Mysize() < _Off || _Right.size() < _Roff)
; 1390 : 			_Xran();	// _Off or _Roff off end
; 1391 : 		if (this->_Mysize() - _Off < _N0)
; 1392 : 			_N0 = this->_Mysize() - _Off;	// trim _N0 to size
; 1393 : 		size_type _Num = _Right.size() - _Roff;
; 1394 : 		if (_Num < _Count)
; 1395 : 			_Count = _Num;	// trim _Count to size
; 1396 : 		if (npos - _Count <= this->_Mysize() - _N0)
; 1397 : 			_Xlen();	// result too long
; 1398 : 
; 1399 : 		size_type _Nm = this->_Mysize() - _N0 - _Off;	// length of kept tail
; 1400 : 		size_type _Newsize = this->_Mysize() + _Count - _N0;
; 1401 : 		if (this->_Mysize() < _Newsize)
; 1402 : 			_Grow(_Newsize);
; 1403 : 
; 1404 : 		if (this != &_Right)
; 1405 : 			{	// no overlap, just move down and copy in new stuff
; 1406 : 			_Traits::move(this->_Myptr() + _Off + _Count,
; 1407 : 				this->_Myptr() + _Off + _N0, _Nm);	// empty hole
; 1408 : 			_Traits::copy(this->_Myptr() + _Off,
; 1409 : 				_Right._Myptr() + _Roff, _Count);	// fill hole
; 1410 : 			}
; 1411 : 		else if (_Count <= _N0)
; 1412 : 			{	// hole doesn't get larger, just copy in substring
; 1413 : 			_Traits::move(this->_Myptr() + _Off,
; 1414 : 				this->_Myptr() + _Roff, _Count);	// fill hole
; 1415 : 			_Traits::move(this->_Myptr() + _Off + _Count,
; 1416 : 				this->_Myptr() + _Off + _N0, _Nm);	// move tail down
; 1417 : 			}
; 1418 : 		else if (_Roff <= _Off)
; 1419 : 			{	// hole gets larger, substring begins before hole
; 1420 : 			_Traits::move(this->_Myptr() + _Off + _Count,
; 1421 : 				this->_Myptr() + _Off + _N0, _Nm);	// move tail down
; 1422 : 			_Traits::move(this->_Myptr() + _Off,
; 1423 : 				this->_Myptr() + _Roff, _Count);	// fill hole
; 1424 : 			}
; 1425 : 		else if (_Off + _N0 <= _Roff)
; 1426 : 			{	// hole gets larger, substring begins after hole
; 1427 : 			_Traits::move(this->_Myptr() + _Off + _Count,
; 1428 : 				this->_Myptr() + _Off + _N0, _Nm);	// move tail down
; 1429 : 			_Traits::move(this->_Myptr() + _Off,
; 1430 : 				this->_Myptr() + (_Roff + _Count - _N0),
; 1431 : 				_Count);	// fill hole
; 1432 : 			}
; 1433 : 		else
; 1434 : 			{	// hole gets larger, substring begins in hole
; 1435 : 			_Traits::move(this->_Myptr() + _Off,
; 1436 : 				this->_Myptr() + _Roff, _N0);	// fill old hole
; 1437 : 			_Traits::move(this->_Myptr() + _Off + _Count,
; 1438 : 				this->_Myptr() + _Off + _N0, _Nm);	// move tail down
; 1439 : 			_Traits::move(this->_Myptr() + _Off + _N0,
; 1440 : 				this->_Myptr() + _Roff + _Count,
; 1441 : 				_Count - _N0);	// fill rest of new hole
; 1442 : 			}
; 1443 : 
; 1444 : 		_Eos(_Newsize);
; 1445 : 		return (*this);
; 1446 : 		}
; 1447 : 
; 1448 : 	_Myt& replace(size_type _Off,
; 1449 : 		size_type _N0, const _Elem *_Ptr, size_type _Count)
; 1450 : 		{	// replace [_Off, _Off + _N0) with [_Ptr, _Ptr + _Count)
; 1451 : 		_DEBUG_POINTER_IF(_Count != 0, _Ptr);
; 1452 : 		if (_Inside(_Ptr))
; 1453 : 			return (replace(_Off, _N0, *this,
; 1454 : 				_Ptr - this->_Myptr(),
; 1455 : 				_Count));	// substring, replace carefully
; 1456 : 		if (this->_Mysize() < _Off)
; 1457 : 			_Xran();	// _Off off end
; 1458 : 		if (this->_Mysize() - _Off < _N0)
; 1459 : 			_N0 = this->_Mysize() - _Off;	// trim _N0 to size
; 1460 : 		if (npos - _Count <= this->_Mysize() - _N0)
; 1461 : 			_Xlen();	// result too long
; 1462 : 		size_type _Nm = this->_Mysize() - _N0 - _Off;
; 1463 : 
; 1464 : 		if (_Count < _N0)
; 1465 : 			_Traits::move(this->_Myptr() + _Off + _Count,
; 1466 : 				this->_Myptr() + _Off + _N0,
; 1467 : 				_Nm);	// smaller hole, move tail up
; 1468 : 		size_type _Num;
; 1469 : 		if ((0 < _Count || 0 < _N0)
; 1470 : 			&& _Grow(_Num = this->_Mysize() + _Count - _N0))
; 1471 : 			{	// make room and rearrange
; 1472 : 			if (_N0 < _Count)
; 1473 : 				_Traits::move(this->_Myptr() + _Off + _Count,
; 1474 : 					this->_Myptr() + _Off + _N0, _Nm);	// move tail down
; 1475 : 			_Traits::copy(this->_Myptr() + _Off, _Ptr, _Count);	// fill hole
; 1476 : 			_Eos(_Num);
; 1477 : 			}
; 1478 : 		return (*this);
; 1479 : 		}
; 1480 : 
; 1481 : 	_Myt& replace(size_type _Off, size_type _N0, const _Elem *_Ptr)
; 1482 : 		{	// replace [_Off, _Off + _N0) with [_Ptr, <null>)
; 1483 : 		_DEBUG_POINTER(_Ptr);
; 1484 : 		return (replace(_Off, _N0, _Ptr, _Traits::length(_Ptr)));
; 1485 : 		}
; 1486 : 
; 1487 : 	_Myt& replace(size_type _Off,
; 1488 : 		size_type _N0, size_type _Count, _Elem _Ch)
; 1489 : 		{	// replace [_Off, _Off + _N0) with _Count * _Ch
; 1490 : 		if (this->_Mysize() < _Off)
; 1491 : 			_Xran();	// _Off off end
; 1492 : 		if (this->_Mysize() - _Off < _N0)
; 1493 : 			_N0 = this->_Mysize() - _Off;	// trim _N0 to size
; 1494 : 		if (npos - _Count <= this->_Mysize() - _N0)
; 1495 : 			_Xlen();	// result too long
; 1496 : 		size_type _Nm = this->_Mysize() - _N0 - _Off;
; 1497 : 
; 1498 : 		if (_Count < _N0)
; 1499 : 			_Traits::move(this->_Myptr() + _Off + _Count,
; 1500 : 				this->_Myptr() + _Off + _N0,
; 1501 : 				_Nm);	// smaller hole, move tail up
; 1502 : 		size_type _Num;
; 1503 : 		if ((0 < _Count || 0 < _N0)
; 1504 : 			&& _Grow(_Num = this->_Mysize() + _Count - _N0))
; 1505 : 			{	// make room and rearrange
; 1506 : 			if (_N0 < _Count)
; 1507 : 				_Traits::move(this->_Myptr() + _Off + _Count,
; 1508 : 					this->_Myptr() + _Off + _N0, _Nm);	// move tail down
; 1509 : 			_Chassign(_Off, _Count, _Ch);	// fill hole
; 1510 : 			_Eos(_Num);
; 1511 : 			}
; 1512 : 		return (*this);
; 1513 : 		}
; 1514 : 
; 1515 : 	_Myt& replace(const_iterator _First, const_iterator _Last,
; 1516 : 		const _Myt& _Right)
; 1517 : 		{	// replace [_First, _Last) with _Right
; 1518 : 		return (replace(_First - begin(), _Last - _First, _Right));
; 1519 : 		}
; 1520 : 
; 1521 : 	_Myt& replace(const_iterator _First, const_iterator _Last,
; 1522 : 		const _Elem *_Ptr, size_type _Count)
; 1523 : 		{	// replace [_First, _Last) with [_Ptr, _Ptr + _Count)
; 1524 : 		return (replace(_First - begin(), _Last - _First, _Ptr, _Count));
; 1525 : 		}
; 1526 : 
; 1527 : 	_Myt& replace(const_iterator _First, const_iterator _Last,
; 1528 : 		const _Elem *_Ptr)
; 1529 : 		{	// replace [_First, _Last) with [_Ptr, <null>)
; 1530 : 		return (replace(_First - begin(), _Last - _First, _Ptr));
; 1531 : 		}
; 1532 : 
; 1533 : 	_Myt& replace(const_iterator _First, const_iterator _Last,
; 1534 : 		size_type _Count, _Elem _Ch)
; 1535 : 		{	// replace [_First, _Last) with _Count * _Ch
; 1536 : 		return (replace(_First - begin(), _Last - _First, _Count, _Ch));
; 1537 : 		}
; 1538 : 
; 1539 : 	template<class _Iter>
; 1540 : 		typename enable_if<_Is_iterator<_Iter>::value,
; 1541 : 			_Myt&>::type
; 1542 : 		replace(const_iterator _First, const_iterator _Last,
; 1543 : 			_Iter _First2, _Iter _Last2)
; 1544 : 		{	// replace [_First, _Last) with [_First2, _Last2), input iterators
; 1545 : 		_Myt _Right(_First2, _Last2);
; 1546 : 		replace(_First, _Last, _Right);
; 1547 : 		return (*this);
; 1548 : 		}
; 1549 : 
; 1550 : 	_Myt& replace(const_iterator _First, const_iterator _Last,
; 1551 : 		const_pointer _First2, const_pointer _Last2)
; 1552 : 		{	// replace [_First, _Last) with [_First2, _Last2), const pointers
; 1553 : 		if (_First2 == _Last2)
; 1554 : 			erase(_First - begin(), _Last - _First);
; 1555 : 		else
; 1556 : 			replace(_First - begin(), _Last - _First,
; 1557 : 				&*_First2, _Last2 - _First2);
; 1558 : 		return (*this);
; 1559 : 		}
; 1560 : 
; 1561 : 	_Myt& replace(const_iterator _First, const_iterator _Last,
; 1562 : 		pointer _First2, pointer _Last2)
; 1563 : 		{	// replace [_First, _Last) with [_First2, _Last2), const pointers
; 1564 : 		if (_First2 == _Last2)
; 1565 : 			erase(_First - begin(), _Last - _First);
; 1566 : 		else
; 1567 : 			replace(_First - begin(), _Last - _First,
; 1568 : 				&*_First2, _Last2 - _First2);
; 1569 : 		return (*this);
; 1570 : 		}
; 1571 : 
; 1572 : 	_Myt& replace(const_iterator _First, const_iterator _Last,
; 1573 : 		const_iterator _First2, const_iterator _Last2)
; 1574 : 		{	// replace [_First, _Last) with [_First2, _Last2), const_iterators
; 1575 : 		if (_First2 == _Last2)
; 1576 : 			erase(_First - begin(), _Last - _First);
; 1577 : 		else
; 1578 : 			replace(_First - begin(), _Last - _First,
; 1579 : 				&*_First2, _Last2 - _First2);
; 1580 : 		return (*this);
; 1581 : 		}
; 1582 : 
; 1583 : 	_Myt& replace(const_iterator _First, const_iterator _Last,
; 1584 : 		iterator _First2, iterator _Last2)
; 1585 : 		{	// replace [_First, _Last) with [_First2, _Last2), const_iterators
; 1586 : 		if (_First2 == _Last2)
; 1587 : 			erase(_First - begin(), _Last - _First);
; 1588 : 		else
; 1589 : 			replace(_First - begin(), _Last - _First,
; 1590 : 				&*_First2, _Last2 - _First2);
; 1591 : 		return (*this);
; 1592 : 		}
; 1593 : 
; 1594 : 	iterator begin() _NOEXCEPT
; 1595 : 		{	// return iterator for beginning of mutable sequence
; 1596 : 		return (iterator(this->_Myptr(), &this->_Get_data()));
; 1597 : 		}
; 1598 : 
; 1599 : 	const_iterator begin() const _NOEXCEPT
; 1600 : 		{	// return iterator for beginning of nonmutable sequence
; 1601 : 		return (const_iterator(this->_Myptr(), &this->_Get_data()));
; 1602 : 		}
; 1603 : 
; 1604 : 	iterator end() _NOEXCEPT
; 1605 : 		{	// return iterator for end of mutable sequence
; 1606 : 		return (iterator(this->_Myptr() + this->_Mysize(), &this->_Get_data()));
; 1607 : 		}
; 1608 : 
; 1609 : 	const_iterator end() const _NOEXCEPT
; 1610 : 		{	// return iterator for end of nonmutable sequence
; 1611 : 		return (const_iterator(this->_Myptr() + this->_Mysize(), &this->_Get_data()));
; 1612 : 		}
; 1613 : 
; 1614 : 	reverse_iterator rbegin() _NOEXCEPT
; 1615 : 		{	// return iterator for beginning of reversed mutable sequence
; 1616 : 		return (reverse_iterator(end()));
; 1617 : 		}
; 1618 : 
; 1619 : 	const_reverse_iterator rbegin() const _NOEXCEPT
; 1620 : 		{	// return iterator for beginning of reversed nonmutable sequence
; 1621 : 		return (const_reverse_iterator(end()));
; 1622 : 		}
; 1623 : 
; 1624 : 	reverse_iterator rend() _NOEXCEPT
; 1625 : 		{	// return iterator for end of reversed mutable sequence
; 1626 : 		return (reverse_iterator(begin()));
; 1627 : 		}
; 1628 : 
; 1629 : 	const_reverse_iterator rend() const _NOEXCEPT
; 1630 : 		{	// return iterator for end of reversed nonmutable sequence
; 1631 : 		return (const_reverse_iterator(begin()));
; 1632 : 		}
; 1633 : 
; 1634 : 	const_iterator cbegin() const _NOEXCEPT
; 1635 : 		{	// return iterator for beginning of nonmutable sequence
; 1636 : 		return (begin());
; 1637 : 		}
; 1638 : 
; 1639 : 	const_iterator cend() const _NOEXCEPT
; 1640 : 		{	// return iterator for end of nonmutable sequence
; 1641 : 		return (end());
; 1642 : 		}
; 1643 : 
; 1644 : 	const_reverse_iterator crbegin() const _NOEXCEPT
; 1645 : 		{	// return iterator for beginning of reversed nonmutable sequence
; 1646 : 		return (rbegin());
; 1647 : 		}
; 1648 : 
; 1649 : 	const_reverse_iterator crend() const _NOEXCEPT
; 1650 : 		{	// return iterator for end of reversed nonmutable sequence
; 1651 : 		return (rend());
; 1652 : 		}
; 1653 : 
; 1654 : 	void shrink_to_fit()
; 1655 : 		{	// reduce capacity
; 1656 : 		if ((size() | this->_ALLOC_MASK) < capacity())
; 1657 : 			{	// worth shrinking, do it
; 1658 : 			_Myt _Tmp(*this);
; 1659 : 			swap(_Tmp);
; 1660 : 			}
; 1661 : 		}
; 1662 : 
; 1663 : 	reference at(size_type _Off)
; 1664 : 		{	// subscript mutable sequence with checking
; 1665 : 		if (this->_Mysize() <= _Off)
; 1666 : 			_Xran();	// _Off off end
; 1667 : 		return (this->_Myptr()[_Off]);
; 1668 : 		}
; 1669 : 
; 1670 : 	const_reference at(size_type _Off) const
; 1671 : 		{	// subscript nonmutable sequence with checking
; 1672 : 		if (this->_Mysize() <= _Off)
; 1673 : 			_Xran();	// _Off off end
; 1674 : 		return (this->_Myptr()[_Off]);
; 1675 : 		}
; 1676 : 
; 1677 : 	reference operator[](size_type _Off)
; 1678 : 		{	// subscript mutable sequence
; 1679 :  #if _ITERATOR_DEBUG_LEVEL == 2
; 1680 : 		if (this->_Mysize() < _Off)	// sic
; 1681 : 			_DEBUG_ERROR("string subscript out of range");
; 1682 : 
; 1683 :  #elif _ITERATOR_DEBUG_LEVEL == 1
; 1684 : 		_SCL_SECURE_VALIDATE_RANGE(_Off <= this->_Mysize());	// sic
; 1685 :  #endif /* _ITERATOR_DEBUG_LEVEL == 2 */
; 1686 : 
; 1687 : 		return (this->_Myptr()[_Off]);
; 1688 : 		}
; 1689 : 
; 1690 : 	const_reference operator[](size_type _Off) const
; 1691 : 		{	// subscript nonmutable sequence
; 1692 :  #if _ITERATOR_DEBUG_LEVEL == 2
; 1693 : 		if (this->_Mysize() < _Off)	// sic
; 1694 : 			_DEBUG_ERROR("string subscript out of range");
; 1695 : 
; 1696 :  #elif _ITERATOR_DEBUG_LEVEL == 1
; 1697 : 		_SCL_SECURE_VALIDATE_RANGE(_Off <= this->_Mysize());	// sic
; 1698 :  #endif /* _ITERATOR_DEBUG_LEVEL == 2 */
; 1699 : 
; 1700 : 		return (this->_Myptr()[_Off]);
; 1701 : 		}
; 1702 : 
; 1703 : 	void push_back(_Elem _Ch)
; 1704 : 		{	// insert element at end
; 1705 : 		insert(end(), _Ch);
; 1706 : 		}
; 1707 : 
; 1708 : 	void pop_back()
; 1709 : 		{	// erase element at end
; 1710 : 		erase(this->_Mysize() - 1);	// throws if _Mysize() == 0
; 1711 : 		}
; 1712 : 
; 1713 : 	reference front()
; 1714 : 		{	// return first element of mutable sequence
; 1715 : 		return (*begin());
; 1716 : 		}
; 1717 : 
; 1718 : 	const_reference front() const
; 1719 : 		{	// return first element of nonmutable sequence
; 1720 : 		return (*begin());
; 1721 : 		}
; 1722 : 
; 1723 : 	reference back()
; 1724 : 		{	// return last element of mutable sequence
; 1725 : 		return (*(end() - 1));
; 1726 : 		}
; 1727 : 
; 1728 : 	const_reference back() const
; 1729 : 		{	// return last element of nonmutable sequence
; 1730 : 		return (*(end() - 1));
; 1731 : 		}
; 1732 : 
; 1733 : 	const _Elem *c_str() const _NOEXCEPT
; 1734 : 		{	// return pointer to null-terminated nonmutable array
; 1735 : 		return (this->_Myptr());
; 1736 : 		}
; 1737 : 
; 1738 : 	const _Elem *data() const _NOEXCEPT
; 1739 : 		{	// return pointer to nonmutable array
; 1740 : 		return (c_str());
; 1741 : 		}
; 1742 : 
; 1743 : 	size_type length() const _NOEXCEPT
; 1744 : 		{	// return length of sequence
; 1745 : 		return (this->_Mysize());
; 1746 : 		}
; 1747 : 
; 1748 : 	size_type size() const _NOEXCEPT
; 1749 : 		{	// return length of sequence
; 1750 : 		return (this->_Mysize());
; 1751 : 		}
; 1752 : 
; 1753 : 	size_type max_size() const _NOEXCEPT
; 1754 : 		{	// return maximum possible length of sequence
; 1755 : 		size_type _Num = this->_Getal().max_size();
; 1756 : 		return (_Num <= 1 ? 1 : _Num - 1);
; 1757 : 		}
; 1758 : 
; 1759 : 	void resize(size_type _Newsize)
; 1760 : 		{	// determine new length, padding with null elements as needed
; 1761 : 		resize(_Newsize, _Elem());
; 1762 : 		}
; 1763 : 
; 1764 : 	void resize(size_type _Newsize, _Elem _Ch)
; 1765 : 		{	// determine new length, padding with _Ch elements as needed
; 1766 : 		if (_Newsize <= this->_Mysize())
; 1767 : 			_Eos(_Newsize);
; 1768 : 		else
; 1769 : 			append(_Newsize - this->_Mysize(), _Ch);
; 1770 : 		}
; 1771 : 
; 1772 : 	size_type capacity() const _NOEXCEPT
; 1773 : 		{	// return current length of allocated storage
; 1774 : 		return (this->_Myres());
; 1775 : 		}
; 1776 : 
; 1777 : 	void reserve(size_type _Newcap = 0)
; 1778 : 		{	// determine new minimum length of allocated storage
; 1779 : 		if (this->_Mysize() <= _Newcap && this->_Myres() != _Newcap)
; 1780 : 			{	// change reservation
; 1781 : 			size_type _Size = this->_Mysize();
; 1782 : 			if (_Grow(_Newcap, true))
; 1783 : 				_Eos(_Size);
; 1784 : 			}
; 1785 : 		}
; 1786 : 
; 1787 : 	bool empty() const _NOEXCEPT
; 1788 : 		{	// test if sequence is empty
; 1789 : 		return (this->_Mysize() == 0);
; 1790 : 		}
; 1791 : 
; 1792 : 	_SCL_INSECURE_DEPRECATE
; 1793 : 
; 1794 : 	size_type copy(_Elem *_Ptr,
; 1795 : 		size_type _Count, size_type _Off = 0) const
; 1796 : 		{	// copy [_Off, _Off + _Count) to [_Ptr, _Ptr + _Count)
; 1797 : 		_DEBUG_POINTER_IF(_Count != 0, _Ptr);
; 1798 : 		if (this->_Mysize() < _Off)
; 1799 : 			_Xran();	// _Off off end
; 1800 : 		if (this->_Mysize() - _Off < _Count)
; 1801 : 			_Count = this->_Mysize() - _Off;
; 1802 : 		_Traits::copy(_Ptr, this->_Myptr() + _Off, _Count);
; 1803 : 		return (_Count);
; 1804 : 		}
; 1805 : 
; 1806 : 	size_type _Copy_s(_Elem *_Dest, size_type _Dest_size,
; 1807 : 		size_type _Count, size_type _Off = 0) const
; 1808 : 		{	// copy [_Off, _Off + _Count) to [_Dest, _Dest + _Count)
; 1809 : 		_DEBUG_POINTER_IF(_Count != 0, _Dest);
; 1810 : 		if (this->_Mysize() < _Off)
; 1811 : 			_Xran();	// _Off off end
; 1812 : 		if (this->_Mysize() - _Off < _Count)
; 1813 : 			_Count = this->_Mysize() - _Off;
; 1814 : 		_Traits::_Copy_s(_Dest, _Dest_size, this->_Myptr() + _Off, _Count);
; 1815 : 		return (_Count);
; 1816 : 		}
; 1817 : 
; 1818 : 	void _Swap_bx(_Myt& _Right)
; 1819 : 		{	// exchange _Bx() with _Right._Bx()
; 1820 : 		if (this->_BUF_SIZE <= this->_Myres())
; 1821 : 			if (this->_BUF_SIZE <= _Right._Myres())
; 1822 : 				_Swap_adl(this->_Bx()._Ptr, _Right._Bx()._Ptr);
; 1823 : 			else
; 1824 : 				{	// swap large with small
; 1825 : 				pointer _Ptr = this->_Bx()._Ptr;
; 1826 : 				this->_Getal().destroy(&this->_Bx()._Ptr);
; 1827 : 				_Traits::copy(this->_Bx()._Buf,
; 1828 : 					_Right._Bx()._Buf, _Right._Mysize() + 1);
; 1829 : 				this->_Getal().construct(&_Right._Bx()._Ptr, _Ptr);
; 1830 : 				}
; 1831 : 		else
; 1832 : 			if (_Right._Myres() < this->_BUF_SIZE)
; 1833 : 				_STD swap(this->_Bx()._Buf, _Right._Bx()._Buf);
; 1834 : 			else
; 1835 : 				{	// swap small with large
; 1836 : 				pointer _Ptr = _Right._Bx()._Ptr;
; 1837 : 				this->_Getal().destroy(&_Right._Bx()._Ptr);
; 1838 : 				_Traits::copy(_Right._Bx()._Buf,
; 1839 : 					this->_Bx()._Buf, this->_Mysize() + 1);
; 1840 : 				this->_Getal().construct(&this->_Bx()._Ptr, _Ptr);
; 1841 : 				}
; 1842 : 		}
; 1843 : 
; 1844 : 	void swap(_Myt& _Right)
; 1845 : 		_NOEXCEPT_OP(_Alty::propagate_on_container_swap::value
; 1846 : 			|| _Alty::is_always_equal::value)
; 1847 : 		{	// exchange contents with _Right
; 1848 : 		if (this == &_Right)
; 1849 : 			;	// same object, do nothing
; 1850 : 		else if (this->_Getal() == _Right._Getal())
; 1851 : 			{	// same allocator, swap control information
; 1852 : 			this->_Swap_all(_Right);
; 1853 : 			_Swap_bx(_Right);
; 1854 : 			_STD swap(this->_Mysize(), _Right._Mysize());
; 1855 : 			_STD swap(this->_Myres(), _Right._Myres());
; 1856 : 			}
; 1857 : 
; 1858 : 		else if (_Alty::propagate_on_container_swap::value)
; 1859 : 			{	// swap allocators and control information
; 1860 : 				// assumes pointer is bitwise copyable
; 1861 : 			this->_Swap_alloc(_Right);
; 1862 : 			_Swap_bx(_Right);
; 1863 : 			_STD swap(this->_Bx(), _Right._Bx());
; 1864 : 			_STD swap(this->_Mysize(), _Right._Mysize());
; 1865 : 			_STD swap(this->_Myres(), _Right._Myres());
; 1866 : 			}
; 1867 : 
; 1868 : 		else
; 1869 : 			{	// different allocator, do multiple assigns
; 1870 : 			_Myt _Tmp = *this;
; 1871 : 
; 1872 : 			*this = _Right;
; 1873 : 			_Right = _Tmp;
; 1874 : 			}
; 1875 : 		}
; 1876 : 
; 1877 : 	size_type find(const _Myt& _Right, size_type _Off = 0) const _NOEXCEPT
; 1878 : 		{	// look for _Right beginning at or after _Off
; 1879 : 		return (find(_Right._Myptr(), _Off, _Right.size()));
; 1880 : 		}
; 1881 : 
; 1882 : 	size_type find(const _Elem *_Ptr,
; 1883 : 		size_type _Off, size_type _Count) const
; 1884 : 		{	// look for [_Ptr, _Ptr + _Count) beginning at or after _Off
; 1885 : 		_DEBUG_POINTER_IF(_Count != 0, _Ptr);
; 1886 : 		if (_Count == 0 && _Off <= this->_Mysize())
; 1887 : 			return (_Off);	// null string always matches (if inside string)
; 1888 : 
; 1889 : 		size_type _Nm;
; 1890 : 		if (_Off < this->_Mysize() && _Count <= (_Nm = this->_Mysize() - _Off))
; 1891 : 			{	// room for match, look for it
; 1892 : 			const _Elem *_Uptr, *_Vptr;
; 1893 : 			for (_Nm -= _Count - 1, _Vptr = this->_Myptr() + _Off;
; 1894 : 				(_Uptr = _Traits::find(_Vptr, _Nm, *_Ptr)) != 0;
; 1895 : 				_Nm -= _Uptr - _Vptr + 1, _Vptr = _Uptr + 1)
; 1896 : 				if (_Traits::compare(_Uptr, _Ptr, _Count) == 0)
; 1897 : 					return (_Uptr - this->_Myptr());	// found a match
; 1898 : 			}
; 1899 : 
; 1900 : 		return (npos);	// no match
; 1901 : 		}
; 1902 : 
; 1903 : 	size_type find(const _Elem *_Ptr, size_type _Off = 0) const
; 1904 : 		{	// look for [_Ptr, <null>) beginning at or after _Off
; 1905 : 		_DEBUG_POINTER(_Ptr);
; 1906 : 		return (find(_Ptr, _Off, _Traits::length(_Ptr)));
; 1907 : 		}
; 1908 : 
; 1909 : 	size_type find(_Elem _Ch, size_type _Off = 0) const
; 1910 : 		{	// look for _Ch at or after _Off
; 1911 : 		return (find((const _Elem *)&_Ch, _Off, 1));
; 1912 : 		}
; 1913 : 
; 1914 : 	size_type rfind(const _Myt& _Right, size_type _Off = npos) const _NOEXCEPT
; 1915 : 		{	// look for _Right beginning before _Off
; 1916 : 		return (rfind(_Right._Myptr(), _Off, _Right.size()));
; 1917 : 		}
; 1918 : 
; 1919 : 	size_type rfind(const _Elem *_Ptr,
; 1920 : 		size_type _Off, size_type _Count) const
; 1921 : 		{	// look for [_Ptr, _Ptr + _Count) beginning before _Off
; 1922 : 		_DEBUG_POINTER_IF(_Count != 0, _Ptr);
; 1923 : 		if (_Count == 0)
; 1924 : 			return (_Off < this->_Mysize() ? _Off
; 1925 : 				: this->_Mysize());	// null always matches
; 1926 : 		if (_Count <= this->_Mysize())
; 1927 : 			{	// room for match, look for it
; 1928 : 			const _Elem *_Uptr = this->_Myptr() +
; 1929 : 				(_Off < this->_Mysize() - _Count ? _Off
; 1930 : 					: this->_Mysize() - _Count);
; 1931 : 			for (; ; --_Uptr)
; 1932 : 				if (_Traits::eq(*_Uptr, *_Ptr)
; 1933 : 					&& _Traits::compare(_Uptr, _Ptr, _Count) == 0)
; 1934 : 					return (_Uptr - this->_Myptr());	// found a match
; 1935 : 				else if (_Uptr == this->_Myptr())
; 1936 : 					break;	// at beginning, no more chance for match
; 1937 : 			}
; 1938 : 
; 1939 : 		return (npos);	// no match
; 1940 : 		}
; 1941 : 
; 1942 : 	size_type rfind(const _Elem *_Ptr, size_type _Off = npos) const
; 1943 : 		{	// look for [_Ptr, <null>) beginning before _Off
; 1944 : 		_DEBUG_POINTER(_Ptr);
; 1945 : 		return (rfind(_Ptr, _Off, _Traits::length(_Ptr)));
; 1946 : 		}
; 1947 : 
; 1948 : 	size_type rfind(_Elem _Ch, size_type _Off = npos) const
; 1949 : 		{	// look for _Ch before _Off
; 1950 : 		return (rfind((const _Elem *)&_Ch, _Off, 1));
; 1951 : 		}
; 1952 : 
; 1953 : 	size_type find_first_of(const _Myt& _Right,
; 1954 : 		size_type _Off = 0) const _NOEXCEPT
; 1955 : 		{	// look for one of _Right at or after _Off
; 1956 : 		return (find_first_of(_Right._Myptr(), _Off, _Right.size()));
; 1957 : 		}
; 1958 : 
; 1959 : 	size_type find_first_of(const _Elem *_Ptr,
; 1960 : 		size_type _Off, size_type _Count) const
; 1961 : 		{	// look for one of [_Ptr, _Ptr + _Count) at or after _Off
; 1962 : 		_DEBUG_POINTER_IF(_Count != 0, _Ptr);
; 1963 : 		if (0 < _Count && _Off < this->_Mysize())
; 1964 : 			{	// room for match, look for it
; 1965 : 			const _Elem *const _Vptr = this->_Myptr() + this->_Mysize();
; 1966 : 			for (const _Elem *_Uptr = this->_Myptr() + _Off;
; 1967 : 				_Uptr < _Vptr; ++_Uptr)
; 1968 : 				if (_Traits::find(_Ptr, _Count, *_Uptr) != 0)
; 1969 : 					return (_Uptr - this->_Myptr());	// found a match
; 1970 : 			}
; 1971 : 
; 1972 : 		return (npos);	// no match
; 1973 : 		}
; 1974 : 
; 1975 : 	size_type find_first_of(const _Elem *_Ptr,
; 1976 : 		size_type _Off = 0) const
; 1977 : 		{	// look for one of [_Ptr, <null>) at or after _Off
; 1978 : 		_DEBUG_POINTER(_Ptr);
; 1979 : 		return (find_first_of(_Ptr, _Off, _Traits::length(_Ptr)));
; 1980 : 		}
; 1981 : 
; 1982 : 	size_type find_first_of(_Elem _Ch,
; 1983 : 		size_type _Off = 0) const
; 1984 : 		{	// look for _Ch at or after _Off
; 1985 : 		return (find((const _Elem *)&_Ch, _Off, 1));
; 1986 : 		}
; 1987 : 
; 1988 : 	size_type find_last_of(const _Myt& _Right,
; 1989 : 		size_type _Off = npos) const _NOEXCEPT
; 1990 : 		{	// look for one of _Right before _Off
; 1991 : 		return (find_last_of(_Right._Myptr(), _Off, _Right.size()));
; 1992 : 		}
; 1993 : 
; 1994 : 	size_type find_last_of(const _Elem *_Ptr,
; 1995 : 		size_type _Off, size_type _Count) const
; 1996 : 		{	// look for one of [_Ptr, _Ptr + _Count) before _Off
; 1997 : 		_DEBUG_POINTER_IF(_Count != 0, _Ptr);
; 1998 : 		if (0 < _Count && 0 < this->_Mysize())
; 1999 : 			{	// worth searching, do it
; 2000 : 			const _Elem *_Uptr = this->_Myptr()
; 2001 : 				+ (_Off < this->_Mysize() ? _Off : this->_Mysize() - 1);
; 2002 : 			for (; ; --_Uptr)
; 2003 : 				if (_Traits::find(_Ptr, _Count, *_Uptr) != 0)
; 2004 : 					return (_Uptr - this->_Myptr());	// found a match
; 2005 : 				else if (_Uptr == this->_Myptr())
; 2006 : 					break;	// at beginning, no more chance for match
; 2007 : 			}
; 2008 : 
; 2009 : 		return (npos);	// no match
; 2010 : 		}
; 2011 : 
; 2012 : 	size_type find_last_of(const _Elem *_Ptr,
; 2013 : 		size_type _Off = npos) const
; 2014 : 		{	// look for one of [_Ptr, <null>) before _Off
; 2015 : 		_DEBUG_POINTER(_Ptr);
; 2016 : 		return (find_last_of(_Ptr, _Off, _Traits::length(_Ptr)));
; 2017 : 		}
; 2018 : 
; 2019 : 	size_type find_last_of(_Elem _Ch,
; 2020 : 		size_type _Off = npos) const
; 2021 : 		{	// look for _Ch before _Off
; 2022 : 		return (rfind((const _Elem *)&_Ch, _Off, 1));
; 2023 : 		}
; 2024 : 
; 2025 : 	size_type find_first_not_of(const _Myt& _Right,
; 2026 : 		size_type _Off = 0) const _NOEXCEPT
; 2027 : 		{	// look for none of _Right at or after _Off
; 2028 : 		return (find_first_not_of(_Right._Myptr(), _Off,
; 2029 : 			_Right.size()));
; 2030 : 		}
; 2031 : 
; 2032 : 	size_type find_first_not_of(const _Elem *_Ptr,
; 2033 : 		size_type _Off, size_type _Count) const
; 2034 : 		{	// look for none of [_Ptr, _Ptr + _Count) at or after _Off
; 2035 : 		_DEBUG_POINTER_IF(_Count != 0, _Ptr);
; 2036 : 		if (_Off < this->_Mysize())
; 2037 : 			{	// room for match, look for it
; 2038 : 			const _Elem *const _Vptr = this->_Myptr() + this->_Mysize();
; 2039 : 			for (const _Elem *_Uptr = this->_Myptr() + _Off;
; 2040 : 				_Uptr < _Vptr; ++_Uptr)
; 2041 : 				if (_Traits::find(_Ptr, _Count, *_Uptr) == 0)
; 2042 : 					return (_Uptr - this->_Myptr());
; 2043 : 			}
; 2044 : 		return (npos);
; 2045 : 		}
; 2046 : 
; 2047 : 	size_type find_first_not_of(const _Elem *_Ptr,
; 2048 : 		size_type _Off = 0) const
; 2049 : 		{	// look for one of [_Ptr, <null>) at or after _Off
; 2050 : 		_DEBUG_POINTER(_Ptr);
; 2051 : 		return (find_first_not_of(_Ptr, _Off, _Traits::length(_Ptr)));
; 2052 : 		}
; 2053 : 
; 2054 : 	size_type find_first_not_of(_Elem _Ch,
; 2055 : 		size_type _Off = 0) const
; 2056 : 		{	// look for non _Ch at or after _Off
; 2057 : 		return (find_first_not_of((const _Elem *)&_Ch, _Off, 1));
; 2058 : 		}
; 2059 : 
; 2060 : 	size_type find_last_not_of(const _Myt& _Right,
; 2061 : 		size_type _Off = npos) const _NOEXCEPT
; 2062 : 		{	// look for none of _Right before _Off
; 2063 : 		return (find_last_not_of(_Right._Myptr(), _Off, _Right.size()));
; 2064 : 		}
; 2065 : 
; 2066 : 	size_type find_last_not_of(const _Elem *_Ptr,
; 2067 : 		size_type _Off, size_type _Count) const
; 2068 : 		{	// look for none of [_Ptr, _Ptr + _Count) before _Off
; 2069 : 		_DEBUG_POINTER_IF(_Count != 0, _Ptr);
; 2070 : 		if (0 < this->_Mysize())
; 2071 : 			{	// worth searching, do it
; 2072 : 			const _Elem *_Uptr = this->_Myptr()
; 2073 : 				+ (_Off < this->_Mysize() ? _Off : this->_Mysize() - 1);
; 2074 : 			for (; ; --_Uptr)
; 2075 : 				if (_Traits::find(_Ptr, _Count, *_Uptr) == 0)
; 2076 : 					return (_Uptr - this->_Myptr());
; 2077 : 				else if (_Uptr == this->_Myptr())
; 2078 : 					break;
; 2079 : 			}
; 2080 : 		return (npos);
; 2081 : 		}
; 2082 : 
; 2083 : 	size_type find_last_not_of(const _Elem *_Ptr,
; 2084 : 		size_type _Off = npos) const
; 2085 : 		{	// look for none of [_Ptr, <null>) before _Off
; 2086 : 		_DEBUG_POINTER(_Ptr);
; 2087 : 		return (find_last_not_of(_Ptr, _Off, _Traits::length(_Ptr)));
; 2088 : 		}
; 2089 : 
; 2090 : 	size_type find_last_not_of(_Elem _Ch,
; 2091 : 		size_type _Off = npos) const
; 2092 : 		{	// look for non _Ch before _Off
; 2093 : 		return (find_last_not_of((const _Elem *)&_Ch, _Off, 1));
; 2094 : 		}
; 2095 : 
; 2096 : 	_Myt substr(size_type _Off = 0, size_type _Count = npos) const
; 2097 : 		{	// return [_Off, _Off + _Count) as new string
; 2098 : 		return (_Myt(*this, _Off, _Count, get_allocator()));
; 2099 : 		}
; 2100 : 
; 2101 : 	int compare(const _Myt& _Right) const _NOEXCEPT
; 2102 : 		{	// compare [0, _Mysize()) with _Right
; 2103 : 		return (compare(0, this->_Mysize(), _Right._Myptr(), _Right.size()));
; 2104 : 		}
; 2105 : 
; 2106 : 	int compare(size_type _Off, size_type _N0,
; 2107 : 		const _Myt& _Right) const
; 2108 : 		{	// compare [_Off, _Off + _N0) with _Right
; 2109 : 		return (compare(_Off, _N0, _Right, 0, npos));
; 2110 : 		}
; 2111 : 
; 2112 : 	int compare(size_type _Off,
; 2113 : 		size_type _N0, const _Myt& _Right,
; 2114 : 		size_type _Roff, size_type _Count = npos) const
; 2115 : 		{	// compare [_Off, _Off + _N0) with _Right [_Roff, _Roff + _Count)
; 2116 : 		if (_Right.size() < _Roff)
; 2117 : 			_Xran();	// _Off off end
; 2118 : 		if (_Right._Mysize() - _Roff < _Count)
; 2119 : 			_Count = _Right._Mysize() - _Roff;	// trim _Count to size
; 2120 : 		return (compare(_Off, _N0, _Right._Myptr() + _Roff, _Count));
; 2121 : 		}
; 2122 : 
; 2123 : 	int compare(const _Elem *_Ptr) const
; 2124 : 		{	// compare [0, _Mysize()) with [_Ptr, <null>)
; 2125 : 		_DEBUG_POINTER(_Ptr);
; 2126 : 		return (compare(0, this->_Mysize(), _Ptr, _Traits::length(_Ptr)));
; 2127 : 		}
; 2128 : 
; 2129 : 	int compare(size_type _Off, size_type _N0, const _Elem *_Ptr) const
; 2130 : 		{	// compare [_Off, _Off + _N0) with [_Ptr, <null>)
; 2131 : 		_DEBUG_POINTER(_Ptr);
; 2132 : 		return (compare(_Off, _N0, _Ptr, _Traits::length(_Ptr)));
; 2133 : 		}
; 2134 : 
; 2135 : 	int compare(size_type _Off,
; 2136 : 		size_type _N0, const _Elem *_Ptr, size_type _Count) const
; 2137 : 		{	// compare [_Off, _Off + _N0) with [_Ptr, _Ptr + _Count)
; 2138 : 		_DEBUG_POINTER_IF(_Count != 0, _Ptr);
; 2139 : 		if (this->_Mysize() < _Off)
; 2140 : 			_Xran();	// _Off off end
; 2141 : 		if (this->_Mysize() - _Off < _N0)
; 2142 : 			_N0 = this->_Mysize() - _Off;	// trim _N0 to size
; 2143 : 
; 2144 : 		size_type _Ans = _Traits::compare(this->_Myptr() + _Off, _Ptr,
; 2145 : 			_N0 < _Count ? _N0 : _Count);
; 2146 : 		return (_Ans != 0 ? (int)_Ans : _N0 < _Count ? -1
; 2147 : 			: _N0 == _Count ? 0 : +1);
; 2148 : 		}
; 2149 : 
; 2150 : 	allocator_type get_allocator() const _NOEXCEPT
; 2151 : 		{	// return allocator object for values
; 2152 : 		return (this->_Getal());
; 2153 : 		}
; 2154 : 
; 2155 : 	void _Chassign(size_type _Off, size_type _Count, _Elem _Ch)
; 2156 : 		{	// assign _Count copies of _Ch beginning at _Off
; 2157 : 		if (_Count == 1)
; 2158 : 			_Traits::assign(*(this->_Myptr() + _Off), _Ch);
; 2159 : 		else
; 2160 : 			_Traits::assign(this->_Myptr() + _Off, _Count, _Ch);
; 2161 : 		}
; 2162 : 
; 2163 : 	void _Copy(size_type _Newsize, size_type _Oldlen)
; 2164 : 		{	// copy _Oldlen elements to newly allocated buffer
; 2165 : 		size_type _Newres = _Newsize | this->_ALLOC_MASK;
; 2166 : 		if (max_size() < _Newres)
; 2167 : 			_Newres = _Newsize;	// undo roundup if too big
; 2168 : 		else if (this->_Myres() / 2 <= _Newres / 3)
; 2169 : 			;
; 2170 : 		else if (this->_Myres() <= max_size() - this->_Myres() / 2)
; 2171 : 			_Newres = this->_Myres()
; 2172 : 				+ this->_Myres() / 2;	// grow exponentially if possible
; 2173 : 		else
; 2174 : 			_Newres = max_size();	// settle for max_size()
; 2175 : 
; 2176 : 		_Elem *_Ptr;
; 2177 : 		_TRY_BEGIN
; 2178 : 			_Ptr = this->_Getal().allocate(_Newres + 1);
; 2179 : 		_CATCH_ALL
; 2180 : 			_Newres = _Newsize;	// allocation failed, undo roundup and retry
; 2181 : 			_TRY_BEGIN
; 2182 : 				_Ptr = this->_Getal().allocate(_Newres + 1);
; 2183 : 			_CATCH_ALL
; 2184 : 			_Tidy(true);	// failed again, discard storage and reraise
; 2185 : 			_RERAISE;
; 2186 : 			_CATCH_END
; 2187 : 		_CATCH_END
; 2188 : 
; 2189 : 		if (0 < _Oldlen)
; 2190 : 			_Traits::copy(_Ptr, this->_Myptr(),
; 2191 : 				_Oldlen);	// copy existing elements
; 2192 : 		_Tidy(true);
; 2193 : 		this->_Getal().construct(&this->_Bx()._Ptr, _Ptr);
; 2194 : 		this->_Myres() = _Newres;
; 2195 : 		_Eos(_Oldlen);
; 2196 : 		}
; 2197 : 
; 2198 : 	void _Eos(size_type _Newsize)
; 2199 : 		{	// set new length and null terminator
; 2200 : 		_Traits::assign(this->_Myptr()[this->_Mysize() = _Newsize], _Elem());

  000c7	c7 46 e4 00 00
	00 00		 mov	 DWORD PTR [esi-28], 0

; 505  : 		return (this->_BUF_SIZE <= this->_Myres

  000ce	83 7e e8 10	 cmp	 DWORD PTR [esi-24], 16	; 00000010H
  000d2	72 05		 jb	 SHORT $LN280@Destroy_ra
; File c:\program files (x86)\microsoft visual studio 14.0\vc\include\xstddef

; 689  : 	return (reinterpret_cast<_Ty *>(

  000d4	8b 46 d4	 mov	 eax, DWORD PTR [esi-44]
; File c:\program files (x86)\microsoft visual studio 14.0\vc\include\xstring

; 505  : 		return (this->_BUF_SIZE <= this->_Myres

  000d7	eb 03		 jmp	 SHORT $LN281@Destroy_ra
$LN280@Destroy_ra:
  000d9	8d 46 d4	 lea	 eax, DWORD PTR [esi-44]
$LN281@Destroy_ra:
; File c:\program files (x86)\microsoft visual studio 14.0\vc\include\xmemory0

; 171  : 	for (; _First != _Last; ++_First)

  000dc	83 c6 30	 add	 esi, 48			; 00000030H
; File c:\program files (x86)\microsoft visual studio 14.0\vc\include\iosfwd

; 565  : 		_Left = _Right;

  000df	c6 00 00	 mov	 BYTE PTR [eax], 0
; File c:\program files (x86)\microsoft visual studio 14.0\vc\include\xmemory0

; 171  : 	for (; _First != _Last; ++_First)

  000e2	8d 46 d4	 lea	 eax, DWORD PTR [esi-44]
  000e5	3b c7		 cmp	 eax, edi
  000e7	0f 85 29 ff ff
	ff		 jne	 $LL4@Destroy_ra
$LN311@Destroy_ra:
  000ed	5f		 pop	 edi
  000ee	5e		 pop	 esi

; 172  : 		_Al.destroy(_STD addressof(*_First));
; 173  : 	}

  000ef	5d		 pop	 ebp
  000f0	c3		 ret	 0
$LN313@Destroy_ra:

; 128  : 			<= _Ptr_user - _Ptr_container);
; 129  :  #endif /* _DEBUG */
; 130  : 
; 131  : 		_SCL_SECURE_ALWAYS_VALIDATE(_Ptr_user - _Ptr_container

  000f1	e8 00 00 00 00	 call	 __invalid_parameter_noinfo_noreturn
$LN314@Destroy_ra:
$LN312@Destroy_ra:
  000f6	cc		 int	 3
??$_Destroy_range@U?$_Wrap_alloc@V?$allocator@UZTLuaScriptMember@@@std@@@std@@@std@@YAXPAUZTLuaScriptMember@@0AAU?$_Wrap_alloc@V?$allocator@UZTLuaScriptMember@@@std@@@0@U_Nonscalar_ptr_iterator_tag@0@@Z ENDP ; std::_Destroy_range<std::_Wrap_alloc<std::allocator<ZTLuaScriptMember> > >
_TEXT	ENDS
; Function compile flags: /Ogtp
; File c:\program files (x86)\microsoft visual studio 14.0\vc\include\xutility
;	COMDAT ??$_Ptr_cat@UZTLuaScriptMember@@U1@@std@@YA?AU_Nonscalar_ptr_iterator_tag@0@PAUZTLuaScriptMember@@0@Z
_TEXT	SEGMENT
__Cat$ = -1						; size = 1
___formal$ = 8						; size = 4
___formal$ = 12						; size = 4
??$_Ptr_cat@UZTLuaScriptMember@@U1@@std@@YA?AU_Nonscalar_ptr_iterator_tag@0@PAUZTLuaScriptMember@@0@Z PROC ; std::_Ptr_cat<ZTLuaScriptMember,ZTLuaScriptMember>, COMDAT

; 640  : 	{	// return pointer category from pointers

  00000	55		 push	 ebp
  00001	8b ec		 mov	 ebp, esp
  00003	51		 push	 ecx

; 641  : 	typename _Ptr_cat_helper<_Elem1, _Elem2>::type _Cat;
; 642  : 	return (_Cat);

  00004	8a 45 ff	 mov	 al, BYTE PTR __Cat$[ebp]

; 643  : 	}

  00007	8b e5		 mov	 esp, ebp
  00009	5d		 pop	 ebp
  0000a	c3		 ret	 0
??$_Ptr_cat@UZTLuaScriptMember@@U1@@std@@YA?AU_Nonscalar_ptr_iterator_tag@0@PAUZTLuaScriptMember@@0@Z ENDP ; std::_Ptr_cat<ZTLuaScriptMember,ZTLuaScriptMember>
_TEXT	ENDS
; Function compile flags: /Ogtp
; File c:\program files (x86)\microsoft visual studio 14.0\vc\include\type_traits
;	COMDAT ??$forward@ABV?$allocator@UZTLuaScriptMember@@@std@@@std@@YAABV?$allocator@UZTLuaScriptMember@@@0@ABV10@@Z
_TEXT	SEGMENT
__Arg$ = 8						; size = 4
??$forward@ABV?$allocator@UZTLuaScriptMember@@@std@@@std@@YAABV?$allocator@UZTLuaScriptMember@@@0@ABV10@@Z PROC ; std::forward<std::allocator<ZTLuaScriptMember> const &>, COMDAT

; 1233 : 	{	// forward an lvalue as either an lvalue or an rvalue

  00000	55		 push	 ebp
  00001	8b ec		 mov	 ebp, esp

; 1234 : 	return (static_cast<_Ty&&>(_Arg));

  00003	8b 45 08	 mov	 eax, DWORD PTR __Arg$[ebp]

; 1235 : 	}

  00006	5d		 pop	 ebp
  00007	c3		 ret	 0
??$forward@ABV?$allocator@UZTLuaScriptMember@@@std@@@std@@YAABV?$allocator@UZTLuaScriptMember@@@0@ABV10@@Z ENDP ; std::forward<std::allocator<ZTLuaScriptMember> const &>
_TEXT	ENDS
; Function compile flags: /Ogtp
; File c:\program files (x86)\microsoft visual studio 14.0\vc\include\xmemory0
;	COMDAT ??$_Destroy_range@U?$_Wrap_alloc@V?$allocator@UZTLuaScriptMember@@@std@@@std@@@std@@YAXPAUZTLuaScriptMember@@0AAU?$_Wrap_alloc@V?$allocator@UZTLuaScriptMember@@@std@@@0@@Z
_TEXT	SEGMENT
__Cat$1 = -4						; size = 1
__First$ = 8						; size = 4
__Last$ = 12						; size = 4
__Al$ = 16						; size = 4
??$_Destroy_range@U?$_Wrap_alloc@V?$allocator@UZTLuaScriptMember@@@std@@@std@@@std@@YAXPAUZTLuaScriptMember@@0AAU?$_Wrap_alloc@V?$allocator@UZTLuaScriptMember@@@std@@@0@@Z PROC ; std::_Destroy_range<std::_Wrap_alloc<std::allocator<ZTLuaScriptMember> > >, COMDAT

; 185  : 	{	// destroy [_First, _Last)

  00000	55		 push	 ebp
  00001	8b ec		 mov	 ebp, esp
  00003	51		 push	 ecx

; 186  : 	_Destroy_range(_First, _Last, _Al, _Ptr_cat(_First, _Last));

  00004	ff 75 fc	 push	 DWORD PTR __Cat$1[ebp]
  00007	ff 75 10	 push	 DWORD PTR __Al$[ebp]
  0000a	ff 75 0c	 push	 DWORD PTR __Last$[ebp]
  0000d	ff 75 08	 push	 DWORD PTR __First$[ebp]
  00010	e8 00 00 00 00	 call	 ??$_Destroy_range@U?$_Wrap_alloc@V?$allocator@UZTLuaScriptMember@@@std@@@std@@@std@@YAXPAUZTLuaScriptMember@@0AAU?$_Wrap_alloc@V?$allocator@UZTLuaScriptMember@@@std@@@0@U_Nonscalar_ptr_iterator_tag@0@@Z ; std::_Destroy_range<std::_Wrap_alloc<std::allocator<ZTLuaScriptMember> > >
  00015	83 c4 10	 add	 esp, 16			; 00000010H

; 187  : 	}

  00018	8b e5		 mov	 esp, ebp
  0001a	5d		 pop	 ebp
  0001b	c3		 ret	 0
??$_Destroy_range@U?$_Wrap_alloc@V?$allocator@UZTLuaScriptMember@@@std@@@std@@@std@@YAXPAUZTLuaScriptMember@@0AAU?$_Wrap_alloc@V?$allocator@UZTLuaScriptMember@@@std@@@0@@Z ENDP ; std::_Destroy_range<std::_Wrap_alloc<std::allocator<ZTLuaScriptMember> > >
_TEXT	ENDS
; Function compile flags: /Ogtp
; File c:\program files (x86)\microsoft visual studio 14.0\vc\include\xutility
; File c:\program files (x86)\microsoft visual studio 14.0\vc\include\vector
; File c:\program files (x86)\microsoft visual studio 14.0\vc\include\xutility
; File c:\program files (x86)\microsoft visual studio 14.0\vc\include\vector
; File c:\program files (x86)\microsoft visual studio 14.0\vc\include\xutility
;	COMDAT ??$?0ABV?$allocator@UZTLuaScriptMember@@@std@@$$V@?$_Compressed_pair@U?$_Wrap_alloc@V?$allocator@UZTLuaScriptMember@@@std@@@std@@V?$_Vector_val@U?$_Simple_types@UZTLuaScriptMember@@@std@@@2@$00@std@@QAE@U_One_then_variadic_args_t@1@ABV?$allocator@UZTLuaScriptMember@@@1@@Z
_TEXT	SEGMENT
___formal$ = 8						; size = 1
__Val1$ = 12						; size = 4
??$?0ABV?$allocator@UZTLuaScriptMember@@@std@@$$V@?$_Compressed_pair@U?$_Wrap_alloc@V?$allocator@UZTLuaScriptMember@@@std@@@std@@V?$_Vector_val@U?$_Simple_types@UZTLuaScriptMember@@@std@@@2@$00@std@@QAE@U_One_then_variadic_args_t@1@ABV?$allocator@UZTLuaScriptMember@@@1@@Z PROC ; std::_Compressed_pair<std::_Wrap_alloc<std::allocator<ZTLuaScriptMember> >,std::_Vector_val<std::_Simple_types<ZTLuaScriptMember> >,1>::_Compressed_pair<std::_Wrap_alloc<std::allocator<ZTLuaScriptMember> >,std::_Vector_val<std::_Simple_types<ZTLuaScriptMember> >,1><std::allocator<ZTLuaScriptMember> const &>, COMDAT
; _this$ = ecx
; File c:\program files (x86)\microsoft visual studio 14.0\vc\include\vector

; 480  : 		_Myfirst = pointer();

  00000	c7 01 00 00 00
	00		 mov	 DWORD PTR [ecx], 0
; File c:\program files (x86)\microsoft visual studio 14.0\vc\include\xutility

; 289  : 		}

  00006	8b c1		 mov	 eax, ecx
; File c:\program files (x86)\microsoft visual studio 14.0\vc\include\vector

; 481  : 		_Mylast = pointer();

  00008	c7 41 04 00 00
	00 00		 mov	 DWORD PTR [ecx+4], 0

; 482  : 		_Myend = pointer();

  0000f	c7 41 08 00 00
	00 00		 mov	 DWORD PTR [ecx+8], 0
; File c:\program files (x86)\microsoft visual studio 14.0\vc\include\xutility

; 289  : 		}

  00016	c2 08 00	 ret	 8
??$?0ABV?$allocator@UZTLuaScriptMember@@@std@@$$V@?$_Compressed_pair@U?$_Wrap_alloc@V?$allocator@UZTLuaScriptMember@@@std@@@std@@V?$_Vector_val@U?$_Simple_types@UZTLuaScriptMember@@@std@@@2@$00@std@@QAE@U_One_then_variadic_args_t@1@ABV?$allocator@UZTLuaScriptMember@@@1@@Z ENDP ; std::_Compressed_pair<std::_Wrap_alloc<std::allocator<ZTLuaScriptMember> >,std::_Vector_val<std::_Simple_types<ZTLuaScriptMember> >,1>::_Compressed_pair<std::_Wrap_alloc<std::allocator<ZTLuaScriptMember> >,std::_Vector_val<std::_Simple_types<ZTLuaScriptMember> >,1><std::allocator<ZTLuaScriptMember> const &>
_TEXT	ENDS
; Function compile flags: /Ogtp
; File c:\users\michel\desktop\source\gameserver\source\ztluabackup.h
; File c:\program files (x86)\microsoft visual studio 14.0\vc\include\vector
; File c:\program files (x86)\microsoft visual studio 14.0\vc\include\xmemory0
; File c:\program files (x86)\microsoft visual studio 14.0\vc\include\vector
; File c:\program files (x86)\microsoft visual studio 14.0\vc\include\xmemory0
; File c:\program files (x86)\microsoft visual studio 14.0\vc\include\vector
; File c:\program files (x86)\microsoft visual studio 14.0\vc\include\xmemory0
; File c:\program files (x86)\microsoft visual studio 14.0\vc\include\vector
; File c:\program files (x86)\microsoft visual studio 14.0\vc\include\xmemory0
; File c:\program files (x86)\microsoft visual studio 14.0\vc\include\vector
;	COMDAT ??__Fg_LuaBackup@@YAXXZ
text$yd	SEGMENT
__Cat$1 = -4						; size = 1
??__Fg_LuaBackup@@YAXXZ PROC				; `dynamic atexit destructor for 'g_LuaBackup'', COMDAT
  00000	55		 push	 ebp
  00001	8b ec		 mov	 ebp, esp
  00003	51		 push	 ecx
; File c:\users\michel\desktop\source\gameserver\source\ztluabackup.h

; 25   : 		THREAD_LOCK_DELETE(&m_CriticalSection);

  00004	68 0c 00 00 00	 push	 OFFSET ?g_LuaBackup@@3VZTLuaBackup@@A+12
  00009	ff 15 00 00 00
	00		 call	 DWORD PTR __imp__DeleteCriticalSection@4
; File c:\program files (x86)\microsoft visual studio 14.0\vc\include\vector

; 1656 : 		if (this->_Myfirst() != pointer())

  0000f	83 3d 00 00 00
	00 00		 cmp	 DWORD PTR ?g_LuaBackup@@3VZTLuaBackup@@A, 0
  00016	74 72		 je	 SHORT $LN10@dynamic

; 1657 : 			{	// something to free, destroy and deallocate it
; 1658 : 			this->_Orphan_all();

  00018	b9 00 00 00 00	 mov	 ecx, OFFSET ?g_LuaBackup@@3VZTLuaBackup@@A ; g_LuaBackup
  0001d	e8 00 00 00 00	 call	 ?_Orphan_all@?$_Vector_alloc@U?$_Vec_base_types@UZTLuaScriptMember@@V?$allocator@UZTLuaScriptMember@@@std@@@std@@@std@@QAEXXZ ; std::_Vector_alloc<std::_Vec_base_types<ZTLuaScriptMember,std::allocator<ZTLuaScriptMember> > >::_Orphan_all
; File c:\program files (x86)\microsoft visual studio 14.0\vc\include\xmemory0

; 186  : 	_Destroy_range(_First, _Last, _Al, _Ptr_cat(_First, _Last));

  00022	ff 75 fc	 push	 DWORD PTR __Cat$1[ebp]
  00025	68 00 00 00 00	 push	 OFFSET ?g_LuaBackup@@3VZTLuaBackup@@A ; g_LuaBackup
  0002a	ff 35 04 00 00
	00		 push	 DWORD PTR ?g_LuaBackup@@3VZTLuaBackup@@A+4
  00030	ff 35 00 00 00
	00		 push	 DWORD PTR ?g_LuaBackup@@3VZTLuaBackup@@A
  00036	e8 00 00 00 00	 call	 ??$_Destroy_range@U?$_Wrap_alloc@V?$allocator@UZTLuaScriptMember@@@std@@@std@@@std@@YAXPAUZTLuaScriptMember@@0AAU?$_Wrap_alloc@V?$allocator@UZTLuaScriptMember@@@std@@@0@U_Nonscalar_ptr_iterator_tag@0@@Z ; std::_Destroy_range<std::_Wrap_alloc<std::allocator<ZTLuaScriptMember> > >
; File c:\program files (x86)\microsoft visual studio 14.0\vc\include\vector

; 1660 : 			this->_Getal().deallocate(this->_Myfirst(),

  0003b	8b 15 08 00 00
	00		 mov	 edx, DWORD PTR ?g_LuaBackup@@3VZTLuaBackup@@A+8
  00041	b8 ab aa aa 2a	 mov	 eax, 715827883		; 2aaaaaabH
  00046	2b 15 00 00 00
	00		 sub	 edx, DWORD PTR ?g_LuaBackup@@3VZTLuaBackup@@A
; File c:\program files (x86)\microsoft visual studio 14.0\vc\include\xmemory0

; 186  : 	_Destroy_range(_First, _Last, _Al, _Ptr_cat(_First, _Last));

  0004c	83 c4 10	 add	 esp, 16			; 00000010H
; File c:\program files (x86)\microsoft visual studio 14.0\vc\include\vector

; 1660 : 			this->_Getal().deallocate(this->_Myfirst(),

  0004f	f7 ea		 imul	 edx
; File c:\program files (x86)\microsoft visual studio 14.0\vc\include\xmemory0

; 909  : 		_Mybase::deallocate(_Ptr, _Count);

  00051	b9 00 00 00 00	 mov	 ecx, OFFSET ?g_LuaBackup@@3VZTLuaBackup@@A ; g_LuaBackup
; File c:\program files (x86)\microsoft visual studio 14.0\vc\include\vector

; 1660 : 			this->_Getal().deallocate(this->_Myfirst(),

  00056	c1 fa 03	 sar	 edx, 3
  00059	8b c2		 mov	 eax, edx
  0005b	c1 e8 1f	 shr	 eax, 31			; 0000001fH
  0005e	03 c2		 add	 eax, edx
; File c:\program files (x86)\microsoft visual studio 14.0\vc\include\xmemory0

; 909  : 		_Mybase::deallocate(_Ptr, _Count);

  00060	50		 push	 eax
  00061	ff 35 00 00 00
	00		 push	 DWORD PTR ?g_LuaBackup@@3VZTLuaBackup@@A
  00067	e8 00 00 00 00	 call	 ?deallocate@?$allocator@UZTLuaScriptMember@@@std@@QAEXPAUZTLuaScriptMember@@I@Z ; std::allocator<ZTLuaScriptMember>::deallocate
; File c:\program files (x86)\microsoft visual studio 14.0\vc\include\vector

; 1662 : 			this->_Myfirst() = pointer();

  0006c	c7 05 00 00 00
	00 00 00 00 00	 mov	 DWORD PTR ?g_LuaBackup@@3VZTLuaBackup@@A, 0

; 1663 : 			this->_Mylast() = pointer();

  00076	c7 05 04 00 00
	00 00 00 00 00	 mov	 DWORD PTR ?g_LuaBackup@@3VZTLuaBackup@@A+4, 0

; 1664 : 			this->_Myend() = pointer();

  00080	c7 05 08 00 00
	00 00 00 00 00	 mov	 DWORD PTR ?g_LuaBackup@@3VZTLuaBackup@@A+8, 0
$LN10@dynamic:
  0008a	8b e5		 mov	 esp, ebp
  0008c	5d		 pop	 ebp
  0008d	c3		 ret	 0
??__Fg_LuaBackup@@YAXXZ ENDP				; `dynamic atexit destructor for 'g_LuaBackup''
text$yd	ENDS
; Function compile flags: /Ogtp
; File c:\users\michel\desktop\source\gameserver\source\ztluabackup.cpp
; File c:\program files (x86)\microsoft visual studio 14.0\vc\include\xutility
; File c:\users\michel\desktop\source\gameserver\source\ztluabackup.h
; File c:\program files (x86)\microsoft visual studio 14.0\vc\include\vector
; File c:\users\michel\desktop\source\gameserver\source\ztluabackup.h
; File c:\users\michel\desktop\source\gameserver\source\ztluabackup.cpp
;	COMDAT ??__Eg_LuaBackup@@YAXXZ
text$di	SEGMENT
$T1 = -1						; size = 1
??__Eg_LuaBackup@@YAXXZ PROC				; `dynamic initializer for 'g_LuaBackup'', COMDAT

; 4    : ZTLuaBackup g_LuaBackup;

  00000	55		 push	 ebp
  00001	8b ec		 mov	 ebp, esp
  00003	51		 push	 ecx
; File c:\program files (x86)\microsoft visual studio 14.0\vc\include\xutility

; 286  : 		: _Ty1(_STD forward<_Other1>(_Val1)),

  00004	8d 45 ff	 lea	 eax, DWORD PTR $T1[ebp]
  00007	b9 00 00 00 00	 mov	 ecx, OFFSET ?g_LuaBackup@@3VZTLuaBackup@@A ; g_LuaBackup
  0000c	50		 push	 eax
  0000d	e8 00 00 00 00	 call	 ??0?$_Wrap_alloc@V?$allocator@UZTLuaScriptMember@@@std@@@std@@QAE@ABV?$allocator@UZTLuaScriptMember@@@1@@Z ; std::_Wrap_alloc<std::allocator<ZTLuaScriptMember> >::_Wrap_alloc<std::allocator<ZTLuaScriptMember> >
; File c:\users\michel\desktop\source\gameserver\source\ztluabackup.h

; 21   : 		THREAD_LOCK_CREATE(&m_CriticalSection);

  00012	68 0c 00 00 00	 push	 OFFSET ?g_LuaBackup@@3VZTLuaBackup@@A+12
; File c:\program files (x86)\microsoft visual studio 14.0\vc\include\vector

; 480  : 		_Myfirst = pointer();

  00017	c7 05 00 00 00
	00 00 00 00 00	 mov	 DWORD PTR ?g_LuaBackup@@3VZTLuaBackup@@A, 0

; 481  : 		_Mylast = pointer();

  00021	c7 05 04 00 00
	00 00 00 00 00	 mov	 DWORD PTR ?g_LuaBackup@@3VZTLuaBackup@@A+4, 0

; 482  : 		_Myend = pointer();

  0002b	c7 05 08 00 00
	00 00 00 00 00	 mov	 DWORD PTR ?g_LuaBackup@@3VZTLuaBackup@@A+8, 0
; File c:\users\michel\desktop\source\gameserver\source\ztluabackup.h

; 21   : 		THREAD_LOCK_CREATE(&m_CriticalSection);

  00035	ff 15 00 00 00
	00		 call	 DWORD PTR __imp__InitializeCriticalSection@4
; File c:\users\michel\desktop\source\gameserver\source\ztluabackup.cpp

; 4    : ZTLuaBackup g_LuaBackup;

  0003b	68 00 00 00 00	 push	 OFFSET ??__Fg_LuaBackup@@YAXXZ ; `dynamic atexit destructor for 'g_LuaBackup''
  00040	e8 00 00 00 00	 call	 _atexit
  00045	83 c4 04	 add	 esp, 4
  00048	8b e5		 mov	 esp, ebp
  0004a	5d		 pop	 ebp
  0004b	c3		 ret	 0
??__Eg_LuaBackup@@YAXXZ ENDP				; `dynamic initializer for 'g_LuaBackup''
text$di	ENDS
; Function compile flags: /Ogtp
; File c:\program files (x86)\microsoft visual studio 14.0\vc\include\vector
; File c:\program files (x86)\microsoft visual studio 14.0\vc\include\xmemory0
; File c:\program files (x86)\microsoft visual studio 14.0\vc\include\vector
; File c:\program files (x86)\microsoft visual studio 14.0\vc\include\xmemory0
; File c:\program files (x86)\microsoft visual studio 14.0\vc\include\vector
; File c:\program files (x86)\microsoft visual studio 14.0\vc\include\xmemory0
; File c:\program files (x86)\microsoft visual studio 14.0\vc\include\vector
; File c:\program files (x86)\microsoft visual studio 14.0\vc\include\xmemory0
; File c:\program files (x86)\microsoft visual studio 14.0\vc\include\vector
;	COMDAT ?_Tidy@?$vector@UZTLuaScriptMember@@V?$allocator@UZTLuaScriptMember@@@std@@@std@@IAEXXZ
_TEXT	SEGMENT
__Cat$1 = -4						; size = 1
?_Tidy@?$vector@UZTLuaScriptMember@@V?$allocator@UZTLuaScriptMember@@@std@@@std@@IAEXXZ PROC ; std::vector<ZTLuaScriptMember,std::allocator<ZTLuaScriptMember> >::_Tidy, COMDAT
; _this$ = ecx

; 1655 : 		{	// free all storage

  00000	55		 push	 ebp
  00001	8b ec		 mov	 ebp, esp
  00003	51		 push	 ecx
  00004	57		 push	 edi
  00005	8b f9		 mov	 edi, ecx

; 1656 : 		if (this->_Myfirst() != pointer())

  00007	8b 07		 mov	 eax, DWORD PTR [edi]
  00009	85 c0		 test	 eax, eax
  0000b	74 44		 je	 SHORT $LN2@Tidy
; File c:\program files (x86)\microsoft visual studio 14.0\vc\include\xmemory0

; 186  : 	_Destroy_range(_First, _Last, _Al, _Ptr_cat(_First, _Last));

  0000d	ff 75 fc	 push	 DWORD PTR __Cat$1[ebp]
  00010	57		 push	 edi
  00011	ff 77 04	 push	 DWORD PTR [edi+4]
  00014	50		 push	 eax
  00015	e8 00 00 00 00	 call	 ??$_Destroy_range@U?$_Wrap_alloc@V?$allocator@UZTLuaScriptMember@@@std@@@std@@@std@@YAXPAUZTLuaScriptMember@@0AAU?$_Wrap_alloc@V?$allocator@UZTLuaScriptMember@@@std@@@0@U_Nonscalar_ptr_iterator_tag@0@@Z ; std::_Destroy_range<std::_Wrap_alloc<std::allocator<ZTLuaScriptMember> > >
; File c:\program files (x86)\microsoft visual studio 14.0\vc\include\vector

; 1660 : 			this->_Getal().deallocate(this->_Myfirst(),

  0001a	8b 4f 08	 mov	 ecx, DWORD PTR [edi+8]
  0001d	b8 ab aa aa 2a	 mov	 eax, 715827883		; 2aaaaaabH
  00022	2b 0f		 sub	 ecx, DWORD PTR [edi]
; File c:\program files (x86)\microsoft visual studio 14.0\vc\include\xmemory0

; 186  : 	_Destroy_range(_First, _Last, _Al, _Ptr_cat(_First, _Last));

  00024	83 c4 10	 add	 esp, 16			; 00000010H
; File c:\program files (x86)\microsoft visual studio 14.0\vc\include\vector

; 1660 : 			this->_Getal().deallocate(this->_Myfirst(),

  00027	f7 e9		 imul	 ecx
; File c:\program files (x86)\microsoft visual studio 14.0\vc\include\xmemory0

; 909  : 		_Mybase::deallocate(_Ptr, _Count);

  00029	8b cf		 mov	 ecx, edi
; File c:\program files (x86)\microsoft visual studio 14.0\vc\include\vector

; 1660 : 			this->_Getal().deallocate(this->_Myfirst(),

  0002b	c1 fa 03	 sar	 edx, 3
  0002e	8b c2		 mov	 eax, edx
  00030	c1 e8 1f	 shr	 eax, 31			; 0000001fH
  00033	03 c2		 add	 eax, edx
; File c:\program files (x86)\microsoft visual studio 14.0\vc\include\xmemory0

; 909  : 		_Mybase::deallocate(_Ptr, _Count);

  00035	50		 push	 eax
  00036	ff 37		 push	 DWORD PTR [edi]
  00038	e8 00 00 00 00	 call	 ?deallocate@?$allocator@UZTLuaScriptMember@@@std@@QAEXPAUZTLuaScriptMember@@I@Z ; std::allocator<ZTLuaScriptMember>::deallocate
; File c:\program files (x86)\microsoft visual studio 14.0\vc\include\vector

; 1662 : 			this->_Myfirst() = pointer();

  0003d	c7 07 00 00 00
	00		 mov	 DWORD PTR [edi], 0

; 1663 : 			this->_Mylast() = pointer();

  00043	c7 47 04 00 00
	00 00		 mov	 DWORD PTR [edi+4], 0

; 1664 : 			this->_Myend() = pointer();

  0004a	c7 47 08 00 00
	00 00		 mov	 DWORD PTR [edi+8], 0
$LN2@Tidy:
  00051	5f		 pop	 edi

; 1665 : 			}
; 1666 : 		}

  00052	8b e5		 mov	 esp, ebp
  00054	5d		 pop	 ebp
  00055	c3		 ret	 0
?_Tidy@?$vector@UZTLuaScriptMember@@V?$allocator@UZTLuaScriptMember@@@std@@@std@@IAEXXZ ENDP ; std::vector<ZTLuaScriptMember,std::allocator<ZTLuaScriptMember> >::_Tidy
_TEXT	ENDS
; Function compile flags: /Ogtp
; File c:\program files (x86)\microsoft visual studio 14.0\vc\include\vector
; File c:\program files (x86)\microsoft visual studio 14.0\vc\include\xmemory0
; File c:\program files (x86)\microsoft visual studio 14.0\vc\include\vector
;	COMDAT ?_Destroy@?$vector@UZTLuaScriptMember@@V?$allocator@UZTLuaScriptMember@@@std@@@std@@IAEXPAUZTLuaScriptMember@@0@Z
_TEXT	SEGMENT
__First$ = 8						; size = 4
__Cat$1 = 12						; size = 1
__Last$ = 12						; size = 4
?_Destroy@?$vector@UZTLuaScriptMember@@V?$allocator@UZTLuaScriptMember@@@std@@@std@@IAEXPAUZTLuaScriptMember@@0@Z PROC ; std::vector<ZTLuaScriptMember,std::allocator<ZTLuaScriptMember> >::_Destroy, COMDAT
; _this$ = ecx

; 1599 : 		{	// destroy [_First, _Last) using allocator

  00000	55		 push	 ebp
  00001	8b ec		 mov	 ebp, esp
; File c:\program files (x86)\microsoft visual studio 14.0\vc\include\xmemory0

; 186  : 	_Destroy_range(_First, _Last, _Al, _Ptr_cat(_First, _Last));

  00003	ff 75 0c	 push	 DWORD PTR __Cat$1[ebp]
  00006	51		 push	 ecx
  00007	ff 75 0c	 push	 DWORD PTR __Last$[ebp]
  0000a	ff 75 08	 push	 DWORD PTR __First$[ebp]
  0000d	e8 00 00 00 00	 call	 ??$_Destroy_range@U?$_Wrap_alloc@V?$allocator@UZTLuaScriptMember@@@std@@@std@@@std@@YAXPAUZTLuaScriptMember@@0AAU?$_Wrap_alloc@V?$allocator@UZTLuaScriptMember@@@std@@@0@U_Nonscalar_ptr_iterator_tag@0@@Z ; std::_Destroy_range<std::_Wrap_alloc<std::allocator<ZTLuaScriptMember> > >
  00012	83 c4 10	 add	 esp, 16			; 00000010H
; File c:\program files (x86)\microsoft visual studio 14.0\vc\include\vector

; 1601 : 		}

  00015	5d		 pop	 ebp
  00016	c2 08 00	 ret	 8
?_Destroy@?$vector@UZTLuaScriptMember@@V?$allocator@UZTLuaScriptMember@@@std@@@std@@IAEXPAUZTLuaScriptMember@@0@Z ENDP ; std::vector<ZTLuaScriptMember,std::allocator<ZTLuaScriptMember> >::_Destroy
_TEXT	ENDS
; Function compile flags: /Ogtp
; File c:\program files (x86)\microsoft visual studio 14.0\vc\include\vector
; File c:\program files (x86)\microsoft visual studio 14.0\vc\include\xmemory0
; File c:\program files (x86)\microsoft visual studio 14.0\vc\include\vector
; File c:\program files (x86)\microsoft visual studio 14.0\vc\include\xmemory0
; File c:\program files (x86)\microsoft visual studio 14.0\vc\include\vector
; File c:\program files (x86)\microsoft visual studio 14.0\vc\include\xmemory0
; File c:\program files (x86)\microsoft visual studio 14.0\vc\include\vector
; File c:\program files (x86)\microsoft visual studio 14.0\vc\include\xmemory0
; File c:\program files (x86)\microsoft visual studio 14.0\vc\include\vector
;	COMDAT ??1?$vector@UZTLuaScriptMember@@V?$allocator@UZTLuaScriptMember@@@std@@@std@@QAE@XZ
_TEXT	SEGMENT
__Cat$1 = -4						; size = 1
??1?$vector@UZTLuaScriptMember@@V?$allocator@UZTLuaScriptMember@@@std@@@std@@QAE@XZ PROC ; std::vector<ZTLuaScriptMember,std::allocator<ZTLuaScriptMember> >::~vector<ZTLuaScriptMember,std::allocator<ZTLuaScriptMember> >, COMDAT
; _this$ = ecx

; 974  : 		{	// destroy the object

  00000	55		 push	 ebp
  00001	8b ec		 mov	 ebp, esp
  00003	51		 push	 ecx
  00004	57		 push	 edi
  00005	8b f9		 mov	 edi, ecx

; 977  : 
; 978  : 	_Myt& operator=(const _Myt& _Right)
; 979  : 		{	// assign _Right
; 980  : 		if (this != &_Right)
; 981  : 			{	// different, assign it
; 982  : 			if (this->_Getal() != _Right._Getal()
; 983  : 				&& _Alty::propagate_on_container_copy_assignment::value)
; 984  : 				{	// change allocator before copying
; 985  : 				_Tidy();
; 986  : 				this->_Copy_alloc(_Right._Getal());
; 987  : 				}
; 988  : 
; 989  : 			this->_Orphan_all();
; 990  : 
; 991  : 			if (_Right.empty())
; 992  : 				clear();	// new sequence empty, erase existing sequence
; 993  : 			else if (_Right.size() <= size())
; 994  : 				{	// enough elements, copy new and destroy old
; 995  : 				pointer _Ptr = _Copy_impl(_Right._Myfirst(),
; 996  : 					_Right._Mylast(), this->_Myfirst());	// copy new
; 997  : 				_Destroy(_Ptr, this->_Mylast());	// destroy old
; 998  : 				this->_Mylast() = this->_Myfirst() + _Right.size();
; 999  : 				}
; 1000 : 			else if (_Right.size() <= capacity())
; 1001 : 				{	// enough room, copy and construct new
; 1002 : 				pointer _Ptr = _Right._Myfirst() + size();
; 1003 : 				_Copy_impl(_Right._Myfirst(),
; 1004 : 					_Ptr, this->_Myfirst());
; 1005 : 				this->_Mylast() = _Ucopy(_Ptr, _Right._Mylast(),
; 1006 : 					this->_Mylast());
; 1007 : 				}
; 1008 : 			else
; 1009 : 				{	// not enough room, allocate new array and construct new
; 1010 : 				if (this->_Myfirst() != pointer())
; 1011 : 					{	// discard old array
; 1012 : 					_Destroy(this->_Myfirst(), this->_Mylast());
; 1013 : 					this->_Getal().deallocate(this->_Myfirst(),
; 1014 : 						this->_Myend() - this->_Myfirst());
; 1015 : 					}
; 1016 : 				if (_Buy(_Right.size()))
; 1017 : 					_TRY_BEGIN
; 1018 : 					this->_Mylast() =
; 1019 : 						_Ucopy(_Right._Myfirst(), _Right._Mylast(),
; 1020 : 						this->_Myfirst());
; 1021 : 					_CATCH_ALL
; 1022 : 					_Tidy();
; 1023 : 					_RERAISE;
; 1024 : 					_CATCH_END
; 1025 : 				}
; 1026 : 			}
; 1027 : 		return (*this);
; 1028 : 		}
; 1029 : 
; 1030 : 	void reserve(size_type _Count)
; 1031 : 		{	// determine new minimum length of allocated storage
; 1032 : 		if (capacity() < _Count)
; 1033 : 			{	// something to do, check and reallocate
; 1034 : 			if (max_size() < _Count)
; 1035 : 				_Xlen();
; 1036 : 			_Reallocate(_Count);
; 1037 : 			}
; 1038 : 		}
; 1039 : 
; 1040 : 	size_type capacity() const _NOEXCEPT
; 1041 : 		{	// return current length of allocated storage
; 1042 : 		return (this->_Myend() - this->_Myfirst());
; 1043 : 		}
; 1044 : 
; 1045 : 	size_type _Unused_capacity() const _NOEXCEPT
; 1046 : 		{	// micro-optimization for capacity() - size()
; 1047 : 		return (this->_Myend() - this->_Mylast());
; 1048 : 		}
; 1049 : 
; 1050 : 	size_type _Has_unused_capacity() const _NOEXCEPT
; 1051 : 		{	// micro-optimization for capacity() != size()
; 1052 : 		return (this->_Myend() != this->_Mylast());
; 1053 : 		}
; 1054 : 
; 1055 : 	iterator begin() _NOEXCEPT
; 1056 : 		{	// return iterator for beginning of mutable sequence
; 1057 : 		return (iterator(this->_Myfirst(), &this->_Get_data()));
; 1058 : 		}
; 1059 : 
; 1060 : 	const_iterator begin() const _NOEXCEPT
; 1061 : 		{	// return iterator for beginning of nonmutable sequence
; 1062 : 		return (const_iterator(this->_Myfirst(), &this->_Get_data()));
; 1063 : 		}
; 1064 : 
; 1065 : 	iterator end() _NOEXCEPT
; 1066 : 		{	// return iterator for end of mutable sequence
; 1067 : 		return (iterator(this->_Mylast(), &this->_Get_data()));
; 1068 : 		}
; 1069 : 
; 1070 : 	const_iterator end() const _NOEXCEPT
; 1071 : 		{	// return iterator for end of nonmutable sequence
; 1072 : 		return (const_iterator(this->_Mylast(), &this->_Get_data()));
; 1073 : 		}
; 1074 : 
; 1075 : 	iterator _Make_iter(const_iterator _Where) const
; 1076 : 		{	// make iterator from const_iterator
; 1077 : 		return (iterator(_Where._Ptr, &this->_Get_data()));
; 1078 : 		}
; 1079 : 
; 1080 : 	reverse_iterator rbegin() _NOEXCEPT
; 1081 : 		{	// return iterator for beginning of reversed mutable sequence
; 1082 : 		return (reverse_iterator(end()));
; 1083 : 		}
; 1084 : 
; 1085 : 	const_reverse_iterator rbegin() const _NOEXCEPT
; 1086 : 		{	// return iterator for beginning of reversed nonmutable sequence
; 1087 : 		return (const_reverse_iterator(end()));
; 1088 : 		}
; 1089 : 
; 1090 : 	reverse_iterator rend() _NOEXCEPT
; 1091 : 		{	// return iterator for end of reversed mutable sequence
; 1092 : 		return (reverse_iterator(begin()));
; 1093 : 		}
; 1094 : 
; 1095 : 	const_reverse_iterator rend() const _NOEXCEPT
; 1096 : 		{	// return iterator for end of reversed nonmutable sequence
; 1097 : 		return (const_reverse_iterator(begin()));
; 1098 : 		}
; 1099 : 
; 1100 : 	const_iterator cbegin() const _NOEXCEPT
; 1101 : 		{	// return iterator for beginning of nonmutable sequence
; 1102 : 		return (begin());
; 1103 : 		}
; 1104 : 
; 1105 : 	const_iterator cend() const _NOEXCEPT
; 1106 : 		{	// return iterator for end of nonmutable sequence
; 1107 : 		return (end());
; 1108 : 		}
; 1109 : 
; 1110 : 	const_reverse_iterator crbegin() const _NOEXCEPT
; 1111 : 		{	// return iterator for beginning of reversed nonmutable sequence
; 1112 : 		return (rbegin());
; 1113 : 		}
; 1114 : 
; 1115 : 	const_reverse_iterator crend() const _NOEXCEPT
; 1116 : 		{	// return iterator for end of reversed nonmutable sequence
; 1117 : 		return (rend());
; 1118 : 		}
; 1119 : 
; 1120 : 	void shrink_to_fit()
; 1121 : 		{	// reduce capacity
; 1122 : 		if (_Has_unused_capacity())
; 1123 : 			{	// worth shrinking, do it
; 1124 : 			if (empty())
; 1125 : 				_Tidy();
; 1126 : 			else
; 1127 : 				_Reallocate(size());
; 1128 : 			}
; 1129 : 		}
; 1130 : 
; 1131 : 	void resize(size_type _Newsize)
; 1132 : 		{	// determine new length, padding as needed
; 1133 : 		if (_Newsize < size())
; 1134 : 			_Pop_back_n(size() - _Newsize);
; 1135 : 		else if (size() < _Newsize)
; 1136 : 			{	// pad as needed
; 1137 : 			_Reserve(_Newsize - size());
; 1138 : 			_TRY_BEGIN
; 1139 : 			_Uninitialized_default_fill_n(this->_Mylast(), _Newsize - size(),
; 1140 : 				this->_Getal());
; 1141 : 			_CATCH_ALL
; 1142 : 			_Tidy();
; 1143 : 			_RERAISE;
; 1144 : 			_CATCH_END
; 1145 : 			this->_Mylast() += _Newsize - size();
; 1146 : 			}
; 1147 : 		}
; 1148 : 
; 1149 : 	void resize(size_type _Newsize, const value_type& _Val)
; 1150 : 		{	// determine new length, padding with _Val elements as needed
; 1151 : 		if (_Newsize < size())
; 1152 : 			_Pop_back_n(size() - _Newsize);
; 1153 : 		else if (size() < _Newsize)
; 1154 : 			{	// pad as needed
; 1155 : 			const value_type *_Ptr = _STD addressof(_Val);
; 1156 : 
; 1157 : 			if (_Inside(_Ptr))
; 1158 : 				{	// padding is inside vector, recompute _Ptr after reserve
; 1159 : 				const difference_type _Idx = _Ptr
; 1160 : 					- _STD addressof(*this->_Myfirst());
; 1161 : 				_Reserve(_Newsize - size());
; 1162 : 				_Ptr = _STD addressof(*this->_Myfirst()) + _Idx;
; 1163 : 				}
; 1164 : 			else
; 1165 : 				_Reserve(_Newsize - size());
; 1166 : 
; 1167 : 			_TRY_BEGIN
; 1168 : 			_Ufill(this->_Mylast(), _Newsize - size(), _Ptr);
; 1169 : 			_CATCH_ALL
; 1170 : 			_Tidy();
; 1171 : 			_RERAISE;
; 1172 : 			_CATCH_END
; 1173 : 			this->_Mylast() += _Newsize - size();
; 1174 : 			}
; 1175 : 		}
; 1176 : 
; 1177 : 	size_type size() const _NOEXCEPT
; 1178 : 		{	// return length of sequence
; 1179 : 		return (this->_Mylast() - this->_Myfirst());
; 1180 : 		}
; 1181 : 
; 1182 : 	size_type max_size() const _NOEXCEPT
; 1183 : 		{	// return maximum possible length of sequence
; 1184 : 		return (this->_Getal().max_size());
; 1185 : 		}
; 1186 : 
; 1187 : 	bool empty() const _NOEXCEPT
; 1188 : 		{	// test if sequence is empty
; 1189 : 		return (this->_Myfirst() == this->_Mylast());
; 1190 : 		}
; 1191 : 
; 1192 : 	_Alloc get_allocator() const _NOEXCEPT
; 1193 : 		{	// return allocator object for values
; 1194 : 		return (this->_Getal());
; 1195 : 		}
; 1196 : 
; 1197 : 	const_reference at(size_type _Pos) const
; 1198 : 		{	// subscript nonmutable sequence with checking
; 1199 : 		if (size() <= _Pos)
; 1200 : 			_Xran();
; 1201 : 		return (*(this->_Myfirst() + _Pos));
; 1202 : 		}
; 1203 : 
; 1204 : 	reference at(size_type _Pos)
; 1205 : 		{	// subscript mutable sequence with checking
; 1206 : 		if (size() <= _Pos)
; 1207 : 			_Xran();
; 1208 : 		return (*(this->_Myfirst() + _Pos));
; 1209 : 		}
; 1210 : 
; 1211 : 	const_reference operator[](size_type _Pos) const
; 1212 : 		{	// subscript nonmutable sequence
; 1213 :  #if _ITERATOR_DEBUG_LEVEL == 2
; 1214 : 		if (size() <= _Pos)
; 1215 : 			{	// report error
; 1216 : 			_DEBUG_ERROR("vector subscript out of range");
; 1217 : 			_SCL_SECURE_OUT_OF_RANGE;
; 1218 : 			}
; 1219 : 
; 1220 :  #elif _ITERATOR_DEBUG_LEVEL == 1
; 1221 : 		_SCL_SECURE_VALIDATE_RANGE(_Pos < size());
; 1222 :  #endif /* _ITERATOR_DEBUG_LEVEL */
; 1223 : 
; 1224 : 		return (*(this->_Myfirst() + _Pos));
; 1225 : 		}
; 1226 : 
; 1227 : 	reference operator[](size_type _Pos)
; 1228 : 		{	// subscript mutable sequence
; 1229 :  #if _ITERATOR_DEBUG_LEVEL == 2
; 1230 : 		if (size() <= _Pos)
; 1231 : 			{	// report error
; 1232 : 			_DEBUG_ERROR("vector subscript out of range");
; 1233 : 			_SCL_SECURE_OUT_OF_RANGE;
; 1234 : 			}
; 1235 : 
; 1236 :  #elif _ITERATOR_DEBUG_LEVEL == 1
; 1237 : 		_SCL_SECURE_VALIDATE_RANGE(_Pos < size());
; 1238 :  #endif /* _ITERATOR_DEBUG_LEVEL */
; 1239 : 
; 1240 : 		return (*(this->_Myfirst() + _Pos));
; 1241 : 		}
; 1242 : 
; 1243 : 	pointer data() _NOEXCEPT
; 1244 : 		{	// return address of first element
; 1245 : 		return (this->_Myfirst());
; 1246 : 		}
; 1247 : 
; 1248 : 	const_pointer data() const _NOEXCEPT
; 1249 : 		{	// return address of first element
; 1250 : 		return (this->_Myfirst());
; 1251 : 		}
; 1252 : 
; 1253 : 	reference front()
; 1254 : 		{	// return first element of mutable sequence
; 1255 : 		return (*begin());
; 1256 : 		}
; 1257 : 
; 1258 : 	const_reference front() const
; 1259 : 		{	// return first element of nonmutable sequence
; 1260 : 		return (*begin());
; 1261 : 		}
; 1262 : 
; 1263 : 	reference back()
; 1264 : 		{	// return last element of mutable sequence
; 1265 : 		return (*(end() - 1));
; 1266 : 		}
; 1267 : 
; 1268 : 	const_reference back() const
; 1269 : 		{	// return last element of nonmutable sequence
; 1270 : 		return (*(end() - 1));
; 1271 : 		}
; 1272 : 
; 1273 : 	void push_back(const value_type& _Val)
; 1274 : 		{	// insert element at end
; 1275 : 		if (_Inside(_STD addressof(_Val)))
; 1276 : 			{	// push back an element
; 1277 : 			size_type _Idx = _STD addressof(_Val) - this->_Myfirst();
; 1278 : 			if (this->_Mylast() == this->_Myend())
; 1279 : 				_Reserve(1);
; 1280 : 			_Orphan_range(this->_Mylast(), this->_Mylast());
; 1281 : 			this->_Getal().construct(this->_Mylast(),
; 1282 : 				this->_Myfirst()[_Idx]);
; 1283 : 			++this->_Mylast();
; 1284 : 			}
; 1285 : 		else
; 1286 : 			{	// push back a non-element
; 1287 : 			if (this->_Mylast() == this->_Myend())
; 1288 : 				_Reserve(1);
; 1289 : 			_Orphan_range(this->_Mylast(), this->_Mylast());
; 1290 : 			this->_Getal().construct(this->_Mylast(),
; 1291 : 				_Val);
; 1292 : 			++this->_Mylast();
; 1293 : 			}
; 1294 : 		}
; 1295 : 
; 1296 :  #if _ITERATOR_DEBUG_LEVEL == 2
; 1297 : 	void pop_back()
; 1298 : 		{	// erase element at end
; 1299 : 		if (empty())
; 1300 : 			_DEBUG_ERROR("vector empty before pop");
; 1301 : 		else
; 1302 : 			{	// erase last element
; 1303 : 			_Orphan_range(this->_Mylast() - 1, this->_Mylast());
; 1304 : 			this->_Getal().destroy(this->_Mylast() - 1);
; 1305 : 			--this->_Mylast();
; 1306 : 			}
; 1307 : 		}
; 1308 : 
; 1309 :  #else /* _ITERATOR_DEBUG_LEVEL == 2 */
; 1310 : 	void pop_back()
; 1311 : 		{	// erase element at end
; 1312 : 		this->_Getal().destroy(this->_Mylast() - 1);
; 1313 : 		--this->_Mylast();
; 1314 : 		}
; 1315 :  #endif /* _ITERATOR_DEBUG_LEVEL == 2 */
; 1316 : 
; 1317 : 	template<class _Iter>
; 1318 : 		typename enable_if<_Is_iterator<_Iter>::value,
; 1319 : 			void>::type
; 1320 : 		assign(_Iter _First, _Iter _Last)
; 1321 : 		{	// assign [_First, _Last)
; 1322 : 		clear();
; 1323 : 		_Assign(_First, _Last, _Iter_cat(_First));
; 1324 : 		}
; 1325 : 
; 1326 : 	template<class _Iter>
; 1327 : 		void _Assign(_Iter _First, _Iter _Last,
; 1328 : 			input_iterator_tag)
; 1329 : 		{	// assign [_First, _Last), input iterators
; 1330 : 		for (; _First != _Last; ++_First)
; 1331 : 			emplace_back(*_First);
; 1332 : 		}
; 1333 : 
; 1334 : 	template<class _Iter>
; 1335 : 		void _Assign(_Iter _First, _Iter _Last,
; 1336 : 			forward_iterator_tag)
; 1337 : 		{	// assign [_First, _Last), forward iterators
; 1338 : 		size_type _Newsize = _STD distance(_First, _Last);
; 1339 : 
; 1340 : 		if (capacity() < _Newsize)
; 1341 : 			{	// need more room, try to get it
; 1342 : 			size_type _Newcapacity = _Grow_to(_Newsize);
; 1343 : 			_Tidy();
; 1344 : 			_Buy(_Newcapacity);
; 1345 : 			}
; 1346 : 
; 1347 : 		this->_Mylast() = _Ucopy(_First, _Last, this->_Myfirst());
; 1348 : 		}
; 1349 : 
; 1350 : 	void assign(size_type _Count, const value_type& _Val)
; 1351 : 		{	// assign _Count * _Val
; 1352 : 		clear();
; 1353 : 		insert(begin(), _Count, _Val);
; 1354 : 		}
; 1355 : 
; 1356 : 	iterator insert(const_iterator _Where, const _Ty& _Val)
; 1357 : 		{	// insert _Val at _Where
; 1358 : 		return (_Insert_n(_Where, (size_type)1, _Val));
; 1359 : 		}
; 1360 : 
; 1361 : 	iterator insert(const_iterator _Where, size_type _Count,
; 1362 : 		const _Ty& _Val)
; 1363 : 		{	// insert _Count * _Val at _Where
; 1364 : 		return (_Insert_n(_Where, _Count, _Val));
; 1365 : 		}
; 1366 : 
; 1367 : 	template<class _Iter>
; 1368 : 		typename enable_if<_Is_iterator<_Iter>::value,
; 1369 : 			iterator>::type
; 1370 : 		insert(const_iterator _Where, _Iter _First, _Iter _Last)
; 1371 : 		{	// insert [_First, _Last) at _Where
; 1372 : 		size_type _Off = _VIPTR(_Where) - this->_Myfirst();
; 1373 : 		_Insert(_Where, _First, _Last, _Iter_cat(_First));
; 1374 : 		return (begin() + _Off);
; 1375 : 		}
; 1376 : 
; 1377 : 	template<class _Iter>
; 1378 : 		void _Insert(const_iterator _Where,
; 1379 : 			_Iter _First, _Iter _Last,
; 1380 : 				input_iterator_tag)
; 1381 : 		{	// insert [_First, _Last) at _Where, input iterators
; 1382 : 		size_type _Off = _VIPTR(_Where) - this->_Myfirst();
; 1383 : 
; 1384 :  #if _ITERATOR_DEBUG_LEVEL == 2
; 1385 : 		if (size() < _Off)
; 1386 : 			_DEBUG_ERROR("vector insert iterator outside range");
; 1387 :  #endif /* _ITERATOR_DEBUG_LEVEL == 2 */
; 1388 : 
; 1389 : 		if (_First != _Last)
; 1390 : 			{	// worth doing, gather at end and rotate into place
; 1391 : 			size_type _Oldsize = size();
; 1392 : 
; 1393 : 			_TRY_BEGIN
; 1394 : 			for (; _First != _Last; ++_First)
; 1395 : 				push_back(*_First);	// append
; 1396 : 
; 1397 : 			_CATCH_ALL
; 1398 : 			erase(begin() + _Oldsize, end());
; 1399 : 			_RERAISE;
; 1400 : 			_CATCH_END
; 1401 : 
; 1402 : 			_STD rotate(begin() + _Off, begin() + _Oldsize, end());
; 1403 : 			}
; 1404 : 		}
; 1405 : 
; 1406 : 	template<class _Iter>
; 1407 : 		void _Insert(const_iterator _Where,
; 1408 : 			_Iter _First, _Iter _Last,
; 1409 : 				forward_iterator_tag)
; 1410 : 		{	// insert [_First, _Last) at _Where, forward iterators
; 1411 :  #if _ITERATOR_DEBUG_LEVEL == 2
; 1412 : 		if (_VICONT(_Where) != &this->_Get_data()
; 1413 : 			|| _VIPTR(_Where) < this->_Myfirst()
; 1414 : 			|| this->_Mylast() < _VIPTR(_Where))
; 1415 : 			_DEBUG_ERROR("vector insert iterator outside range");
; 1416 : 		_DEBUG_RANGE(_First, _Last);
; 1417 :  #endif /* _ITERATOR_DEBUG_LEVEL == 2 */
; 1418 : 
; 1419 : 		size_type _Count = 0;
; 1420 : 		_Distance(_First, _Last, _Count);
; 1421 : 
; 1422 : 		if (_Count == 0)
; 1423 : 			;
; 1424 : 		else if (_Unused_capacity() < _Count)
; 1425 : 			{	// not enough room, reallocate
; 1426 : 			if (max_size() - size() < _Count)
; 1427 : 				_Xlen();	// result too long
; 1428 : 
; 1429 : 			size_type _Capacity = _Grow_to(size() + _Count);
; 1430 : 			pointer _Newvec = this->_Getal().allocate(_Capacity);
; 1431 : 			pointer _Ptr = _Newvec;
; 1432 : 
; 1433 : 			_TRY_BEGIN
; 1434 : 			_Ptr = _Umove(this->_Myfirst(), _VIPTR(_Where),
; 1435 : 				_Newvec);	// copy prefix
; 1436 : 			_Ptr = _Ucopy(_First, _Last, _Ptr);	// add new stuff
; 1437 : 			_Umove(_VIPTR(_Where), this->_Mylast(),
; 1438 : 				_Ptr);	// copy suffix
; 1439 : 			_CATCH_ALL
; 1440 : 			_Destroy(_Newvec, _Ptr);
; 1441 : 			this->_Getal().deallocate(_Newvec, _Capacity);
; 1442 : 			_RERAISE;
; 1443 : 			_CATCH_END
; 1444 : 
; 1445 : 			_Count += size();
; 1446 : 			if (this->_Myfirst() != pointer())
; 1447 : 				{	// destroy and deallocate old array
; 1448 : 				_Destroy(this->_Myfirst(), this->_Mylast());
; 1449 : 				this->_Getal().deallocate(this->_Myfirst(),
; 1450 : 					this->_Myend() - this->_Myfirst());
; 1451 : 				}
; 1452 : 
; 1453 : 			this->_Orphan_all();
; 1454 : 			this->_Myend() = _Newvec + _Capacity;
; 1455 : 			this->_Mylast() = _Newvec + _Count;
; 1456 : 			this->_Myfirst() = _Newvec;
; 1457 : 			}
; 1458 : 		else
; 1459 : 			{	// new stuff fits, append and rotate into place
; 1460 : 			_Ucopy(_First, _Last, this->_Mylast());
; 1461 : 			_STD rotate(_VIPTR(_Where), this->_Mylast(),
; 1462 : 				this->_Mylast() + _Count);
; 1463 : 			this->_Mylast() += _Count;
; 1464 : 			_Orphan_range(_VIPTR(_Where), this->_Mylast());
; 1465 : 			}
; 1466 : 		}
; 1467 : 
; 1468 :  #if _ITERATOR_DEBUG_LEVEL == 2
; 1469 : 	iterator erase(const_iterator _Where)
; 1470 : 		{	// erase element at where
; 1471 : 		if (_VICONT(_Where) != &this->_Get_data()
; 1472 : 			|| _VIPTR(_Where) < this->_Myfirst()
; 1473 : 			|| this->_Mylast() <= _VIPTR(_Where))
; 1474 : 			_DEBUG_ERROR("vector erase iterator outside range");
; 1475 : 		_Move(_VIPTR(_Where) + 1, this->_Mylast(), _VIPTR(_Where));
; 1476 : 		_Destroy(this->_Mylast() - 1, this->_Mylast());
; 1477 : 		_Orphan_range(_VIPTR(_Where), this->_Mylast());
; 1478 : 		--this->_Mylast();
; 1479 : 		return (_Make_iter(_Where));
; 1480 : 		}
; 1481 : 
; 1482 :  #else /* _ITERATOR_DEBUG_LEVEL == 2 */
; 1483 : 	iterator erase(const_iterator _Where)
; 1484 : 		{	// erase element at where
; 1485 : 		_Move(_VIPTR(_Where) + 1, this->_Mylast(),
; 1486 : 			_VIPTR(_Where));
; 1487 : 		_Destroy(this->_Mylast() - 1, this->_Mylast());
; 1488 : 		--this->_Mylast();
; 1489 : 		return (_Make_iter(_Where));
; 1490 : 		}
; 1491 :  #endif /* _ITERATOR_DEBUG_LEVEL == 2 */
; 1492 : 
; 1493 : 	iterator erase(const_iterator _First_arg,
; 1494 : 		const_iterator _Last_arg)
; 1495 : 		{	// erase [_First, _Last)
; 1496 : 		if (_First_arg == begin() && _Last_arg == end())
; 1497 : 			clear();
; 1498 : 		else if (_First_arg != _Last_arg)
; 1499 : 			{	// clear partial
; 1500 : 			iterator _First = _Make_iter(_First_arg);
; 1501 : 			iterator _Last = _Make_iter(_Last_arg);
; 1502 : 
; 1503 : 			if (_First != _Last)
; 1504 : 				{	// worth doing, copy down over hole
; 1505 :  #if _ITERATOR_DEBUG_LEVEL == 2
; 1506 : 				if (_Last < _First || _VICONT(_First) != &this->_Get_data()
; 1507 : 					|| _VIPTR(_First) < this->_Myfirst()
; 1508 : 					|| this->_Mylast() < _VIPTR(_Last))
; 1509 : 					_DEBUG_ERROR("vector erase iterator outside range");
; 1510 : 				pointer _Ptr = _Move(_VIPTR(_Last), this->_Mylast(),
; 1511 : 					_VIPTR(_First));
; 1512 : 				_Orphan_range(_VIPTR(_First), this->_Mylast());
; 1513 : 
; 1514 :  #else /* _ITERATOR_DEBUG_LEVEL == 2 */
; 1515 : 				pointer _Ptr = _Move(_VIPTR(_Last), this->_Mylast(),
; 1516 : 					_VIPTR(_First));
; 1517 :  #endif /* _ITERATOR_DEBUG_LEVEL == 2 */
; 1518 : 
; 1519 : 				_Destroy(_Ptr, this->_Mylast());
; 1520 : 				this->_Mylast() = _Ptr;
; 1521 : 				}
; 1522 : 			}
; 1523 : 		return (_Make_iter(_First_arg));
; 1524 : 		}
; 1525 : 
; 1526 : 	void _Pop_back_n(size_type _Count)
; 1527 : 		{	// erase _Count elements at end
; 1528 : 		pointer _Ptr = this->_Mylast() - _Count;
; 1529 : 
; 1530 :  #if _ITERATOR_DEBUG_LEVEL == 2
; 1531 : 		_Orphan_range(_Ptr, this->_Mylast());
; 1532 :  #endif /* _ITERATOR_DEBUG_LEVEL == 2 */
; 1533 : 
; 1534 : 		_Destroy(_Ptr, this->_Mylast());
; 1535 : 		this->_Mylast() = _Ptr;
; 1536 : 		}
; 1537 : 
; 1538 : 	void clear() _NOEXCEPT
; 1539 : 		{	// erase all
; 1540 : 		this->_Orphan_all();
; 1541 : 		_Destroy(this->_Myfirst(), this->_Mylast());
; 1542 : 		this->_Mylast() = this->_Myfirst();
; 1543 : 		}
; 1544 : 
; 1545 : 	void swap(_Myt& _Right)
; 1546 : 		_NOEXCEPT_OP(_Alty::propagate_on_container_swap::value
; 1547 : 			|| _Alty::is_always_equal::value)
; 1548 : 		{	// exchange contents with _Right
; 1549 : 		if (this == &_Right)
; 1550 : 			;	// same object, do nothing
; 1551 : 		else if (this->_Getal() == _Right._Getal())
; 1552 : 			{	// same allocator, swap control information
; 1553 : 			this->_Swap_all(_Right);
; 1554 : 			_Swap_adl(this->_Myfirst(), _Right._Myfirst());
; 1555 : 			_Swap_adl(this->_Mylast(), _Right._Mylast());
; 1556 : 			_Swap_adl(this->_Myend(), _Right._Myend());
; 1557 : 			}
; 1558 : 
; 1559 : 		else if (_Alty::propagate_on_container_swap::value)
; 1560 : 			{	// swap allocators and control information
; 1561 : 			this->_Swap_alloc(_Right);
; 1562 : 			_Swap_adl(this->_Myfirst(), _Right._Myfirst());
; 1563 : 			_Swap_adl(this->_Mylast(), _Right._Mylast());
; 1564 : 			_Swap_adl(this->_Myend(), _Right._Myend());
; 1565 : 			}
; 1566 : 
; 1567 : 		else
; 1568 : 			{	// containers are incompatible
; 1569 :  #if _ITERATOR_DEBUG_LEVEL == 2
; 1570 : 			_DEBUG_ERROR("vector containers incompatible for swap");
; 1571 : 
; 1572 :  #else /* ITERATOR_DEBUG_LEVEL == 2 */
; 1573 : 			_XSTD terminate();
; 1574 :  #endif /* ITERATOR_DEBUG_LEVEL == 2 */
; 1575 : 			}
; 1576 : 		}
; 1577 : 
; 1578 : protected:
; 1579 : 	bool _Buy(size_type _Capacity)
; 1580 : 		{	// allocate array with _Capacity elements
; 1581 : 		this->_Myfirst() = pointer();
; 1582 : 		this->_Mylast() = pointer();
; 1583 : 		this->_Myend() = pointer();
; 1584 : 
; 1585 : 		if (_Capacity == 0)
; 1586 : 			return (false);
; 1587 : 		else if (max_size() < _Capacity)
; 1588 : 			_Xlen();	// result too long
; 1589 : 		else
; 1590 : 			{	// nonempty array, allocate storage
; 1591 : 			this->_Myfirst() = this->_Getal().allocate(_Capacity);
; 1592 : 			this->_Mylast() = this->_Myfirst();
; 1593 : 			this->_Myend() = this->_Myfirst() + _Capacity;
; 1594 : 			}
; 1595 : 		return (true);
; 1596 : 		}
; 1597 : 
; 1598 : 	void _Destroy(pointer _First, pointer _Last)
; 1599 : 		{	// destroy [_First, _Last) using allocator
; 1600 : 		_Destroy_range(_First, _Last, this->_Getal());
; 1601 : 		}
; 1602 : 
; 1603 : 	size_type _Grow_to(size_type _Count) const
; 1604 : 		{	// grow by 50% or at least to _Count
; 1605 : 		size_type _Capacity = capacity();
; 1606 : 
; 1607 : 		_Capacity = max_size() - _Capacity / 2 < _Capacity
; 1608 : 			? 0 : _Capacity + _Capacity / 2;	// try to grow by 50%
; 1609 : 		if (_Capacity < _Count)
; 1610 : 			_Capacity = _Count;
; 1611 : 		return (_Capacity);
; 1612 : 		}
; 1613 : 
; 1614 : 	bool _Inside(const value_type *_Ptr) const
; 1615 : 		{	// test if _Ptr points inside vector
; 1616 : 		return (_Ptr < this->_Mylast() && this->_Myfirst() <= _Ptr);
; 1617 : 		}
; 1618 : 
; 1619 : 	void _Reallocate(size_type _Count)
; 1620 : 		{	// move to array of exactly _Count elements
; 1621 : 		pointer _Ptr = this->_Getal().allocate(_Count);
; 1622 : 
; 1623 : 		_TRY_BEGIN
; 1624 : 		_Umove(this->_Myfirst(), this->_Mylast(), _Ptr);
; 1625 : 		_CATCH_ALL
; 1626 : 		this->_Getal().deallocate(_Ptr, _Count);
; 1627 : 		_RERAISE;
; 1628 : 		_CATCH_END
; 1629 : 
; 1630 : 		size_type _Size = size();
; 1631 : 		if (this->_Myfirst() != pointer())
; 1632 : 			{	// destroy and deallocate old array
; 1633 : 			_Destroy(this->_Myfirst(), this->_Mylast());
; 1634 : 			this->_Getal().deallocate(this->_Myfirst(),
; 1635 : 				this->_Myend() - this->_Myfirst());
; 1636 : 			}
; 1637 : 
; 1638 : 		this->_Orphan_all();
; 1639 : 		this->_Myend() = _Ptr + _Count;
; 1640 : 		this->_Mylast() = _Ptr + _Size;
; 1641 : 		this->_Myfirst() = _Ptr;
; 1642 : 		}
; 1643 : 
; 1644 : 	void _Reserve(size_type _Count)
; 1645 : 		{	// ensure room for _Count new elements, grow exponentially
; 1646 : 		if (_Unused_capacity() < _Count)
; 1647 : 			{	// need more room, try to get it
; 1648 : 			if (max_size() - size() < _Count)
; 1649 : 				_Xlen();
; 1650 : 			_Reallocate(_Grow_to(size() + _Count));
; 1651 : 			}
; 1652 : 		}
; 1653 : 
; 1654 : 	void _Tidy()
; 1655 : 		{	// free all storage
; 1656 : 		if (this->_Myfirst() != pointer())

  00007	8b 07		 mov	 eax, DWORD PTR [edi]
  00009	85 c0		 test	 eax, eax
  0000b	74 44		 je	 SHORT $LN4@vector
; File c:\program files (x86)\microsoft visual studio 14.0\vc\include\xmemory0

; 186  : 	_Destroy_range(_First, _Last, _Al, _Ptr_cat(_First, _Last));

  0000d	ff 75 fc	 push	 DWORD PTR __Cat$1[ebp]
  00010	57		 push	 edi
  00011	ff 77 04	 push	 DWORD PTR [edi+4]
  00014	50		 push	 eax
  00015	e8 00 00 00 00	 call	 ??$_Destroy_range@U?$_Wrap_alloc@V?$allocator@UZTLuaScriptMember@@@std@@@std@@@std@@YAXPAUZTLuaScriptMember@@0AAU?$_Wrap_alloc@V?$allocator@UZTLuaScriptMember@@@std@@@0@U_Nonscalar_ptr_iterator_tag@0@@Z ; std::_Destroy_range<std::_Wrap_alloc<std::allocator<ZTLuaScriptMember> > >
; File c:\program files (x86)\microsoft visual studio 14.0\vc\include\vector

; 1660 : 			this->_Getal().deallocate(this->_Myfirst(),

  0001a	8b 4f 08	 mov	 ecx, DWORD PTR [edi+8]
  0001d	b8 ab aa aa 2a	 mov	 eax, 715827883		; 2aaaaaabH
  00022	2b 0f		 sub	 ecx, DWORD PTR [edi]
; File c:\program files (x86)\microsoft visual studio 14.0\vc\include\xmemory0

; 186  : 	_Destroy_range(_First, _Last, _Al, _Ptr_cat(_First, _Last));

  00024	83 c4 10	 add	 esp, 16			; 00000010H
; File c:\program files (x86)\microsoft visual studio 14.0\vc\include\vector

; 1660 : 			this->_Getal().deallocate(this->_Myfirst(),

  00027	f7 e9		 imul	 ecx
; File c:\program files (x86)\microsoft visual studio 14.0\vc\include\xmemory0

; 909  : 		_Mybase::deallocate(_Ptr, _Count);

  00029	8b cf		 mov	 ecx, edi
; File c:\program files (x86)\microsoft visual studio 14.0\vc\include\vector

; 1660 : 			this->_Getal().deallocate(this->_Myfirst(),

  0002b	c1 fa 03	 sar	 edx, 3
  0002e	8b c2		 mov	 eax, edx
  00030	c1 e8 1f	 shr	 eax, 31			; 0000001fH
  00033	03 c2		 add	 eax, edx
; File c:\program files (x86)\microsoft visual studio 14.0\vc\include\xmemory0

; 909  : 		_Mybase::deallocate(_Ptr, _Count);

  00035	50		 push	 eax
  00036	ff 37		 push	 DWORD PTR [edi]
  00038	e8 00 00 00 00	 call	 ?deallocate@?$allocator@UZTLuaScriptMember@@@std@@QAEXPAUZTLuaScriptMember@@I@Z ; std::allocator<ZTLuaScriptMember>::deallocate
; File c:\program files (x86)\microsoft visual studio 14.0\vc\include\vector

; 1662 : 			this->_Myfirst() = pointer();

  0003d	c7 07 00 00 00
	00		 mov	 DWORD PTR [edi], 0

; 1663 : 			this->_Mylast() = pointer();

  00043	c7 47 04 00 00
	00 00		 mov	 DWORD PTR [edi+4], 0

; 1664 : 			this->_Myend() = pointer();

  0004a	c7 47 08 00 00
	00 00		 mov	 DWORD PTR [edi+8], 0
$LN4@vector:
  00051	5f		 pop	 edi

; 975  : 		_Tidy();
; 976  : 		}

  00052	8b e5		 mov	 esp, ebp
  00054	5d		 pop	 ebp
  00055	c3		 ret	 0
??1?$vector@UZTLuaScriptMember@@V?$allocator@UZTLuaScriptMember@@@std@@@std@@QAE@XZ ENDP ; std::vector<ZTLuaScriptMember,std::allocator<ZTLuaScriptMember> >::~vector<ZTLuaScriptMember,std::allocator<ZTLuaScriptMember> >
_TEXT	ENDS
; Function compile flags: /Ogtp
; File c:\program files (x86)\microsoft visual studio 14.0\vc\include\vector
;	COMDAT ??0?$vector@UZTLuaScriptMember@@V?$allocator@UZTLuaScriptMember@@@std@@@std@@QAE@XZ
_TEXT	SEGMENT
??0?$vector@UZTLuaScriptMember@@V?$allocator@UZTLuaScriptMember@@@std@@@std@@QAE@XZ PROC ; std::vector<ZTLuaScriptMember,std::allocator<ZTLuaScriptMember> >::vector<ZTLuaScriptMember,std::allocator<ZTLuaScriptMember> >, COMDAT
; _this$ = ecx

; 480  : 		_Myfirst = pointer();

  00000	c7 01 00 00 00
	00		 mov	 DWORD PTR [ecx], 0

; 707  : 		}

  00006	8b c1		 mov	 eax, ecx

; 481  : 		_Mylast = pointer();

  00008	c7 41 04 00 00
	00 00		 mov	 DWORD PTR [ecx+4], 0

; 482  : 		_Myend = pointer();

  0000f	c7 41 08 00 00
	00 00		 mov	 DWORD PTR [ecx+8], 0

; 707  : 		}

  00016	c3		 ret	 0
??0?$vector@UZTLuaScriptMember@@V?$allocator@UZTLuaScriptMember@@@std@@@std@@QAE@XZ ENDP ; std::vector<ZTLuaScriptMember,std::allocator<ZTLuaScriptMember> >::vector<ZTLuaScriptMember,std::allocator<ZTLuaScriptMember> >
_TEXT	ENDS
; Function compile flags: /Ogtp
; File c:\program files (x86)\microsoft visual studio 14.0\vc\include\xutility
;	COMDAT ?_Get_second@?$_Compressed_pair@U?$_Wrap_alloc@V?$allocator@UZTLuaScriptMember@@@std@@@std@@V?$_Vector_val@U?$_Simple_types@UZTLuaScriptMember@@@std@@@2@$00@std@@QAEAAV?$_Vector_val@U?$_Simple_types@UZTLuaScriptMember@@@std@@@2@XZ
_TEXT	SEGMENT
?_Get_second@?$_Compressed_pair@U?$_Wrap_alloc@V?$allocator@UZTLuaScriptMember@@@std@@@std@@V?$_Vector_val@U?$_Simple_types@UZTLuaScriptMember@@@std@@@2@$00@std@@QAEAAV?$_Vector_val@U?$_Simple_types@UZTLuaScriptMember@@@std@@@2@XZ PROC ; std::_Compressed_pair<std::_Wrap_alloc<std::allocator<ZTLuaScriptMember> >,std::_Vector_val<std::_Simple_types<ZTLuaScriptMember> >,1>::_Get_second, COMDAT
; _this$ = ecx

; 314  : 		return (_Myval2);

  00000	8b c1		 mov	 eax, ecx

; 315  : 		}

  00002	c3		 ret	 0
?_Get_second@?$_Compressed_pair@U?$_Wrap_alloc@V?$allocator@UZTLuaScriptMember@@@std@@@std@@V?$_Vector_val@U?$_Simple_types@UZTLuaScriptMember@@@std@@@2@$00@std@@QAEAAV?$_Vector_val@U?$_Simple_types@UZTLuaScriptMember@@@std@@@2@XZ ENDP ; std::_Compressed_pair<std::_Wrap_alloc<std::allocator<ZTLuaScriptMember> >,std::_Vector_val<std::_Simple_types<ZTLuaScriptMember> >,1>::_Get_second
_TEXT	ENDS
; Function compile flags: /Ogtp
; File c:\program files (x86)\microsoft visual studio 14.0\vc\include\xutility
;	COMDAT ?_Get_first@?$_Compressed_pair@U?$_Wrap_alloc@V?$allocator@UZTLuaScriptMember@@@std@@@std@@V?$_Vector_val@U?$_Simple_types@UZTLuaScriptMember@@@std@@@2@$00@std@@QAEAAU?$_Wrap_alloc@V?$allocator@UZTLuaScriptMember@@@std@@@2@XZ
_TEXT	SEGMENT
?_Get_first@?$_Compressed_pair@U?$_Wrap_alloc@V?$allocator@UZTLuaScriptMember@@@std@@@std@@V?$_Vector_val@U?$_Simple_types@UZTLuaScriptMember@@@std@@@2@$00@std@@QAEAAU?$_Wrap_alloc@V?$allocator@UZTLuaScriptMember@@@std@@@2@XZ PROC ; std::_Compressed_pair<std::_Wrap_alloc<std::allocator<ZTLuaScriptMember> >,std::_Vector_val<std::_Simple_types<ZTLuaScriptMember> >,1>::_Get_first, COMDAT
; _this$ = ecx

; 294  : 		return (*this);

  00000	8b c1		 mov	 eax, ecx

; 295  : 		}

  00002	c3		 ret	 0
?_Get_first@?$_Compressed_pair@U?$_Wrap_alloc@V?$allocator@UZTLuaScriptMember@@@std@@@std@@V?$_Vector_val@U?$_Simple_types@UZTLuaScriptMember@@@std@@@2@$00@std@@QAEAAU?$_Wrap_alloc@V?$allocator@UZTLuaScriptMember@@@std@@@2@XZ ENDP ; std::_Compressed_pair<std::_Wrap_alloc<std::allocator<ZTLuaScriptMember> >,std::_Vector_val<std::_Simple_types<ZTLuaScriptMember> >,1>::_Get_first
_TEXT	ENDS
; Function compile flags: /Ogtp
; File c:\program files (x86)\microsoft visual studio 14.0\vc\include\vector
;	COMDAT ??0?$_Vector_val@U?$_Simple_types@UZTLuaScriptMember@@@std@@@std@@QAE@XZ
_TEXT	SEGMENT
??0?$_Vector_val@U?$_Simple_types@UZTLuaScriptMember@@@std@@@std@@QAE@XZ PROC ; std::_Vector_val<std::_Simple_types<ZTLuaScriptMember> >::_Vector_val<std::_Simple_types<ZTLuaScriptMember> >, COMDAT
; _this$ = ecx

; 479  : 		{	// initialize values
; 480  : 		_Myfirst = pointer();

  00000	c7 01 00 00 00
	00		 mov	 DWORD PTR [ecx], 0

; 481  : 		_Mylast = pointer();
; 482  : 		_Myend = pointer();
; 483  : 		}

  00006	8b c1		 mov	 eax, ecx
  00008	c7 41 04 00 00
	00 00		 mov	 DWORD PTR [ecx+4], 0
  0000f	c7 41 08 00 00
	00 00		 mov	 DWORD PTR [ecx+8], 0
  00016	c3		 ret	 0
??0?$_Vector_val@U?$_Simple_types@UZTLuaScriptMember@@@std@@@std@@QAE@XZ ENDP ; std::_Vector_val<std::_Simple_types<ZTLuaScriptMember> >::_Vector_val<std::_Simple_types<ZTLuaScriptMember> >
_TEXT	ENDS
; Function compile flags: /Ogtp
; File c:\program files (x86)\microsoft visual studio 14.0\vc\include\vector
;	COMDAT ?_Myend@?$_Vector_alloc@U?$_Vec_base_types@UZTLuaScriptMember@@V?$allocator@UZTLuaScriptMember@@@std@@@std@@@std@@QAEAAPAUZTLuaScriptMember@@XZ
_TEXT	SEGMENT
?_Myend@?$_Vector_alloc@U?$_Vec_base_types@UZTLuaScriptMember@@V?$allocator@UZTLuaScriptMember@@@std@@@std@@@std@@QAEAAPAUZTLuaScriptMember@@XZ PROC ; std::_Vector_alloc<std::_Vec_base_types<ZTLuaScriptMember,std::allocator<ZTLuaScriptMember> > >::_Myend, COMDAT
; _this$ = ecx

; 662  : 		return (_Get_data()._Myend);

  00000	8d 41 08	 lea	 eax, DWORD PTR [ecx+8]

; 663  : 		}

  00003	c3		 ret	 0
?_Myend@?$_Vector_alloc@U?$_Vec_base_types@UZTLuaScriptMember@@V?$allocator@UZTLuaScriptMember@@@std@@@std@@@std@@QAEAAPAUZTLuaScriptMember@@XZ ENDP ; std::_Vector_alloc<std::_Vec_base_types<ZTLuaScriptMember,std::allocator<ZTLuaScriptMember> > >::_Myend
_TEXT	ENDS
; Function compile flags: /Ogtp
; File c:\program files (x86)\microsoft visual studio 14.0\vc\include\vector
;	COMDAT ?_Mylast@?$_Vector_alloc@U?$_Vec_base_types@UZTLuaScriptMember@@V?$allocator@UZTLuaScriptMember@@@std@@@std@@@std@@QAEAAPAUZTLuaScriptMember@@XZ
_TEXT	SEGMENT
?_Mylast@?$_Vector_alloc@U?$_Vec_base_types@UZTLuaScriptMember@@V?$allocator@UZTLuaScriptMember@@@std@@@std@@@std@@QAEAAPAUZTLuaScriptMember@@XZ PROC ; std::_Vector_alloc<std::_Vec_base_types<ZTLuaScriptMember,std::allocator<ZTLuaScriptMember> > >::_Mylast, COMDAT
; _this$ = ecx

; 652  : 		return (_Get_data()._Mylast);

  00000	8d 41 04	 lea	 eax, DWORD PTR [ecx+4]

; 653  : 		}

  00003	c3		 ret	 0
?_Mylast@?$_Vector_alloc@U?$_Vec_base_types@UZTLuaScriptMember@@V?$allocator@UZTLuaScriptMember@@@std@@@std@@@std@@QAEAAPAUZTLuaScriptMember@@XZ ENDP ; std::_Vector_alloc<std::_Vec_base_types<ZTLuaScriptMember,std::allocator<ZTLuaScriptMember> > >::_Mylast
_TEXT	ENDS
; Function compile flags: /Ogtp
; File c:\program files (x86)\microsoft visual studio 14.0\vc\include\vector
;	COMDAT ?_Myfirst@?$_Vector_alloc@U?$_Vec_base_types@UZTLuaScriptMember@@V?$allocator@UZTLuaScriptMember@@@std@@@std@@@std@@QAEAAPAUZTLuaScriptMember@@XZ
_TEXT	SEGMENT
?_Myfirst@?$_Vector_alloc@U?$_Vec_base_types@UZTLuaScriptMember@@V?$allocator@UZTLuaScriptMember@@@std@@@std@@@std@@QAEAAPAUZTLuaScriptMember@@XZ PROC ; std::_Vector_alloc<std::_Vec_base_types<ZTLuaScriptMember,std::allocator<ZTLuaScriptMember> > >::_Myfirst, COMDAT
; _this$ = ecx

; 642  : 		return (_Get_data()._Myfirst);

  00000	8b c1		 mov	 eax, ecx

; 643  : 		}

  00002	c3		 ret	 0
?_Myfirst@?$_Vector_alloc@U?$_Vec_base_types@UZTLuaScriptMember@@V?$allocator@UZTLuaScriptMember@@@std@@@std@@@std@@QAEAAPAUZTLuaScriptMember@@XZ ENDP ; std::_Vector_alloc<std::_Vec_base_types<ZTLuaScriptMember,std::allocator<ZTLuaScriptMember> > >::_Myfirst
_TEXT	ENDS
; Function compile flags: /Ogtp
; File c:\program files (x86)\microsoft visual studio 14.0\vc\include\vector
;	COMDAT ?_Get_data@?$_Vector_alloc@U?$_Vec_base_types@UZTLuaScriptMember@@V?$allocator@UZTLuaScriptMember@@@std@@@std@@@std@@QAEAAV?$_Vector_val@U?$_Simple_types@UZTLuaScriptMember@@@std@@@2@XZ
_TEXT	SEGMENT
?_Get_data@?$_Vector_alloc@U?$_Vec_base_types@UZTLuaScriptMember@@V?$allocator@UZTLuaScriptMember@@@std@@@std@@@std@@QAEAAV?$_Vector_val@U?$_Simple_types@UZTLuaScriptMember@@@std@@@2@XZ PROC ; std::_Vector_alloc<std::_Vec_base_types<ZTLuaScriptMember,std::allocator<ZTLuaScriptMember> > >::_Get_data, COMDAT
; _this$ = ecx

; 632  : 		return (_Mypair._Get_second());

  00000	8b c1		 mov	 eax, ecx

; 633  : 		}

  00002	c3		 ret	 0
?_Get_data@?$_Vector_alloc@U?$_Vec_base_types@UZTLuaScriptMember@@V?$allocator@UZTLuaScriptMember@@@std@@@std@@@std@@QAEAAV?$_Vector_val@U?$_Simple_types@UZTLuaScriptMember@@@std@@@2@XZ ENDP ; std::_Vector_alloc<std::_Vec_base_types<ZTLuaScriptMember,std::allocator<ZTLuaScriptMember> > >::_Get_data
_TEXT	ENDS
; Function compile flags: /Ogtp
; File c:\program files (x86)\microsoft visual studio 14.0\vc\include\vector
;	COMDAT ?_Getal@?$_Vector_alloc@U?$_Vec_base_types@UZTLuaScriptMember@@V?$allocator@UZTLuaScriptMember@@@std@@@std@@@std@@QAEAAU?$_Wrap_alloc@V?$allocator@UZTLuaScriptMember@@@std@@@2@XZ
_TEXT	SEGMENT
?_Getal@?$_Vector_alloc@U?$_Vec_base_types@UZTLuaScriptMember@@V?$allocator@UZTLuaScriptMember@@@std@@@std@@@std@@QAEAAU?$_Wrap_alloc@V?$allocator@UZTLuaScriptMember@@@std@@@2@XZ PROC ; std::_Vector_alloc<std::_Vec_base_types<ZTLuaScriptMember,std::allocator<ZTLuaScriptMember> > >::_Getal, COMDAT
; _this$ = ecx

; 622  : 		return (_Mypair._Get_first());

  00000	8b c1		 mov	 eax, ecx

; 623  : 		}

  00002	c3		 ret	 0
?_Getal@?$_Vector_alloc@U?$_Vec_base_types@UZTLuaScriptMember@@V?$allocator@UZTLuaScriptMember@@@std@@@std@@@std@@QAEAAU?$_Wrap_alloc@V?$allocator@UZTLuaScriptMember@@@std@@@2@XZ ENDP ; std::_Vector_alloc<std::_Vec_base_types<ZTLuaScriptMember,std::allocator<ZTLuaScriptMember> > >::_Getal
_TEXT	ENDS
; Function compile flags: /Ogtp
; File c:\program files (x86)\microsoft visual studio 14.0\vc\include\vector
;	COMDAT ?_Orphan_all@?$_Vector_alloc@U?$_Vec_base_types@UZTLuaScriptMember@@V?$allocator@UZTLuaScriptMember@@@std@@@std@@@std@@QAEXXZ
_TEXT	SEGMENT
?_Orphan_all@?$_Vector_alloc@U?$_Vec_base_types@UZTLuaScriptMember@@V?$allocator@UZTLuaScriptMember@@@std@@@std@@@std@@QAEXXZ PROC ; std::_Vector_alloc<std::_Vec_base_types<ZTLuaScriptMember,std::allocator<ZTLuaScriptMember> > >::_Orphan_all, COMDAT
; _this$ = ecx

; 612  : 		_Get_data()._Orphan_all();
; 613  : 		}

  00000	c3		 ret	 0
?_Orphan_all@?$_Vector_alloc@U?$_Vec_base_types@UZTLuaScriptMember@@V?$allocator@UZTLuaScriptMember@@@std@@@std@@@std@@QAEXXZ ENDP ; std::_Vector_alloc<std::_Vec_base_types<ZTLuaScriptMember,std::allocator<ZTLuaScriptMember> > >::_Orphan_all
_TEXT	ENDS
; Function compile flags: /Ogtp
; File c:\program files (x86)\microsoft visual studio 14.0\vc\include\vector
;	COMDAT ??0?$_Vector_alloc@U?$_Vec_base_types@UZTLuaScriptMember@@V?$allocator@UZTLuaScriptMember@@@std@@@std@@@std@@QAE@ABV?$allocator@UZTLuaScriptMember@@@1@@Z
_TEXT	SEGMENT
__Al$ = 8						; size = 4
??0?$_Vector_alloc@U?$_Vec_base_types@UZTLuaScriptMember@@V?$allocator@UZTLuaScriptMember@@@std@@@std@@@std@@QAE@ABV?$allocator@UZTLuaScriptMember@@@1@@Z PROC ; std::_Vector_alloc<std::_Vec_base_types<ZTLuaScriptMember,std::allocator<ZTLuaScriptMember> > >::_Vector_alloc<std::_Vec_base_types<ZTLuaScriptMember,std::allocator<ZTLuaScriptMember> > >, COMDAT
; _this$ = ecx

; 480  : 		_Myfirst = pointer();

  00000	c7 01 00 00 00
	00		 mov	 DWORD PTR [ecx], 0

; 515  : 		}

  00006	8b c1		 mov	 eax, ecx

; 481  : 		_Mylast = pointer();

  00008	c7 41 04 00 00
	00 00		 mov	 DWORD PTR [ecx+4], 0

; 482  : 		_Myend = pointer();

  0000f	c7 41 08 00 00
	00 00		 mov	 DWORD PTR [ecx+8], 0

; 515  : 		}

  00016	c2 04 00	 ret	 4
??0?$_Vector_alloc@U?$_Vec_base_types@UZTLuaScriptMember@@V?$allocator@UZTLuaScriptMember@@@std@@@std@@@std@@QAE@ABV?$allocator@UZTLuaScriptMember@@@1@@Z ENDP ; std::_Vector_alloc<std::_Vec_base_types<ZTLuaScriptMember,std::allocator<ZTLuaScriptMember> > >::_Vector_alloc<std::_Vec_base_types<ZTLuaScriptMember,std::allocator<ZTLuaScriptMember> > >
_TEXT	ENDS
; Function compile flags: /Ogtp
; File c:\program files (x86)\microsoft visual studio 14.0\vc\include\xmemory0
;	COMDAT ?deallocate@?$_Wrap_alloc@V?$allocator@UZTLuaScriptMember@@@std@@@std@@QAEXPAUZTLuaScriptMember@@I@Z
_TEXT	SEGMENT
__Ptr$ = 8						; size = 4
__Count$ = 12						; size = 4
?deallocate@?$_Wrap_alloc@V?$allocator@UZTLuaScriptMember@@@std@@@std@@QAEXPAUZTLuaScriptMember@@I@Z PROC ; std::_Wrap_alloc<std::allocator<ZTLuaScriptMember> >::deallocate, COMDAT
; _this$ = ecx

; 908  : 		{	// deallocate object at _Ptr, ignore size

  00000	55		 push	 ebp
  00001	8b ec		 mov	 ebp, esp

; 910  : 		}

  00003	5d		 pop	 ebp

; 909  : 		_Mybase::deallocate(_Ptr, _Count);

  00004	e9 00 00 00 00	 jmp	 ?deallocate@?$allocator@UZTLuaScriptMember@@@std@@QAEXPAUZTLuaScriptMember@@I@Z ; std::allocator<ZTLuaScriptMember>::deallocate
?deallocate@?$_Wrap_alloc@V?$allocator@UZTLuaScriptMember@@@std@@@std@@QAEXPAUZTLuaScriptMember@@I@Z ENDP ; std::_Wrap_alloc<std::allocator<ZTLuaScriptMember> >::deallocate
_TEXT	ENDS
; Function compile flags: /Ogtp
; File c:\program files (x86)\microsoft visual studio 14.0\vc\include\xmemory0
;	COMDAT ??0?$_Wrap_alloc@V?$allocator@UZTLuaScriptMember@@@std@@@std@@QAE@ABV?$allocator@UZTLuaScriptMember@@@1@@Z
_TEXT	SEGMENT
__Right$ = 8						; size = 4
??0?$_Wrap_alloc@V?$allocator@UZTLuaScriptMember@@@std@@@std@@QAE@ABV?$allocator@UZTLuaScriptMember@@@1@@Z PROC ; std::_Wrap_alloc<std::allocator<ZTLuaScriptMember> >::_Wrap_alloc<std::allocator<ZTLuaScriptMember> >, COMDAT
; _this$ = ecx

; 858  : 		}

  00000	8b c1		 mov	 eax, ecx
  00002	c2 04 00	 ret	 4
??0?$_Wrap_alloc@V?$allocator@UZTLuaScriptMember@@@std@@@std@@QAE@ABV?$allocator@UZTLuaScriptMember@@@1@@Z ENDP ; std::_Wrap_alloc<std::allocator<ZTLuaScriptMember> >::_Wrap_alloc<std::allocator<ZTLuaScriptMember> >
_TEXT	ENDS
; Function compile flags: /Ogtp
; File c:\program files (x86)\microsoft visual studio 14.0\vc\include\xmemory0
;	COMDAT ?deallocate@?$allocator@UZTLuaScriptMember@@@std@@QAEXPAUZTLuaScriptMember@@I@Z
_TEXT	SEGMENT
__Ptr$ = 8						; size = 4
__Count$ = 12						; size = 4
?deallocate@?$allocator@UZTLuaScriptMember@@@std@@QAEXPAUZTLuaScriptMember@@I@Z PROC ; std::allocator<ZTLuaScriptMember>::deallocate, COMDAT
; _this$ = ecx

; 637  : 		{	// deallocate object at _Ptr

  00000	55		 push	 ebp
  00001	8b ec		 mov	 ebp, esp

; 100  : 	_SCL_SECURE_ALWAYS_VALIDATE(_Count <= (size_t)(-1) / _Sz);

  00003	8b 45 0c	 mov	 eax, DWORD PTR __Count$[ebp]

; 638  : 		_Deallocate(_Ptr, _Count, sizeof (_Ty));

  00006	8b 4d 08	 mov	 ecx, DWORD PTR __Ptr$[ebp]

; 100  : 	_SCL_SECURE_ALWAYS_VALIDATE(_Count <= (size_t)(-1) / _Sz);

  00009	3d 55 55 55 05	 cmp	 eax, 89478485		; 05555555H
  0000e	77 34		 ja	 SHORT $LN13@deallocate

; 101  : 	const size_t _User_size = _Count * _Sz;

  00010	8d 04 40	 lea	 eax, DWORD PTR [eax+eax*2]
  00013	c1 e0 04	 shl	 eax, 4

; 102  : 	if (_BIG_ALLOCATION_THRESHOLD <= _User_size)

  00016	3d 00 10 00 00	 cmp	 eax, 4096		; 00001000H
  0001b	72 1a		 jb	 SHORT $LN5@deallocate

; 103  : 		{	// deallocate large block
; 104  : 		const uintptr_t _Ptr_user = reinterpret_cast<uintptr_t>(_Ptr);
; 105  : 		_SCL_SECURE_ALWAYS_VALIDATE(

  0001d	f6 c1 1f	 test	 cl, 31			; 0000001fH
  00020	75 27		 jne	 SHORT $LN15@deallocate

; 106  : 			(_Ptr_user & (_BIG_ALLOCATION_ALIGNMENT - 1)) == 0);
; 107  : 		const uintptr_t _Ptr_ptr = _Ptr_user - sizeof(void *);
; 108  : 		const uintptr_t _Ptr_container =
; 109  : 			*reinterpret_cast<uintptr_t *>(_Ptr_ptr);

  00022	8b 41 fc	 mov	 eax, DWORD PTR [ecx-4]

; 110  : 
; 111  :  #ifdef _DEBUG
; 112  : 		// If the following asserts, it likely means that we are performing
; 113  : 		// an aligned delete on memory coming from an unaligned allocation.
; 114  : 		_SCL_SECURE_ALWAYS_VALIDATE(
; 115  : 			reinterpret_cast<uintptr_t *>(_Ptr_ptr)[-1] ==
; 116  : 				_BIG_ALLOCATION_SENTINEL);
; 117  :  #endif /* _DEBUG */
; 118  : 
; 119  : 		// Extra paranoia on aligned allocation/deallocation
; 120  : 		_SCL_SECURE_ALWAYS_VALIDATE(_Ptr_container < _Ptr_user);

  00025	3b c1		 cmp	 eax, ecx
  00027	73 25		 jae	 SHORT $LN16@deallocate

; 121  : 
; 122  :  #ifdef _DEBUG
; 123  : 		_SCL_SECURE_ALWAYS_VALIDATE(2 * sizeof(void *)
; 124  : 			<= _Ptr_user - _Ptr_container);
; 125  : 
; 126  :  #else /* _DEBUG */
; 127  : 		_SCL_SECURE_ALWAYS_VALIDATE(sizeof(void *)

  00029	2b c8		 sub	 ecx, eax
  0002b	83 f9 04	 cmp	 ecx, 4
  0002e	72 23		 jb	 SHORT $LN17@deallocate

; 128  : 			<= _Ptr_user - _Ptr_container);
; 129  :  #endif /* _DEBUG */
; 130  : 
; 131  : 		_SCL_SECURE_ALWAYS_VALIDATE(_Ptr_user - _Ptr_container

  00030	83 f9 23	 cmp	 ecx, 35			; 00000023H
  00033	77 23		 ja	 SHORT $LN18@deallocate

; 132  : 			<= _NON_USER_SIZE);
; 133  : 
; 134  : 		_Ptr = reinterpret_cast<void *>(_Ptr_container);

  00035	8b c8		 mov	 ecx, eax
$LN5@deallocate:

; 135  : 		}
; 136  :  #endif /* defined(_M_IX86) || defined(_M_X64) */
; 137  : 
; 138  : 	::operator delete(_Ptr);

  00037	51		 push	 ecx
  00038	e8 00 00 00 00	 call	 ??3@YAXPAX@Z		; operator delete
  0003d	83 c4 04	 add	 esp, 4

; 639  : 		}

  00040	5d		 pop	 ebp
  00041	c2 08 00	 ret	 8
$LN13@deallocate:

; 100  : 	_SCL_SECURE_ALWAYS_VALIDATE(_Count <= (size_t)(-1) / _Sz);

  00044	e8 00 00 00 00	 call	 __invalid_parameter_noinfo_noreturn
$LN19@deallocate:
$LN15@deallocate:

; 103  : 		{	// deallocate large block
; 104  : 		const uintptr_t _Ptr_user = reinterpret_cast<uintptr_t>(_Ptr);
; 105  : 		_SCL_SECURE_ALWAYS_VALIDATE(

  00049	e8 00 00 00 00	 call	 __invalid_parameter_noinfo_noreturn
$LN20@deallocate:
$LN16@deallocate:

; 110  : 
; 111  :  #ifdef _DEBUG
; 112  : 		// If the following asserts, it likely means that we are performing
; 113  : 		// an aligned delete on memory coming from an unaligned allocation.
; 114  : 		_SCL_SECURE_ALWAYS_VALIDATE(
; 115  : 			reinterpret_cast<uintptr_t *>(_Ptr_ptr)[-1] ==
; 116  : 				_BIG_ALLOCATION_SENTINEL);
; 117  :  #endif /* _DEBUG */
; 118  : 
; 119  : 		// Extra paranoia on aligned allocation/deallocation
; 120  : 		_SCL_SECURE_ALWAYS_VALIDATE(_Ptr_container < _Ptr_user);

  0004e	e8 00 00 00 00	 call	 __invalid_parameter_noinfo_noreturn
$LN21@deallocate:
$LN17@deallocate:

; 121  : 
; 122  :  #ifdef _DEBUG
; 123  : 		_SCL_SECURE_ALWAYS_VALIDATE(2 * sizeof(void *)
; 124  : 			<= _Ptr_user - _Ptr_container);
; 125  : 
; 126  :  #else /* _DEBUG */
; 127  : 		_SCL_SECURE_ALWAYS_VALIDATE(sizeof(void *)

  00053	e8 00 00 00 00	 call	 __invalid_parameter_noinfo_noreturn
$LN22@deallocate:
$LN18@deallocate:

; 128  : 			<= _Ptr_user - _Ptr_container);
; 129  :  #endif /* _DEBUG */
; 130  : 
; 131  : 		_SCL_SECURE_ALWAYS_VALIDATE(_Ptr_user - _Ptr_container

  00058	e8 00 00 00 00	 call	 __invalid_parameter_noinfo_noreturn
$LN23@deallocate:
$LN12@deallocate:
  0005d	cc		 int	 3
?deallocate@?$allocator@UZTLuaScriptMember@@@std@@QAEXPAUZTLuaScriptMember@@I@Z ENDP ; std::allocator<ZTLuaScriptMember>::deallocate
_TEXT	ENDS
; Function compile flags: /Ogtp
; File c:\program files (x86)\microsoft visual studio 14.0\vc\include\xmemory0
;	COMDAT ??0?$allocator@UZTLuaScriptMember@@@std@@QAE@ABV01@@Z
_TEXT	SEGMENT
___formal$ = 8						; size = 4
??0?$allocator@UZTLuaScriptMember@@@std@@QAE@ABV01@@Z PROC ; std::allocator<ZTLuaScriptMember>::allocator<ZTLuaScriptMember>, COMDAT
; _this$ = ecx

; 622  : 		{	// construct by copying (do nothing)
; 623  : 		}

  00000	8b c1		 mov	 eax, ecx
  00002	c2 04 00	 ret	 4
??0?$allocator@UZTLuaScriptMember@@@std@@QAE@ABV01@@Z ENDP ; std::allocator<ZTLuaScriptMember>::allocator<ZTLuaScriptMember>
_TEXT	ENDS
; Function compile flags: /Ogtp
; File c:\program files (x86)\microsoft visual studio 14.0\vc\include\xmemory0
;	COMDAT ??0?$allocator@UZTLuaScriptMember@@@std@@QAE@XZ
_TEXT	SEGMENT
??0?$allocator@UZTLuaScriptMember@@@std@@QAE@XZ PROC	; std::allocator<ZTLuaScriptMember>::allocator<ZTLuaScriptMember>, COMDAT
; _this$ = ecx

; 618  : 		{	// construct default allocator (do nothing)
; 619  : 		}

  00000	8b c1		 mov	 eax, ecx
  00002	c3		 ret	 0
??0?$allocator@UZTLuaScriptMember@@@std@@QAE@XZ ENDP	; std::allocator<ZTLuaScriptMember>::allocator<ZTLuaScriptMember>
_TEXT	ENDS
; Function compile flags: /Ogtp
; File c:\users\michel\desktop\source\gameserver\source\ztluabackup.h
; File c:\program files (x86)\microsoft visual studio 14.0\vc\include\vector
; File c:\program files (x86)\microsoft visual studio 14.0\vc\include\xmemory0
; File c:\program files (x86)\microsoft visual studio 14.0\vc\include\vector
; File c:\program files (x86)\microsoft visual studio 14.0\vc\include\xmemory0
; File c:\program files (x86)\microsoft visual studio 14.0\vc\include\vector
; File c:\program files (x86)\microsoft visual studio 14.0\vc\include\xmemory0
; File c:\program files (x86)\microsoft visual studio 14.0\vc\include\vector
; File c:\program files (x86)\microsoft visual studio 14.0\vc\include\xmemory0
; File c:\program files (x86)\microsoft visual studio 14.0\vc\include\vector
; File c:\users\michel\desktop\source\gameserver\source\ztluabackup.h
;	COMDAT ??1ZTLuaBackup@@QAE@XZ
_TEXT	SEGMENT
__Cat$1 = -4						; size = 1
??1ZTLuaBackup@@QAE@XZ PROC				; ZTLuaBackup::~ZTLuaBackup, COMDAT
; _this$ = ecx

; 24   : 	~ZTLuaBackup() {

  00000	55		 push	 ebp
  00001	8b ec		 mov	 ebp, esp
  00003	51		 push	 ecx
  00004	57		 push	 edi
  00005	8b f9		 mov	 edi, ecx

; 25   : 		THREAD_LOCK_DELETE(&m_CriticalSection);

  00007	8d 47 0c	 lea	 eax, DWORD PTR [edi+12]
  0000a	50		 push	 eax
  0000b	ff 15 00 00 00
	00		 call	 DWORD PTR __imp__DeleteCriticalSection@4
; File c:\program files (x86)\microsoft visual studio 14.0\vc\include\vector

; 1656 : 		if (this->_Myfirst() != pointer())

  00011	8b 07		 mov	 eax, DWORD PTR [edi]
  00013	85 c0		 test	 eax, eax
  00015	74 44		 je	 SHORT $LN7@ZTLuaBacku
; File c:\program files (x86)\microsoft visual studio 14.0\vc\include\xmemory0

; 186  : 	_Destroy_range(_First, _Last, _Al, _Ptr_cat(_First, _Last));

  00017	ff 75 fc	 push	 DWORD PTR __Cat$1[ebp]
  0001a	57		 push	 edi
  0001b	ff 77 04	 push	 DWORD PTR [edi+4]
  0001e	50		 push	 eax
  0001f	e8 00 00 00 00	 call	 ??$_Destroy_range@U?$_Wrap_alloc@V?$allocator@UZTLuaScriptMember@@@std@@@std@@@std@@YAXPAUZTLuaScriptMember@@0AAU?$_Wrap_alloc@V?$allocator@UZTLuaScriptMember@@@std@@@0@U_Nonscalar_ptr_iterator_tag@0@@Z ; std::_Destroy_range<std::_Wrap_alloc<std::allocator<ZTLuaScriptMember> > >
; File c:\program files (x86)\microsoft visual studio 14.0\vc\include\vector

; 1660 : 			this->_Getal().deallocate(this->_Myfirst(),

  00024	8b 4f 08	 mov	 ecx, DWORD PTR [edi+8]
  00027	b8 ab aa aa 2a	 mov	 eax, 715827883		; 2aaaaaabH
  0002c	2b 0f		 sub	 ecx, DWORD PTR [edi]
; File c:\program files (x86)\microsoft visual studio 14.0\vc\include\xmemory0

; 186  : 	_Destroy_range(_First, _Last, _Al, _Ptr_cat(_First, _Last));

  0002e	83 c4 10	 add	 esp, 16			; 00000010H
; File c:\program files (x86)\microsoft visual studio 14.0\vc\include\vector

; 1660 : 			this->_Getal().deallocate(this->_Myfirst(),

  00031	f7 e9		 imul	 ecx
; File c:\program files (x86)\microsoft visual studio 14.0\vc\include\xmemory0

; 909  : 		_Mybase::deallocate(_Ptr, _Count);

  00033	8b cf		 mov	 ecx, edi
; File c:\program files (x86)\microsoft visual studio 14.0\vc\include\vector

; 1660 : 			this->_Getal().deallocate(this->_Myfirst(),

  00035	c1 fa 03	 sar	 edx, 3
  00038	8b c2		 mov	 eax, edx
  0003a	c1 e8 1f	 shr	 eax, 31			; 0000001fH
  0003d	03 c2		 add	 eax, edx
; File c:\program files (x86)\microsoft visual studio 14.0\vc\include\xmemory0

; 909  : 		_Mybase::deallocate(_Ptr, _Count);

  0003f	50		 push	 eax
  00040	ff 37		 push	 DWORD PTR [edi]
  00042	e8 00 00 00 00	 call	 ?deallocate@?$allocator@UZTLuaScriptMember@@@std@@QAEXPAUZTLuaScriptMember@@I@Z ; std::allocator<ZTLuaScriptMember>::deallocate
; File c:\program files (x86)\microsoft visual studio 14.0\vc\include\vector

; 1662 : 			this->_Myfirst() = pointer();

  00047	c7 07 00 00 00
	00		 mov	 DWORD PTR [edi], 0

; 1663 : 			this->_Mylast() = pointer();

  0004d	c7 47 04 00 00
	00 00		 mov	 DWORD PTR [edi+4], 0

; 1664 : 			this->_Myend() = pointer();

  00054	c7 47 08 00 00
	00 00		 mov	 DWORD PTR [edi+8], 0
$LN7@ZTLuaBacku:
  0005b	5f		 pop	 edi
; File c:\users\michel\desktop\source\gameserver\source\ztluabackup.h

; 26   : 	};

  0005c	8b e5		 mov	 esp, ebp
  0005e	5d		 pop	 ebp
  0005f	c3		 ret	 0
??1ZTLuaBackup@@QAE@XZ ENDP				; ZTLuaBackup::~ZTLuaBackup
_TEXT	ENDS
; Function compile flags: /Ogtp
; File c:\users\michel\desktop\source\gameserver\source\ztluabackup.h
; File c:\program files (x86)\microsoft visual studio 14.0\vc\include\vector
; File c:\users\michel\desktop\source\gameserver\source\ztluabackup.h
; File c:\program files (x86)\microsoft visual studio 14.0\vc\include\vector
; File c:\users\michel\desktop\source\gameserver\source\ztluabackup.h
;	COMDAT ??0ZTLuaBackup@@QAE@XZ
_TEXT	SEGMENT
_this$ = -4						; size = 4
??0ZTLuaBackup@@QAE@XZ PROC				; ZTLuaBackup::ZTLuaBackup, COMDAT
; _this$ = ecx

; 20   : 	ZTLuaBackup() {

  00000	55		 push	 ebp
  00001	8b ec		 mov	 ebp, esp
  00003	51		 push	 ecx
  00004	56		 push	 esi
  00005	8b f1		 mov	 esi, ecx
  00007	89 75 fc	 mov	 DWORD PTR _this$[ebp], esi

; 21   : 		THREAD_LOCK_CREATE(&m_CriticalSection);

  0000a	8d 46 0c	 lea	 eax, DWORD PTR [esi+12]
; File c:\program files (x86)\microsoft visual studio 14.0\vc\include\vector

; 480  : 		_Myfirst = pointer();

  0000d	c7 06 00 00 00
	00		 mov	 DWORD PTR [esi], 0
; File c:\users\michel\desktop\source\gameserver\source\ztluabackup.h

; 21   : 		THREAD_LOCK_CREATE(&m_CriticalSection);

  00013	50		 push	 eax
; File c:\program files (x86)\microsoft visual studio 14.0\vc\include\vector

; 481  : 		_Mylast = pointer();

  00014	c7 46 04 00 00
	00 00		 mov	 DWORD PTR [esi+4], 0

; 482  : 		_Myend = pointer();

  0001b	c7 46 08 00 00
	00 00		 mov	 DWORD PTR [esi+8], 0
; File c:\users\michel\desktop\source\gameserver\source\ztluabackup.h

; 21   : 		THREAD_LOCK_CREATE(&m_CriticalSection);

  00022	ff 15 00 00 00
	00		 call	 DWORD PTR __imp__InitializeCriticalSection@4

; 22   : 	};

  00028	8b c6		 mov	 eax, esi
  0002a	5e		 pop	 esi
  0002b	8b e5		 mov	 esp, ebp
  0002d	5d		 pop	 ebp
  0002e	c3		 ret	 0
??0ZTLuaBackup@@QAE@XZ ENDP				; ZTLuaBackup::ZTLuaBackup
_TEXT	ENDS
; Function compile flags: /Ogtp
;	COMDAT ??_GZTLuaScriptMember@@QAEPAXI@Z
_TEXT	SEGMENT
___flags$ = 8						; size = 4
??_GZTLuaScriptMember@@QAEPAXI@Z PROC			; ZTLuaScriptMember::`scalar deleting destructor', COMDAT
; _this$ = ecx
  00000	55		 push	 ebp
  00001	8b ec		 mov	 ebp, esp
  00003	56		 push	 esi
  00004	8b f1		 mov	 esi, ecx
  00006	e8 00 00 00 00	 call	 ??1ZTLuaScriptMember@@QAE@XZ
  0000b	f6 45 08 01	 test	 BYTE PTR ___flags$[ebp], 1
  0000f	74 0b		 je	 SHORT $LN4@scalar
  00011	6a 30		 push	 48			; 00000030H
  00013	56		 push	 esi
  00014	e8 00 00 00 00	 call	 ??3@YAXPAXI@Z		; operator delete
  00019	83 c4 08	 add	 esp, 8
$LN4@scalar:
  0001c	8b c6		 mov	 eax, esi
  0001e	5e		 pop	 esi
  0001f	5d		 pop	 ebp
  00020	c2 04 00	 ret	 4
??_GZTLuaScriptMember@@QAEPAXI@Z ENDP			; ZTLuaScriptMember::`scalar deleting destructor'
_TEXT	ENDS
; Function compile flags: /Ogtp
; File c:\program files (x86)\microsoft visual studio 14.0\vc\include\xstring
; File c:\program files (x86)\microsoft visual studio 14.0\vc\include\xstddef
; File c:\program files (x86)\microsoft visual studio 14.0\vc\include\iosfwd
; File c:\program files (x86)\microsoft visual studio 14.0\vc\include\xstring
; File c:\program files (x86)\microsoft visual studio 14.0\vc\include\xstddef
; File c:\program files (x86)\microsoft visual studio 14.0\vc\include\iosfwd
;	COMDAT ??1ZTLuaScriptMember@@QAE@XZ
_TEXT	SEGMENT
??1ZTLuaScriptMember@@QAE@XZ PROC			; ZTLuaScriptMember::~ZTLuaScriptMember, COMDAT
; _this$ = ecx
  00000	56		 push	 esi
  00001	8b f1		 mov	 esi, ecx
; File c:\program files (x86)\microsoft visual studio 14.0\vc\include\xstring

; 2232 : 		else if (this->_BUF_SIZE <= this->_Myres())

  00003	8b 46 2c	 mov	 eax, DWORD PTR [esi+44]
  00006	57		 push	 edi
  00007	8d 7e 18	 lea	 edi, DWORD PTR [esi+24]
  0000a	83 f8 10	 cmp	 eax, 16			; 00000010H
  0000d	72 0b		 jb	 SHORT $LN9@ZTLuaScrip

; 2233 : 			{	// copy any leftovers to small buffer and deallocate
; 2234 : 			pointer _Ptr = this->_Bx()._Ptr;
; 2235 : 			this->_Getal().destroy(&this->_Bx()._Ptr);
; 2236 : 			if (0 < _Newsize)
; 2237 : 				_Traits::copy(this->_Bx()._Buf,
; 2238 : 					_STD addressof(*_Ptr), _Newsize);
; 2239 : 			this->_Getal().deallocate(_Ptr, this->_Myres() + 1);

  0000f	40		 inc	 eax
  00010	8b cf		 mov	 ecx, edi
  00012	50		 push	 eax
  00013	ff 37		 push	 DWORD PTR [edi]
  00015	e8 00 00 00 00	 call	 ?deallocate@?$_Wrap_alloc@V?$allocator@D@std@@@std@@QAEXPADI@Z ; std::_Wrap_alloc<std::allocator<char> >::deallocate
$LN9@ZTLuaScrip:

; 2240 : 			}
; 2241 : 		this->_Myres() = this->_BUF_SIZE - 1;

  0001a	c7 47 14 0f 00
	00 00		 mov	 DWORD PTR [edi+20], 15	; 0000000fH

; 506  : 			? _STD addressof(*this->_Bx._Ptr)
; 507  : 			: this->_Bx._Buf);
; 508  : 		}
; 509  : 
; 510  : 	const value_type *_Myptr() const
; 511  : 		{	// determine current pointer to buffer for nonmutable string
; 512  : 		return (this->_BUF_SIZE <= this->_Myres
; 513  : 			? _STD addressof(*this->_Bx._Ptr)
; 514  : 			: this->_Bx._Buf);
; 515  : 		}
; 516  : 
; 517  : 	union _Bxty
; 518  : 		{	// storage for small buffer or pointer to larger one
; 519  : 		value_type _Buf[_BUF_SIZE];
; 520  : 		pointer _Ptr;
; 521  : 		char _Alias[_BUF_SIZE];	// to permit aliasing
; 522  : 		} _Bx;
; 523  : 
; 524  : 	size_type _Mysize;	// current length of string
; 525  : 	size_type _Myres;	// current storage reserved for string
; 526  : 	};
; 527  : 
; 528  : 		// TEMPLATE CLASS _String_alloc
; 529  : template<class _Alloc_types>
; 530  : 	class _String_alloc
; 531  : 	{	// base class for basic_string to hold allocator
; 532  : public:
; 533  : 	typedef _String_alloc<_Alloc_types> _Myt;
; 534  : 	typedef typename _Alloc_types::_Alloc _Alloc;
; 535  : 	typedef typename _Alloc_types::_Alty _Alty;
; 536  : 	typedef typename _Alloc_types::_Val_types _Val_types;
; 537  : 
; 538  : 	typedef typename _Val_types::value_type value_type;
; 539  : 	typedef typename _Val_types::size_type size_type;
; 540  : 	typedef typename _Val_types::difference_type difference_type;
; 541  : 	typedef typename _Val_types::pointer pointer;
; 542  : 	typedef typename _Val_types::const_pointer const_pointer;
; 543  : 	typedef typename _Val_types::reference reference;
; 544  : 	typedef typename _Val_types::const_reference const_reference;
; 545  : 
; 546  : 	typedef _String_iterator<_String_val<_Val_types> > iterator;
; 547  : 	typedef _String_const_iterator<_String_val<_Val_types> > const_iterator;
; 548  : 
; 549  : 	enum
; 550  : 		{	// length of internal buffer, [1, 16]
; 551  : 		_BUF_SIZE = _String_val<_Val_types>::_BUF_SIZE
; 552  : 		};
; 553  : 
; 554  : 	enum
; 555  : 		{	// roundup mask for allocated buffers, [0, 15]
; 556  : 		_ALLOC_MASK = _String_val<_Val_types>::_ALLOC_MASK
; 557  : 		};
; 558  : 
; 559  : 	value_type *_Myptr()
; 560  : 		{	// determine current pointer to buffer for mutable string
; 561  : 		return (_Get_data()._Myptr());
; 562  : 		}
; 563  : 
; 564  : 	const value_type *_Myptr() const
; 565  : 		{	// determine current pointer to buffer for nonmutable string
; 566  : 		return (_Get_data()._Myptr());
; 567  : 		}
; 568  : 
; 569  :  #if _ITERATOR_DEBUG_LEVEL == 0
; 570  : 	_String_alloc(const _Alloc& _Al = _Alloc())
; 571  : 		: _Mypair(_One_then_variadic_args_t(), _Al)
; 572  : 		{	// construct allocator from _Al
; 573  : 		}
; 574  : 
; 575  : 	_String_alloc(_Alloc&& _Al)
; 576  : 		: _Mypair(_One_then_variadic_args_t(), _STD move(_Al))
; 577  : 		{	// construct allocator from _Al
; 578  : 		}
; 579  : 
; 580  : 	void _Copy_alloc(const _Alty& _Al)
; 581  : 		{	// replace old allocator
; 582  : 		_Pocca(_Getal(), _Al);
; 583  : 		}
; 584  : 
; 585  : 	void _Move_alloc(_Alty& _Al)
; 586  : 		{	// replace old allocator
; 587  : 		_Pocma(_Getal(), _Al);
; 588  : 		}
; 589  : 
; 590  : 	void _Swap_alloc(_Myt& _Right)
; 591  : 		{	// swap allocators
; 592  : 		_Pocs(_Getal(), _Right._Getal());
; 593  : 		}
; 594  : 
; 595  :  #else /* _ITERATOR_DEBUG_LEVEL == 0 */
; 596  : 	_String_alloc(const _Alloc& _Al = _Alloc())
; 597  : 		: _Mypair(_One_then_variadic_args_t(), _Al)
; 598  : 		{	// construct allocator from _Al
; 599  : 		_Alloc_proxy();
; 600  : 		}
; 601  : 
; 602  : 	_String_alloc(_Alloc&& _Al)
; 603  : 		: _Mypair(_One_then_variadic_args_t(), _STD move(_Al))
; 604  : 		{	// construct allocator from _Al
; 605  : 		_Alloc_proxy();
; 606  : 		}
; 607  : 
; 608  : 	~_String_alloc() _NOEXCEPT
; 609  : 		{	// destroy the object
; 610  : 		_Free_proxy();
; 611  : 		}
; 612  : 
; 613  : 	void _Copy_alloc(const _Alty& _Al)
; 614  : 		{	// replace old allocator
; 615  : 		_Free_proxy();
; 616  : 		_Pocca(_Getal(), _Al);
; 617  : 		_Alloc_proxy();
; 618  : 		}
; 619  : 
; 620  : 	void _Move_alloc(_Alty& _Al)
; 621  : 		{	// replace old allocator
; 622  : 		_Free_proxy();
; 623  : 		_Pocma(_Getal(), _Al);
; 624  : 		_Alloc_proxy();
; 625  : 		}
; 626  : 
; 627  : 	void _Swap_alloc(_Myt& _Right)
; 628  : 		{	// swap allocators
; 629  : 		_Pocs(_Getal(), _Right._Getal());
; 630  : 		_Swap_adl(_Myproxy(), _Right._Myproxy());
; 631  : 		}
; 632  : 
; 633  : 	void _Alloc_proxy()
; 634  : 		{	// construct proxy
; 635  : 		typename _Alty::template rebind<_Container_proxy>::other
; 636  : 			_Alproxy(_Getal());
; 637  : 		_Myproxy() = _Alproxy.allocate(1);
; 638  : 		_Alproxy.construct(_Myproxy(), _Container_proxy());
; 639  : 		_Myproxy()->_Mycont = &_Get_data();
; 640  : 		}
; 641  : 
; 642  : 	void _Free_proxy()
; 643  : 		{	// destroy proxy
; 644  : 		typename _Alty::template rebind<_Container_proxy>::other
; 645  : 			_Alproxy(_Getal());
; 646  : 		_Orphan_all();
; 647  : 		_Alproxy.destroy(_Myproxy());
; 648  : 		_Alproxy.deallocate(_Myproxy(), 1);
; 649  : 		_Myproxy() = 0;
; 650  : 		}
; 651  : 
; 652  : 	_Iterator_base12 **_Getpfirst() const
; 653  : 		{	// get address of iterator chain
; 654  : 		return (_Get_data()._Getpfirst());
; 655  : 		}
; 656  : 
; 657  : 	_Container_proxy * & _Myproxy() _NOEXCEPT
; 658  : 		{	// return reference to _Myproxy
; 659  : 		return (_Get_data()._Myproxy);
; 660  : 		}
; 661  : 
; 662  : 	_Container_proxy * const & _Myproxy() const _NOEXCEPT
; 663  : 		{	// return const reference to _Myproxy
; 664  : 		return (_Get_data()._Myproxy);
; 665  : 		}
; 666  :  #endif /* _ITERATOR_DEBUG_LEVEL == 0 */
; 667  : 
; 668  : 	void _Orphan_all()
; 669  : 		{	// orphan all iterators
; 670  : 		_Get_data()._Orphan_all();
; 671  : 		}
; 672  : 
; 673  : 	void _Swap_all(_Myt& _Right)
; 674  : 		{	// swap all iterators
; 675  : 		_Get_data()._Swap_all(_Right._Get_data());
; 676  : 		}
; 677  : 
; 678  : 	_Alty& _Getal() _NOEXCEPT
; 679  : 		{	// return reference to allocator
; 680  : 		return (_Mypair._Get_first());
; 681  : 		}
; 682  : 
; 683  : 	const _Alty& _Getal() const _NOEXCEPT
; 684  : 		{	// return const reference to allocator
; 685  : 		return (_Mypair._Get_first());
; 686  : 		}
; 687  : 
; 688  : 	_String_val<_Val_types>& _Get_data() _NOEXCEPT
; 689  : 		{	// return reference to _String_val
; 690  : 		return (_Mypair._Get_second());
; 691  : 		}
; 692  : 
; 693  : 	const _String_val<_Val_types>& _Get_data() const _NOEXCEPT
; 694  : 		{	// return const reference to _String_val
; 695  : 		return (_Mypair._Get_second());
; 696  : 		}
; 697  : 
; 698  : 	typedef typename _String_val<_Val_types>::_Bxty _Bxty;
; 699  : 
; 700  : 	_Bxty& _Bx() _NOEXCEPT
; 701  : 		{	// return reference to _Bx
; 702  : 		return (_Get_data()._Bx);
; 703  : 		}
; 704  : 
; 705  : 	const _Bxty& _Bx() const _NOEXCEPT
; 706  : 		{	// return const reference to _Bx
; 707  : 		return (_Get_data()._Bx);
; 708  : 		}
; 709  : 
; 710  : 	size_type& _Mysize() _NOEXCEPT
; 711  : 		{	// return reference to _Mysize
; 712  : 		return (_Get_data()._Mysize);
; 713  : 		}
; 714  : 
; 715  : 	const size_type& _Mysize() const _NOEXCEPT
; 716  : 		{	// return const reference to _Mysize
; 717  : 		return (_Get_data()._Mysize);
; 718  : 		}
; 719  : 
; 720  : 	size_type& _Myres() _NOEXCEPT
; 721  : 		{	// return reference to _Myres
; 722  : 		return (_Get_data()._Myres);
; 723  : 		}
; 724  : 
; 725  : 	const size_type& _Myres() const _NOEXCEPT
; 726  : 		{	// return const reference to _Myres
; 727  : 		return (_Get_data()._Myres);
; 728  : 		}
; 729  : 
; 730  : private:
; 731  : 	_Compressed_pair<_Alty, _String_val<_Val_types> > _Mypair;
; 732  : 	};
; 733  : 
; 734  : 		// TEMPLATE CLASS basic_string
; 735  : template<class _Elem,
; 736  : 	class _Traits,
; 737  : 	class _Alloc>
; 738  : 	class basic_string
; 739  : 		: public _String_alloc<_String_base_types<_Elem, _Alloc> >
; 740  : 	{	// null-terminated transparent array of elements
; 741  : public:
; 742  : 	typedef basic_string<_Elem, _Traits, _Alloc> _Myt;
; 743  : 	typedef _String_alloc<_String_base_types<_Elem, _Alloc> > _Mybase;
; 744  : 	typedef _Traits traits_type;
; 745  : 	typedef _Alloc allocator_type;
; 746  : 
; 747  : 	typedef typename _Mybase::_Alty _Alty;
; 748  : 
; 749  : 	typedef typename _Mybase::value_type value_type;
; 750  : 	typedef typename _Mybase::size_type size_type;
; 751  : 	typedef typename _Mybase::difference_type difference_type;
; 752  : 	typedef typename _Mybase::pointer pointer;
; 753  : 	typedef typename _Mybase::const_pointer const_pointer;
; 754  : 	typedef typename _Mybase::reference reference;
; 755  : 	typedef typename _Mybase::const_reference const_reference;
; 756  : 
; 757  : 	typedef typename _Mybase::iterator iterator;
; 758  : 	typedef typename _Mybase::const_iterator const_iterator;
; 759  : 
; 760  : 	typedef _STD reverse_iterator<iterator> reverse_iterator;
; 761  : 	typedef _STD reverse_iterator<const_iterator> const_reverse_iterator;
; 762  : 
; 763  : 	basic_string(const _Myt& _Right)
; 764  : 
; 765  : 		: _Mybase(_Right._Getal().select_on_container_copy_construction())
; 766  : 
; 767  : 
; 768  : 		{	// construct by copying _Right
; 769  : 		_Tidy();
; 770  : 		assign(_Right, 0, npos);
; 771  : 		}
; 772  : 
; 773  : 	basic_string(const _Myt& _Right, const _Alloc& _Al)
; 774  : 		: _Mybase(_Al)
; 775  : 		{	// construct by copying with allocator
; 776  : 		_Tidy();
; 777  : 		assign(_Right, 0, npos);
; 778  : 		}
; 779  : 
; 780  : 	basic_string() _NOEXCEPT
; 781  : 		: _Mybase()
; 782  : 		{	// construct empty string
; 783  : 		_Tidy();
; 784  : 		}
; 785  : 
; 786  : 	explicit basic_string(const _Alloc& _Al) _NOEXCEPT
; 787  : 		: _Mybase(_Al)
; 788  : 		{	// construct empty string with allocator
; 789  : 		_Tidy();
; 790  : 		}
; 791  : 
; 792  : 	basic_string(const _Myt& _Right, size_type _Roff,
; 793  : 		size_type _Count = npos)
; 794  : 		: _Mybase(_Right._Getal())
; 795  : 		{	// construct from _Right [_Roff, _Roff + _Count)
; 796  : 		_Tidy();
; 797  : 		assign(_Right, _Roff, _Count);
; 798  : 		}
; 799  : 
; 800  : 	basic_string(const _Myt& _Right, size_type _Roff, size_type _Count,
; 801  : 		const _Alloc& _Al)
; 802  : 		: _Mybase(_Al)
; 803  : 		{	// construct from _Right [_Roff, _Roff + _Count) with allocator
; 804  : 		_Tidy();
; 805  : 		assign(_Right, _Roff, _Count);
; 806  : 		}
; 807  : 
; 808  : 	basic_string(const _Elem *_Ptr, size_type _Count)
; 809  : 		: _Mybase()
; 810  : 		{	// construct from [_Ptr, _Ptr + _Count)
; 811  : 		_Tidy();
; 812  : 		assign(_Ptr, _Count);
; 813  : 		}
; 814  : 
; 815  : 	basic_string(const _Elem *_Ptr, size_type _Count, const _Alloc& _Al)
; 816  : 		: _Mybase(_Al)
; 817  : 		{	// construct from [_Ptr, _Ptr + _Count) with allocator
; 818  : 		_Tidy();
; 819  : 		assign(_Ptr, _Count);
; 820  : 		}
; 821  : 
; 822  : 	basic_string(const _Elem *_Ptr)
; 823  : 		: _Mybase()
; 824  : 		{	// construct from [_Ptr, <null>)
; 825  : 		_Tidy();
; 826  : 		assign(_Ptr);
; 827  : 		}
; 828  : 
; 829  : 	basic_string(const _Elem *_Ptr, const _Alloc& _Al)
; 830  : 		: _Mybase(_Al)
; 831  : 		{	// construct from [_Ptr, <null>) with allocator
; 832  : 		_Tidy();
; 833  : 		assign(_Ptr);
; 834  : 		}
; 835  : 
; 836  : 	basic_string(size_type _Count, _Elem _Ch)
; 837  : 		: _Mybase()
; 838  : 		{	// construct from _Count * _Ch
; 839  : 		_Tidy();
; 840  : 		assign(_Count, _Ch);
; 841  : 		}
; 842  : 
; 843  : 	basic_string(size_type _Count, _Elem _Ch, const _Alloc& _Al)
; 844  : 		: _Mybase(_Al)
; 845  : 		{	// construct from _Count * _Ch with allocator
; 846  : 		_Tidy();
; 847  : 		assign(_Count, _Ch);
; 848  : 		}
; 849  : 
; 850  : 	template<class _Iter,
; 851  : 		class = typename enable_if<_Is_iterator<_Iter>::value,
; 852  : 			void>::type>
; 853  : 		basic_string(_Iter _First, _Iter _Last, const _Alloc& _Al = _Alloc())
; 854  : 		: _Mybase(_Al)
; 855  : 		{	// construct from [_First, _Last) with optional allocator
; 856  : 		_DEBUG_RANGE(_First, _Last);
; 857  : 		_Tidy();
; 858  : 		_Construct(_Unchecked(_First), _Unchecked(_Last), _Iter_cat(_First));
; 859  : 		}
; 860  : 
; 861  : 	template<class _Iter>
; 862  : 		void _Construct(_Iter _First,
; 863  : 			_Iter _Last, input_iterator_tag)
; 864  : 		{	// initialize from [_First, _Last), input iterators
; 865  : 		_TRY_BEGIN
; 866  : 		for (; _First != _Last; ++_First)
; 867  : 			append((size_type)1, (_Elem)*_First);
; 868  : 		_CATCH_ALL
; 869  : 		_Tidy(true);
; 870  : 		_RERAISE;
; 871  : 		_CATCH_END
; 872  : 		}
; 873  : 
; 874  : 	template<class _Iter>
; 875  : 		void _Construct(_Iter _First,
; 876  : 			_Iter _Last, forward_iterator_tag)
; 877  : 		{	// initialize from [_First, _Last), forward iterators
; 878  : 		size_type _Count = 0;
; 879  : 		_Distance(_First, _Last, _Count);
; 880  : 		reserve(_Count);
; 881  : 		_Construct(_First, _Last, input_iterator_tag());
; 882  : 		}
; 883  : 
; 884  : 	void _Construct(_Elem *_First,
; 885  : 		_Elem *_Last, random_access_iterator_tag)
; 886  : 		{	// initialize from [_First, _Last), pointers
; 887  : 		if (_First != _Last)
; 888  : 			assign(_First, _Last - _First);
; 889  : 		}
; 890  : 
; 891  : 	void _Construct(const _Elem *_First,
; 892  : 		const _Elem *_Last, random_access_iterator_tag)
; 893  : 		{	// initialize from [_First, _Last), const pointers
; 894  : 		if (_First != _Last)
; 895  : 			assign(_First, _Last - _First);
; 896  : 		}
; 897  : 
; 898  : 	basic_string(_Myt&& _Right) _NOEXCEPT
; 899  : 		: _Mybase(_STD move(_Right._Getal()))
; 900  : 		{	// construct by moving _Right
; 901  : 		_Tidy();
; 902  : 		_Assign_rv(_STD forward<_Myt>(_Right));
; 903  : 		}
; 904  : 
; 905  : 	basic_string(_Myt&& _Right, const _Alloc& _Al)
; 906  : 		: _Mybase(_Al)
; 907  : 		{	// construct by moving _Right, allocator
; 908  : 		if (this->_Getal() != _Right._Getal())
; 909  : 			assign(_Right.begin(), _Right.end());
; 910  : 		else
; 911  : 			_Assign_rv(_STD forward<_Myt>(_Right));
; 912  : 		}
; 913  : 
; 914  : 	_Myt& operator=(_Myt&& _Right)
; 915  : 		_NOEXCEPT_OP(_Alty::propagate_on_container_move_assignment::value
; 916  : 			|| _Alty::is_always_equal::value)
; 917  : 		{	// assign by moving _Right
; 918  : 		if (this != &_Right)
; 919  : 			{	// different, assign it
; 920  : 			_Tidy(true);
; 921  : 
; 922  : 			if (_Alty::propagate_on_container_move_assignment::value
; 923  : 				&& this->_Getal() != _Right._Getal())
; 924  : 				this->_Move_alloc(_Right._Getal());
; 925  : 
; 926  : 			if (this->_Getal() != _Right._Getal())
; 927  : 				assign(_Right.begin(), _Right.end());
; 928  : 			else
; 929  : 				_Assign_rv(_STD forward<_Myt>(_Right));
; 930  : 			}
; 931  : 		return (*this);
; 932  : 		}
; 933  : 
; 934  : 	_Myt& assign(_Myt&& _Right) _NOEXCEPT
; 935  : 		{	// assign by moving _Right
; 936  : 		if (this == &_Right)
; 937  : 			;
; 938  : 		else if (get_allocator() != _Right.get_allocator()
; 939  : 			&& this->_BUF_SIZE <= _Right._Myres())
; 940  : 			*this = _Right;
; 941  : 		else
; 942  : 			{	// not same, clear this and steal from _Right
; 943  : 			_Tidy(true);
; 944  : 			_Assign_rv(_STD forward<_Myt>(_Right));
; 945  : 			}
; 946  : 		return (*this);
; 947  : 		}
; 948  : 
; 949  : 	void _Assign_rv(_Myt&& _Right)
; 950  : 		{	// assign by moving _Right
; 951  : 		if (_Right._Myres() < this->_BUF_SIZE)
; 952  : 			_Traits::move(this->_Bx()._Buf, _Right._Bx()._Buf,
; 953  : 				_Right._Mysize() + 1);
; 954  : 		else
; 955  : 			{	// copy pointer
; 956  : 			this->_Getal().construct(&this->_Bx()._Ptr, _Right._Bx()._Ptr);
; 957  : 			_Right._Bx()._Ptr = pointer();
; 958  : 			}
; 959  : 		this->_Mysize() = _Right._Mysize();
; 960  : 		this->_Myres() = _Right._Myres();
; 961  : 		_Right._Tidy();
; 962  : 		}
; 963  : 
; 964  : 	basic_string(_XSTD initializer_list<_Elem> _Ilist,
; 965  : 		const _Alloc& _Al = allocator_type())
; 966  : 		: _Mybase(_Al)
; 967  : 		{	// construct from initializer_list
; 968  : 		_Tidy();
; 969  : 		assign(_Ilist.begin(), _Ilist.end());
; 970  : 		}
; 971  : 
; 972  : 	_Myt& operator=(_XSTD initializer_list<_Elem> _Ilist)
; 973  : 		{	// assign initializer_list
; 974  : 		return (assign(_Ilist.begin(), _Ilist.end()));
; 975  : 		}
; 976  : 
; 977  : 	_Myt& operator+=(_XSTD initializer_list<_Elem> _Ilist)
; 978  : 		{	// append initializer_list
; 979  : 		return (append(_Ilist.begin(), _Ilist.end()));
; 980  : 		}
; 981  : 
; 982  : 	_Myt& assign(_XSTD initializer_list<_Elem> _Ilist)
; 983  : 		{	// assign initializer_list
; 984  : 		return (assign(_Ilist.begin(), _Ilist.end()));
; 985  : 		}
; 986  : 
; 987  : 	_Myt& append(_XSTD initializer_list<_Elem> _Ilist)
; 988  : 		{	// append initializer_list
; 989  : 		return (append(_Ilist.begin(), _Ilist.end()));
; 990  : 		}
; 991  : 
; 992  : 	iterator insert(const_iterator _Where,
; 993  : 		_XSTD initializer_list<_Elem> _Ilist)
; 994  : 		{	// insert initializer_list
; 995  : 		return (insert(_Where, _Ilist.begin(), _Ilist.end()));
; 996  : 		}
; 997  : 
; 998  : 	_Myt& replace(const_iterator _First, const_iterator _Last,
; 999  : 		_XSTD initializer_list<_Elem> _Ilist)
; 1000 : 		{	// replace with initializer_list
; 1001 : 		return (replace(_First, _Last, _Ilist.begin(), _Ilist.end()));
; 1002 : 		}
; 1003 : 
; 1004 : 	~basic_string() _NOEXCEPT
; 1005 : 		{	// destroy the string
; 1006 : 		_Tidy(true);
; 1007 : 		}
; 1008 : 
; 1009 : 	_PGLOBAL static const size_type npos;	// bad/missing length/position
; 1010 : 
; 1011 : 	_Myt& operator=(const _Myt& _Right)
; 1012 : 		{	// assign _Right
; 1013 : 		if (this != &_Right)
; 1014 : 			{	// different, assign it
; 1015 : 			if (this->_Getal() != _Right._Getal()
; 1016 : 				&& _Alty::propagate_on_container_copy_assignment::value)
; 1017 : 				{	// change allocator before copying
; 1018 : 				_Tidy(true);
; 1019 : 				this->_Copy_alloc(_Right._Getal());
; 1020 : 				}
; 1021 : 
; 1022 : 			assign(_Right);
; 1023 : 			}
; 1024 : 		return (*this);
; 1025 : 		}
; 1026 : 
; 1027 : 	_Myt& operator=(const _Elem *_Ptr)
; 1028 : 		{	// assign [_Ptr, <null>)
; 1029 : 		return (assign(_Ptr));
; 1030 : 		}
; 1031 : 
; 1032 : 	_Myt& operator=(_Elem _Ch)
; 1033 : 		{	// assign 1 * _Ch
; 1034 : 		return (assign(1, _Ch));
; 1035 : 		}
; 1036 : 
; 1037 : 	_Myt& operator+=(const _Myt& _Right)
; 1038 : 		{	// append _Right
; 1039 : 		return (append(_Right));
; 1040 : 		}
; 1041 : 
; 1042 : 	_Myt& operator+=(const _Elem *_Ptr)
; 1043 : 		{	// append [_Ptr, <null>)
; 1044 : 		return (append(_Ptr));
; 1045 : 		}
; 1046 : 
; 1047 : 	_Myt& operator+=(_Elem _Ch)
; 1048 : 		{	// append 1 * _Ch
; 1049 : 		return (append((size_type)1, _Ch));
; 1050 : 		}
; 1051 : 
; 1052 : 	_Myt& append(const _Myt& _Right)
; 1053 : 		{	// append _Right
; 1054 : 		return (append(_Right, 0, npos));
; 1055 : 		}
; 1056 : 
; 1057 : 	_Myt& append(const _Myt& _Right,
; 1058 : 		size_type _Roff, size_type _Count = npos)
; 1059 : 		{	// append _Right [_Roff, _Roff + _Count)
; 1060 : 		if (_Right.size() < _Roff)
; 1061 : 			_Xran();	// _Roff off end
; 1062 : 		size_type _Num = _Right.size() - _Roff;
; 1063 : 		if (_Num < _Count)
; 1064 : 			_Count = _Num;	// trim _Count to size
; 1065 : 		if (npos - this->_Mysize() <= _Count)
; 1066 : 			_Xlen();	// result too long
; 1067 : 
; 1068 : 		if (0 < _Count && _Grow(_Num = this->_Mysize() + _Count))
; 1069 : 			{	// make room and append new stuff
; 1070 : 			_Traits::copy(this->_Myptr() + this->_Mysize(),
; 1071 : 				_Right._Myptr() + _Roff, _Count);
; 1072 : 			_Eos(_Num);
; 1073 : 			}
