; Listing generated by Microsoft (R) Optimizing Compiler Version 19.00.23506.0 

	TITLE	C:\Users\Michel\Desktop\Source\GameServer\common\zzzitem.cpp
	.686P
	.XMM
	include listing.inc
	.model	flat

INCLUDELIB LIBCMT
INCLUDELIB OLDNAMES

PUBLIC	?g_MaxItemIndexOfEachItemType@@3PAHA		; g_MaxItemIndexOfEachItemType
PUBLIC	?ItemAttribute@@3PAUITEM_ATTRIBUTE@@A		; ItemAttribute
_BSS	SEGMENT
?g_MaxItemIndexOfEachItemType@@3PAHA DD 010H DUP (?)	; g_MaxItemIndexOfEachItemType
?ItemAttribute@@3PAUITEM_ATTRIBUTE@@A DB 0e0000H DUP (?) ; ItemAttribute
_BSS	ENDS
PUBLIC	?__empty_global_delete@@YAXPAX@Z		; __empty_global_delete
PUBLIC	?__empty_global_delete@@YAXPAXI@Z		; __empty_global_delete
PUBLIC	?pow@@YAMMH@Z					; pow
PUBLIC	??0CItem@@QAE@XZ				; CItem::CItem
PUBLIC	?Convert@CItem@@QAEXHEEEEEEPAEEE@Z		; CItem::Convert
PUBLIC	?Value@CItem@@QAEXXZ				; CItem::Value
PUBLIC	?OldValue@CItem@@QAEXXZ				; CItem::OldValue
PUBLIC	?GetSize@CItem@@QAEHAAH0@Z			; CItem::GetSize
PUBLIC	?Clear@CItem@@QAEXXZ				; CItem::Clear
PUBLIC	?IsItem@CItem@@QAEHXZ				; CItem::IsItem
PUBLIC	?IsSetItem@CItem@@QAEHXZ			; CItem::IsSetItem
PUBLIC	?GetAddStatType@CItem@@QAEHXZ			; CItem::GetAddStatType
PUBLIC	?SetPetItemInfo@CItem@@QAEXHH@Z			; CItem::SetPetItemInfo
PUBLIC	?AddPetItemExp@CItem@@QAEHH@Z			; CItem::AddPetItemExp
PUBLIC	?DecPetItemExp@CItem@@QAEHH@Z			; CItem::DecPetItemExp
PUBLIC	?PetValue@CItem@@QAEXXZ				; CItem::PetValue
PUBLIC	?PetItemLevelDown@CItem@@QAEHH@Z		; CItem::PetItemLevelDown
PUBLIC	?ItemDamageMin@CItem@@QAEHXZ			; CItem::ItemDamageMin
PUBLIC	?ItemDefense@CItem@@QAEHXZ			; CItem::ItemDefense
PUBLIC	?ItemCurseDamage@CItem@@QAEHXZ			; CItem::ItemCurseDamage
PUBLIC	?IsClass@CItem@@QAEHDHH@Z			; CItem::IsClass
PUBLIC	?GetName@CItem@@QAEPADXZ			; CItem::GetName
PUBLIC	?GetLevel@CItem@@QAEHXZ				; CItem::GetLevel
PUBLIC	?PlusSpecial@CItem@@QAEXPAHH@Z			; CItem::PlusSpecial
PUBLIC	?PlusSpecialPercent@CItem@@QAEXPAHHG@Z		; CItem::PlusSpecialPercent
PUBLIC	?PlusSpecialPercentEx@CItem@@QAEXPAHHH@Z	; CItem::PlusSpecialPercentEx
PUBLIC	?SetItemPlusSpecialStat@CItem@@QAEXPAGH@Z	; CItem::SetItemPlusSpecialStat
PUBLIC	?GetWeaponType@CItem@@QAEHXZ			; CItem::GetWeaponType
PUBLIC	?PlusSpecialSetRing@CItem@@QAEXPAE@Z		; CItem::PlusSpecialSetRing
PUBLIC	?GetNumber@CItem@@QAEKXZ			; CItem::GetNumber
PUBLIC	?IsExtItem@CItem@@QAEHXZ			; CItem::IsExtItem
PUBLIC	?IsExtLifeAdd@CItem@@QAEHXZ			; CItem::IsExtLifeAdd
PUBLIC	?IsExtManaAdd@CItem@@QAEHXZ			; CItem::IsExtManaAdd
PUBLIC	?IsExtDamageMinus@CItem@@QAEHXZ			; CItem::IsExtDamageMinus
PUBLIC	?IsExtDamageReflect@CItem@@QAEHXZ		; CItem::IsExtDamageReflect
PUBLIC	?IsExtDefenseSuccessfull@CItem@@QAEHXZ		; CItem::IsExtDefenseSuccessfull
PUBLIC	?IsExtMonsterMoney@CItem@@QAEHXZ		; CItem::IsExtMonsterMoney
PUBLIC	?IsExtExcellentDamage@CItem@@QAEHXZ		; CItem::IsExtExcellentDamage
PUBLIC	?IsExtAttackRate@CItem@@QAEHXZ			; CItem::IsExtAttackRate
PUBLIC	?IsExtAttackRate2@CItem@@QAEHXZ			; CItem::IsExtAttackRate2
PUBLIC	?IsExtAttackSpeed@CItem@@QAEHXZ			; CItem::IsExtAttackSpeed
PUBLIC	?IsExtMonsterDieLife@CItem@@QAEHXZ		; CItem::IsExtMonsterDieLife
PUBLIC	?IsExtMonsterDieMana@CItem@@QAEHXZ		; CItem::IsExtMonsterDieMana
PUBLIC	?IsWingOpGetOnePercentDamage@CItem@@QAEHXZ	; CItem::IsWingOpGetOnePercentDamage
PUBLIC	?Is3rdWingOpGetOnePercentDamage@CItem@@QAEHXZ	; CItem::Is3rdWingOpGetOnePercentDamage
PUBLIC	?Is25WingOpGetOnePercentDamage@CItem@@QAEHXZ	; CItem::Is25WingOpGetOnePercentDamage
PUBLIC	?Is3rdLevelWingReflect@CItem@@QAEHXZ		; CItem::Is3rdLevelWingReflect
PUBLIC	?Is3rdLevelWingHPRestore@CItem@@QAEHXZ		; CItem::Is3rdLevelWingHPRestore
PUBLIC	?Is25LevelWingHPRestore@CItem@@QAEHXZ		; CItem::Is25LevelWingHPRestore
PUBLIC	?Is3rdLevelWingMPRestore@CItem@@QAEHXZ		; CItem::Is3rdLevelWingMPRestore
PUBLIC	?IsWingOpGetManaToMoster@CItem@@QAEHXZ		; CItem::IsWingOpGetManaToMoster
PUBLIC	?IsDinorantReduceAttackDamaege@CItem@@QAEHXZ	; CItem::IsDinorantReduceAttackDamaege
PUBLIC	?IsFenrirIncLastAttackDamage@CItem@@QAEHXZ	; CItem::IsFenrirIncLastAttackDamage
PUBLIC	?IsFenrirDecLastAttackDamage@CItem@@QAEHXZ	; CItem::IsFenrirDecLastAttackDamage
PUBLIC	?IsFenrirSpecial@CItem@@QAEHXZ			; CItem::IsFenrirSpecial
PUBLIC	?SimpleDurabilityDown@CItem@@QAEHH@Z		; CItem::SimpleDurabilityDown
PUBLIC	?DurabilityDown@CItem@@QAEHHH@Z			; CItem::DurabilityDown
PUBLIC	?DurabilityDown2@CItem@@QAEHHH@Z		; CItem::DurabilityDown2
PUBLIC	?NormalWeaponDurabilityDown@CItem@@QAEHHH@Z	; CItem::NormalWeaponDurabilityDown
PUBLIC	?BowWeaponDurabilityDown@CItem@@QAEHHH@Z	; CItem::BowWeaponDurabilityDown
PUBLIC	?StaffWeaponDurabilityDown@CItem@@QAEHHH@Z	; CItem::StaffWeaponDurabilityDown
PUBLIC	?ArmorDurabilityDown@CItem@@QAEHHH@Z		; CItem::ArmorDurabilityDown
PUBLIC	?CheckDurabilityState@CItem@@QAEHXZ		; CItem::CheckDurabilityState
PUBLIC	?InitSocketItem@CItem@@QAEXE@Z			; CItem::InitSocketItem
PUBLIC	?GetExcOptCount@CItem@@QAEHXZ			; CItem::GetExcOptCount
PUBLIC	?IsFullAncient@CItem@@QAEHXZ			; CItem::IsFullAncient
PUBLIC	?IsFullExcellent@CItem@@QAE_NXZ			; CItem::IsFullExcellent
PUBLIC	?GetDetailItemType@CItem@@QAEHXZ		; CItem::GetDetailItemType
PUBLIC	??0CPetItemExp@@QAE@XZ				; CPetItemExp::CPetItemExp
PUBLIC	?BufferItemtoConvert3@@YAXPAEAAHAAE2222@Z	; BufferItemtoConvert3
PUBLIC	?ItemByteConvert7@@YAXPAEQAVCItem@@H@Z		; ItemByteConvert7
PUBLIC	?ItemByteConvert10@@YAXPAEQAVCItem@@H@Z		; ItemByteConvert10
PUBLIC	?ItemByteConvert16@@YAXPAEQAVCItem@@H@Z		; ItemByteConvert16
PUBLIC	?ItemByteConvert@@YAXPAEVCItem@@@Z		; ItemByteConvert
PUBLIC	?ItemByteConvert@@YAXPAEHEEEEEEEEE0E@Z		; ItemByteConvert
PUBLIC	?ItemGetNumberMake@@YAHHH@Z			; ItemGetNumberMake
PUBLIC	?ItemGetSize@@YAXHAAH0@Z			; ItemGetSize
PUBLIC	?HasItemDurability@@YAHH@Z			; HasItemDurability
PUBLIC	?ItemGetDurability@@YAHHHHH@Z			; ItemGetDurability
PUBLIC	?ItemGetAttackDurability@@YAHH@Z		; ItemGetAttackDurability
PUBLIC	?ItemGetDefenseDurability@@YAHH@Z		; ItemGetDefenseDurability
PUBLIC	?GetRepairItemRate@@YAMH@Z			; GetRepairItemRate
PUBLIC	?GetAllRepairItemRate@@YAMH@Z			; GetAllRepairItemRate
PUBLIC	?CalRepairRate@@YAXHHPAUITEM_ATTRIBUTE@@@Z	; CalRepairRate
PUBLIC	?OpenItemScript@@YAHPAD@Z			; OpenItemScript
PUBLIC	?OpenItemNameScript@@YAHPAD@Z			; OpenItemNameScript
PUBLIC	?OpenItemScript@@YAHPADH@Z			; OpenItemScript
PUBLIC	?OpenItemNameScript@@YAHPADH@Z			; OpenItemNameScript
PUBLIC	?zzzItemLevel@@YAHHHH@Z				; zzzItemLevel
PUBLIC	?GetLevelItem@@YAHHHH@Z				; GetLevelItem
PUBLIC	?GetSerialItem@@YAHH@Z				; GetSerialItem
PUBLIC	?IsItem@@YAHH@Z					; IsItem
PUBLIC	?GetItemAttr@@YAPAUITEM_ATTRIBUTE@@H@Z		; GetItemAttr
PUBLIC	??1OBJECTSTRUCT@@QAE@XZ				; OBJECTSTRUCT::~OBJECTSTRUCT
PUBLIC	??_EOBJECTSTRUCT@@QAEPAXI@Z			; OBJECTSTRUCT::`vector deleting destructor'
PUBLIC	?gPetItemExp@@3VCPetItemExp@@A			; gPetItemExp
PUBLIC	??_C@_0BO@NENAGJKH@error?9L1?5?3?5ItemIndex?5error?5?$CFd?$AA@ ; `string'
PUBLIC	??_C@_0BG@LGADFPBA@?4?4?2common?2zzzitem?4cpp?$AA@ ; `string'
PUBLIC	??_C@_0BJ@IGGPIOPD@?E?$KM?$LH?$KB?$LN?$LK?5?$LP?$KB?$LH?$KP?5?3?5?$CFd?5?$CI?$CFs?5?$CFd?$CJ?$AA@ ; `string'
PUBLIC	??_C@_0P@KKGPKIJI@damagemin?5?$DN?50?$CB?$AA@	; `string'
PUBLIC	??_C@_0M@ELCONOFE@def?$MA?L?50?$MA?L?$LE?Y?$AA@	; `string'
PUBLIC	??_C@_01KDCPPGHE@r?$AA@				; `string'
PUBLIC	??_C@_03JBJLGPFL@end?$AA@			; `string'
PUBLIC	??_C@_0DN@NLHNDLLL@Error?5?3?5Item?5Data?5fail?4?5?$CILoopCou@ ; `string'
PUBLIC	___isa_available_default
PUBLIC	__real@00000000
PUBLIC	__real@3e4ccccd
PUBLIC	__real@3e99999a
PUBLIC	__real@3f000000
PUBLIC	__real@3f4ccccd
PUBLIC	__real@3f800000
PUBLIC	__real@3ff8000000000000
PUBLIC	__real@4018000000000000
PUBLIC	__real@4024000000000000
PUBLIC	__real@402c000000000000
PUBLIC	__real@4030000000000000
PUBLIC	__real@4039000000000000
PUBLIC	__real@403c000000000000
PUBLIC	__real@40400000
PUBLIC	__real@404c000000000000
PUBLIC	__real@4059000000000000
PUBLIC	__real@40a00000
PUBLIC	__real@41200000
PUBLIC	__real@42480000
PUBLIC	__real@428a0000
PUBLIC	__real@42c80000
PUBLIC	__real@440d0000
PUBLIC	__real@44430000
PUBLIC	__real@447a0000
PUBLIC	__real@44834000
PUBLIC	__real@461c4000
PUBLIC	__xmm@00000003000000020000000100000000
PUBLIC	__xmm@0000000a0000000a0000000a0000000a
PUBLIC	__xmm@00000064000000640000006400000064
EXTRN	??_M@YGXPAXIIP6EX0@Z@Z:PROC			; `eh vector destructor iterator'
EXTRN	??3@YAXPAXI@Z:PROC				; operator delete
EXTRN	??_V@YAXPAXI@Z:PROC				; operator delete[]
EXTRN	_isalpha:PROC
EXTRN	_isdigit:PROC
EXTRN	_isspace:PROC
EXTRN	_isalnum:PROC
EXTRN	_fclose:PROC
EXTRN	_fgetc:PROC
EXTRN	_fopen:PROC
EXTRN	_getc:PROC
EXTRN	_ungetc:PROC
EXTRN	_rand:PROC
EXTRN	_atof:PROC
EXTRN	?IsSetItem@CSetItemOption@@QAEHH@Z:PROC		; CSetItemOption::IsSetItem
EXTRN	?MsgBox@@YAXPADZZ:PROC				; MsgBox
EXTRN	??0CWzMemScript@@QAE@XZ:PROC			; CWzMemScript::CWzMemScript
EXTRN	??1CWzMemScript@@UAE@XZ:PROC			; CWzMemScript::~CWzMemScript
EXTRN	?SetBuffer@CWzMemScript@@QAEHPADH@Z:PROC	; CWzMemScript::SetBuffer
EXTRN	?GetToken@CWzMemScript@@QAE?AW4SMDToken@@XZ:PROC ; CWzMemScript::GetToken
EXTRN	?GetNumber@CWzMemScript@@QAEHXZ:PROC		; CWzMemScript::GetNumber
EXTRN	?GetString@CWzMemScript@@QAEPADXZ:PROC		; CWzMemScript::GetString
EXTRN	?GetItemStrengthenOption@CJewelOfHarmonySystem@@QAEEPAVCItem@@@Z:PROC ; CJewelOfHarmonySystem::GetItemStrengthenOption
EXTRN	?IsActive@CJewelOfHarmonySystem@@QAEHPAVCItem@@@Z:PROC ; CJewelOfHarmonySystem::IsActive
EXTRN	?GetItemEffectValue@CJewelOfHarmonySystem@@QAEHPAVCItem@@H@Z:PROC ; CJewelOfHarmonySystem::GetItemEffectValue
EXTRN	?_GetItemType@CJewelOfHarmonySystem@@QAEHPAVCItem@@@Z:PROC ; CJewelOfHarmonySystem::_GetItemType
EXTRN	?Is380OptionItem@CItemSystemFor380@@QAEHPBVCItem@@@Z:PROC ; CItemSystemFor380::Is380OptionItem
EXTRN	??1CSkillDelay@@UAE@XZ:PROC			; CSkillDelay::~CSkillDelay
EXTRN	??1TMonsterAIAgro@@UAE@XZ:PROC			; TMonsterAIAgro::~TMonsterAIAgro
EXTRN	?IsSocketItem@CSocketItems@@QAE_NPAVCItem@@@Z:PROC ; CSocketItems::IsSocketItem
EXTRN	?CheckSocketOption@CSocketItems@@QAE_NPAVCItem@@@Z:PROC ; CSocketItems::CheckSocketOption
EXTRN	?SetSocketOption@CSocketItems@@QAEXPAVCItem@@@Z:PROC ; CSocketItems::SetSocketOption
EXTRN	?GetOptionValue@CSocketItems@@QAEKE@Z:PROC	; CSocketItems::GetOptionValue
EXTRN	?IsElementalItem@CElementalSystem@@QAEHPAVCItem@@@Z:PROC ; CElementalSystem::IsElementalItem
EXTRN	?IsPentagram@CElementalSystem@@QAEHH@Z:PROC	; CElementalSystem::IsPentagram
EXTRN	?IsErrtel@CElementalSystem@@QAEHH@Z:PROC	; CElementalSystem::IsErrtel
EXTRN	?GetSlotCount@CElementalSystem@@QAEEPAVCItem@@@Z:PROC ; CElementalSystem::GetSlotCount
EXTRN	?getOptionValue@ItemExcellentOption@@QAEHGE@Z:PROC ; ItemExcellentOption::getOptionValue
EXTRN	@__security_check_cookie@4:PROC
EXTRN	___CxxFrameHandler3:PROC
EXTRN	__alldiv:PROC
EXTRN	__allmul:PROC
EXTRN	__dtol3:PROC
EXTRN	__ftol3:PROC
EXTRN	__ftoui3:PROC
EXTRN	__libm_sse2_sqrt_precise:PROC
EXTRN	__ltod3:PROC
EXTRN	_memset:PROC
EXTRN	?gSetItemOption@@3VCSetItemOption@@A:BYTE	; gSetItemOption
EXTRN	?LogAdd@@3P6AXPADZZA:DWORD			; LogAdd
EXTRN	?LogAddC@@3P6AXEPADZZA:DWORD			; LogAddC
EXTRN	?g_kJewelOfHarmonySystem@@3VCJewelOfHarmonySystem@@A:BYTE ; g_kJewelOfHarmonySystem
EXTRN	?g_kItemSystemFor380@@3VCItemSystemFor380@@A:BYTE ; g_kItemSystemFor380
EXTRN	?g_SocketItem@@3VCSocketItems@@A:BYTE		; g_SocketItem
EXTRN	?gObj@@3PAUOBJECTSTRUCT@@A:DWORD		; gObj
EXTRN	?g_ElementalSystem@@3VCElementalSystem@@A:BYTE	; g_ElementalSystem
EXTRN	?g_ItemExcellentOption@@3VItemExcellentOption@@A:BYTE ; g_ItemExcellentOption
EXTRN	___isa_available:DWORD
EXTRN	___security_cookie:DWORD
EXTRN	__fltused:DWORD
_BSS	SEGMENT
?SMDFile@@3PAU_iobuf@@A DD 01H DUP (?)			; SMDFile
?TokenNumber@@3MA DD 01H DUP (?)			; TokenNumber
?TokenString@@3PADA DB 064H DUP (?)			; TokenString
?CurrentToken@@3W4SMDToken@@A DD 01H DUP (?)		; CurrentToken
?gPetItemExp@@3VCPetItemExp@@A DB 01a0H DUP (?)		; gPetItemExp
_BSS	ENDS
;	COMDAT ___isa_available_default
_BSS	SEGMENT
___isa_available_default DD 01H DUP (?)
_BSS	ENDS
CRT$XCU	SEGMENT
?gPetItemExp$initializer$@@3P6AXXZA DD FLAT:??__EgPetItemExp@@YAXXZ ; gPetItemExp$initializer$
CRT$XCU	ENDS
;	COMDAT __xmm@00000064000000640000006400000064
CONST	SEGMENT
__xmm@00000064000000640000006400000064 DB 'd', 00H, 00H, 00H, 'd', 00H, 00H
	DB	00H, 'd', 00H, 00H, 00H, 'd', 00H, 00H, 00H
CONST	ENDS
;	COMDAT __xmm@0000000a0000000a0000000a0000000a
CONST	SEGMENT
__xmm@0000000a0000000a0000000a0000000a DB 0aH, 00H, 00H, 00H, 0aH, 00H, 00H
	DB	00H, 0aH, 00H, 00H, 00H, 0aH, 00H, 00H, 00H
CONST	ENDS
;	COMDAT __xmm@00000003000000020000000100000000
CONST	SEGMENT
__xmm@00000003000000020000000100000000 DB 00H, 00H, 00H, 00H, 01H, 00H, 00H
	DB	00H, 02H, 00H, 00H, 00H, 03H, 00H, 00H, 00H
CONST	ENDS
;	COMDAT __real@461c4000
CONST	SEGMENT
__real@461c4000 DD 0461c4000r			; 10000
CONST	ENDS
;	COMDAT __real@44834000
CONST	SEGMENT
__real@44834000 DD 044834000r			; 1050
CONST	ENDS
;	COMDAT __real@447a0000
CONST	SEGMENT
__real@447a0000 DD 0447a0000r			; 1000
CONST	ENDS
;	COMDAT __real@44430000
CONST	SEGMENT
__real@44430000 DD 044430000r			; 780
CONST	ENDS
;	COMDAT __real@440d0000
CONST	SEGMENT
__real@440d0000 DD 0440d0000r			; 564
CONST	ENDS
;	COMDAT __real@42c80000
CONST	SEGMENT
__real@42c80000 DD 042c80000r			; 100
CONST	ENDS
;	COMDAT __real@428a0000
CONST	SEGMENT
__real@428a0000 DD 0428a0000r			; 69
CONST	ENDS
;	COMDAT __real@42480000
CONST	SEGMENT
__real@42480000 DD 042480000r			; 50
CONST	ENDS
;	COMDAT __real@41200000
CONST	SEGMENT
__real@41200000 DD 041200000r			; 10
CONST	ENDS
;	COMDAT __real@40a00000
CONST	SEGMENT
__real@40a00000 DD 040a00000r			; 5
CONST	ENDS
;	COMDAT __real@4059000000000000
CONST	SEGMENT
__real@4059000000000000 DQ 04059000000000000r	; 100
CONST	ENDS
;	COMDAT __real@404c000000000000
CONST	SEGMENT
__real@404c000000000000 DQ 0404c000000000000r	; 56
CONST	ENDS
;	COMDAT __real@40400000
CONST	SEGMENT
__real@40400000 DD 040400000r			; 3
CONST	ENDS
;	COMDAT __real@403c000000000000
CONST	SEGMENT
__real@403c000000000000 DQ 0403c000000000000r	; 28
CONST	ENDS
;	COMDAT __real@4039000000000000
CONST	SEGMENT
__real@4039000000000000 DQ 04039000000000000r	; 25
CONST	ENDS
;	COMDAT __real@4030000000000000
CONST	SEGMENT
__real@4030000000000000 DQ 04030000000000000r	; 16
CONST	ENDS
;	COMDAT __real@402c000000000000
CONST	SEGMENT
__real@402c000000000000 DQ 0402c000000000000r	; 14
CONST	ENDS
;	COMDAT __real@4024000000000000
CONST	SEGMENT
__real@4024000000000000 DQ 04024000000000000r	; 10
CONST	ENDS
;	COMDAT __real@4018000000000000
CONST	SEGMENT
__real@4018000000000000 DQ 04018000000000000r	; 6
CONST	ENDS
;	COMDAT __real@3ff8000000000000
CONST	SEGMENT
__real@3ff8000000000000 DQ 03ff8000000000000r	; 1.5
CONST	ENDS
;	COMDAT __real@3f800000
CONST	SEGMENT
__real@3f800000 DD 03f800000r			; 1
CONST	ENDS
;	COMDAT __real@3f4ccccd
CONST	SEGMENT
__real@3f4ccccd DD 03f4ccccdr			; 0.8
CONST	ENDS
;	COMDAT __real@3f000000
CONST	SEGMENT
__real@3f000000 DD 03f000000r			; 0.5
CONST	ENDS
;	COMDAT __real@3e99999a
CONST	SEGMENT
__real@3e99999a DD 03e99999ar			; 0.3
CONST	ENDS
;	COMDAT __real@3e4ccccd
CONST	SEGMENT
__real@3e4ccccd DD 03e4ccccdr			; 0.2
CONST	ENDS
;	COMDAT __real@00000000
CONST	SEGMENT
__real@00000000 DD 000000000r			; 0
CONST	ENDS
;	COMDAT ??_C@_0DN@NLHNDLLL@Error?5?3?5Item?5Data?5fail?4?5?$CILoopCou@
CONST	SEGMENT
??_C@_0DN@NLHNDLLL@Error?5?3?5Item?5Data?5fail?4?5?$CILoopCou@ DB 'Error '
	DB	': Item Data fail. (LoopCount:%d) Item Type:%d Index %d', 00H ; `string'
CONST	ENDS
;	COMDAT ??_C@_03JBJLGPFL@end?$AA@
CONST	SEGMENT
??_C@_03JBJLGPFL@end?$AA@ DB 'end', 00H			; `string'
CONST	ENDS
;	COMDAT ??_C@_01KDCPPGHE@r?$AA@
CONST	SEGMENT
??_C@_01KDCPPGHE@r?$AA@ DB 'r', 00H			; `string'
CONST	ENDS
;	COMDAT ??_C@_0M@ELCONOFE@def?$MA?L?50?$MA?L?$LE?Y?$AA@
CONST	SEGMENT
??_C@_0M@ELCONOFE@def?$MA?L?50?$MA?L?$LE?Y?$AA@ DB 'def', 0c0H, 0ccH, ' 0'
	DB	0c0H, 0ccH, 0b4H, 0d9H, 00H			; `string'
CONST	ENDS
;	COMDAT ??_C@_0P@KKGPKIJI@damagemin?5?$DN?50?$CB?$AA@
CONST	SEGMENT
??_C@_0P@KKGPKIJI@damagemin?5?$DN?50?$CB?$AA@ DB 'damagemin = 0!', 00H ; `string'
CONST	ENDS
;	COMDAT ??_C@_0BJ@IGGPIOPD@?E?$KM?$LH?$KB?$LN?$LK?5?$LP?$KB?$LH?$KP?5?3?5?$CFd?5?$CI?$CFs?5?$CFd?$CJ?$AA@
CONST	SEGMENT
??_C@_0BJ@IGGPIOPD@?E?$KM?$LH?$KB?$LN?$LK?5?$LP?$KB?$LH?$KP?5?3?5?$CFd?5?$CI?$CFs?5?$CFd?$CJ?$AA@ DB 0c5H
	DB	0acH, 0b7H, 0a1H, 0bdH, 0baH, ' ', 0bfH, 0a1H, 0b7H, 0afH, ' :'
	DB	' %d (%s %d)', 00H				; `string'
CONST	ENDS
;	COMDAT ??_C@_0BG@LGADFPBA@?4?4?2common?2zzzitem?4cpp?$AA@
CONST	SEGMENT
??_C@_0BG@LGADFPBA@?4?4?2common?2zzzitem?4cpp?$AA@ DB '..\common\zzzitem.'
	DB	'cpp', 00H					; `string'
CONST	ENDS
;	COMDAT ??_C@_0BO@NENAGJKH@error?9L1?5?3?5ItemIndex?5error?5?$CFd?$AA@
CONST	SEGMENT
??_C@_0BO@NENAGJKH@error?9L1?5?3?5ItemIndex?5error?5?$CFd?$AA@ DB 'error-'
	DB	'L1 : ItemIndex error %d', 00H		; `string'
CONST	ENDS
;	COMDAT xdata$x
xdata$x	SEGMENT
__ehfuncinfo$??_EOBJECTSTRUCT@@QAEPAXI@Z DD 019930522H
	DD	00H
	DD	00H
	DD	2 DUP(00H)
	DD	2 DUP(00H)
	DD	00H
	DD	05H
xdata$x	ENDS
;	COMDAT xdata$x
xdata$x	SEGMENT
__unwindtable$?OpenItemNameScript@@YAHPADH@Z DD 0ffffffffH
	DD	FLAT:__unwindfunclet$?OpenItemNameScript@@YAHPADH@Z$0
__ehfuncinfo$?OpenItemNameScript@@YAHPADH@Z DD 019930522H
	DD	01H
	DD	FLAT:__unwindtable$?OpenItemNameScript@@YAHPADH@Z
	DD	2 DUP(00H)
	DD	2 DUP(00H)
	DD	00H
	DD	01H
xdata$x	ENDS
;	COMDAT xdata$x
xdata$x	SEGMENT
__unwindtable$?OpenItemScript@@YAHPADH@Z DD 0ffffffffH
	DD	FLAT:__unwindfunclet$?OpenItemScript@@YAHPADH@Z$0
__ehfuncinfo$?OpenItemScript@@YAHPADH@Z DD 019930522H
	DD	01H
	DD	FLAT:__unwindtable$?OpenItemScript@@YAHPADH@Z
	DD	2 DUP(00H)
	DD	2 DUP(00H)
	DD	00H
	DD	01H
xdata$x	ENDS
; Function compile flags: /Ogtp
; File c:\users\michel\desktop\source\gameserver\common\zzzitem.cpp
;	COMDAT ??__EgPetItemExp@@YAXXZ
text$di	SEGMENT
??__EgPetItemExp@@YAXXZ PROC				; `dynamic initializer for 'gPetItemExp'', COMDAT

; 32   : CPetItemExp gPetItemExp;

  00000	b9 00 00 00 00	 mov	 ecx, OFFSET ?gPetItemExp@@3VCPetItemExp@@A ; gPetItemExp
  00005	e9 00 00 00 00	 jmp	 ??0CPetItemExp@@QAE@XZ	; CPetItemExp::CPetItemExp
??__EgPetItemExp@@YAXXZ ENDP				; `dynamic initializer for 'gPetItemExp''
text$di	ENDS
; Function compile flags: /Ogtp
;	COMDAT ??_EOBJECTSTRUCT@@QAEPAXI@Z
_TEXT	SEGMENT
__$EHRec$ = -12						; size = 12
___flags$ = 8						; size = 4
??_EOBJECTSTRUCT@@QAEPAXI@Z PROC			; OBJECTSTRUCT::`vector deleting destructor', COMDAT
; _this$ = ecx
  00000	55		 push	 ebp
  00001	8b ec		 mov	 ebp, esp
  00003	6a ff		 push	 -1
  00005	68 00 00 00 00	 push	 __ehhandler$??_EOBJECTSTRUCT@@QAEPAXI@Z
  0000a	64 a1 00 00 00
	00		 mov	 eax, DWORD PTR fs:0
  00010	50		 push	 eax
  00011	53		 push	 ebx
  00012	56		 push	 esi
  00013	57		 push	 edi
  00014	a1 00 00 00 00	 mov	 eax, DWORD PTR ___security_cookie
  00019	33 c5		 xor	 eax, ebp
  0001b	50		 push	 eax
  0001c	8d 45 f4	 lea	 eax, DWORD PTR __$EHRec$[ebp]
  0001f	64 a3 00 00 00
	00		 mov	 DWORD PTR fs:0, eax
  00025	8b f1		 mov	 esi, ecx
  00027	8b 5d 08	 mov	 ebx, DWORD PTR ___flags$[ebp]
  0002a	f6 c3 02	 test	 bl, 2
  0002d	74 44		 je	 SHORT $LN2@vector
  0002f	68 00 00 00 00	 push	 OFFSET ??1OBJECTSTRUCT@@QAE@XZ
  00034	ff 76 fc	 push	 DWORD PTR [esi-4]
  00037	8d 7e fc	 lea	 edi, DWORD PTR [esi-4]
  0003a	68 40 27 00 00	 push	 10048			; 00002740H
  0003f	56		 push	 esi
  00040	e8 00 00 00 00	 call	 ??_M@YGXPAXIIP6EX0@Z@Z
  00045	f6 c3 01	 test	 bl, 1
  00048	74 13		 je	 SHORT $LN3@vector
  0004a	69 0f 40 27 00
	00		 imul	 ecx, DWORD PTR [edi], 10048
  00050	83 c1 04	 add	 ecx, 4
  00053	51		 push	 ecx
  00054	57		 push	 edi
  00055	e8 00 00 00 00	 call	 ??_V@YAXPAXI@Z		; operator delete[]
  0005a	83 c4 08	 add	 esp, 8
$LN3@vector:
  0005d	8b c7		 mov	 eax, edi
  0005f	8b 4d f4	 mov	 ecx, DWORD PTR __$EHRec$[ebp]
  00062	64 89 0d 00 00
	00 00		 mov	 DWORD PTR fs:0, ecx
  00069	59		 pop	 ecx
  0006a	5f		 pop	 edi
  0006b	5e		 pop	 esi
  0006c	5b		 pop	 ebx
  0006d	8b e5		 mov	 esp, ebp
  0006f	5d		 pop	 ebp
  00070	c2 04 00	 ret	 4
$LN2@vector:
  00073	8d 8e ec 20 00
	00		 lea	 ecx, DWORD PTR [esi+8428]
  00079	e8 00 00 00 00	 call	 ??1TMonsterAIAgro@@UAE@XZ ; TMonsterAIAgro::~TMonsterAIAgro
  0007e	8d 8e 0c 16 00
	00		 lea	 ecx, DWORD PTR [esi+5644]
  00084	e8 00 00 00 00	 call	 ??1CSkillDelay@@UAE@XZ	; CSkillDelay::~CSkillDelay
  00089	f6 c3 01	 test	 bl, 1
  0008c	74 0e		 je	 SHORT $LN4@vector
  0008e	68 40 27 00 00	 push	 10048			; 00002740H
  00093	56		 push	 esi
  00094	e8 00 00 00 00	 call	 ??3@YAXPAXI@Z		; operator delete
  00099	83 c4 08	 add	 esp, 8
$LN4@vector:
  0009c	8b c6		 mov	 eax, esi
  0009e	8b 4d f4	 mov	 ecx, DWORD PTR __$EHRec$[ebp]
  000a1	64 89 0d 00 00
	00 00		 mov	 DWORD PTR fs:0, ecx
  000a8	59		 pop	 ecx
  000a9	5f		 pop	 edi
  000aa	5e		 pop	 esi
  000ab	5b		 pop	 ebx
  000ac	8b e5		 mov	 esp, ebp
  000ae	5d		 pop	 ebp
  000af	c2 04 00	 ret	 4
_TEXT	ENDS
;	COMDAT text$x
text$x	SEGMENT
__ehhandler$??_EOBJECTSTRUCT@@QAEPAXI@Z:
  00000	8b 54 24 08	 mov	 edx, DWORD PTR [esp+8]
  00004	8d 42 0c	 lea	 eax, DWORD PTR [edx+12]
  00007	8b 4a f0	 mov	 ecx, DWORD PTR [edx-16]
  0000a	33 c8		 xor	 ecx, eax
  0000c	e8 00 00 00 00	 call	 @__security_check_cookie@4
  00011	b8 00 00 00 00	 mov	 eax, OFFSET __ehfuncinfo$??_EOBJECTSTRUCT@@QAEPAXI@Z
  00016	e9 00 00 00 00	 jmp	 ___CxxFrameHandler3
text$x	ENDS
??_EOBJECTSTRUCT@@QAEPAXI@Z ENDP			; OBJECTSTRUCT::`vector deleting destructor'
; Function compile flags: /Ogtp
;	COMDAT ??1OBJECTSTRUCT@@QAE@XZ
_TEXT	SEGMENT
??1OBJECTSTRUCT@@QAE@XZ PROC				; OBJECTSTRUCT::~OBJECTSTRUCT, COMDAT
; _this$ = ecx
  00000	56		 push	 esi
  00001	8b f1		 mov	 esi, ecx
  00003	8d 8e ec 20 00
	00		 lea	 ecx, DWORD PTR [esi+8428]
  00009	e8 00 00 00 00	 call	 ??1TMonsterAIAgro@@UAE@XZ ; TMonsterAIAgro::~TMonsterAIAgro
  0000e	8d 8e 0c 16 00
	00		 lea	 ecx, DWORD PTR [esi+5644]
  00014	5e		 pop	 esi
  00015	e9 00 00 00 00	 jmp	 ??1CSkillDelay@@UAE@XZ	; CSkillDelay::~CSkillDelay
??1OBJECTSTRUCT@@QAE@XZ ENDP				; OBJECTSTRUCT::~OBJECTSTRUCT
_TEXT	ENDS
; Function compile flags: /Ogtp
; File c:\users\michel\desktop\source\gameserver\include\readscript.h
;	COMDAT ?GetToken@@YA?AW4SMDToken@@XZ
_TEXT	SEGMENT
_TempString$ = -104					; size = 100
__$ArrayPad$ = -4					; size = 4
?GetToken@@YA?AW4SMDToken@@XZ PROC			; GetToken, COMDAT

; 24   : {

  00000	55		 push	 ebp
  00001	8b ec		 mov	 ebp, esp
  00003	83 ec 68	 sub	 esp, 104		; 00000068H
  00006	a1 00 00 00 00	 mov	 eax, DWORD PTR ___security_cookie
  0000b	33 c5		 xor	 eax, ebp
  0000d	89 45 fc	 mov	 DWORD PTR __$ArrayPad$[ebp], eax

; 25   : 	int ch;
; 26   : 	char* p;
; 27   : 	char TempString[100];
; 28   : 
; 29   : 	TokenString[0]=0;

  00010	c6 05 00 00 00
	00 00		 mov	 BYTE PTR ?TokenString@@3PADA, 0
  00017	53		 push	 ebx
  00018	0f 1f 84 00 00
	00 00 00	 npad	 8
$LL4@GetToken:

; 30   : 
; 31   : 	do
; 32   : 	{
; 33   : 		if ((ch=fgetc(SMDFile)) == -1)

  00020	ff 35 00 00 00
	00		 push	 DWORD PTR ?SMDFile@@3PAU_iobuf@@A
  00026	e8 00 00 00 00	 call	 _fgetc
  0002b	8b d8		 mov	 ebx, eax
  0002d	83 c4 04	 add	 esp, 4
  00030	83 fb ff	 cmp	 ebx, -1
  00033	74 5d		 je	 SHORT $LN43@GetToken

; 34   : 		{
; 35   : 			return END;	// End of FILE (EOF)
; 36   : 		}
; 37   : 		else
; 38   : 		{	
; 39   : 			if (ch=='/')		// this is /

  00035	83 fb 2f	 cmp	 ebx, 47			; 0000002fH
  00038	75 30		 jne	 SHORT $LN2@GetToken

; 40   : 			{
; 41   : 				if((ch=fgetc(SMDFile)) == '/')

  0003a	ff 35 00 00 00
	00		 push	 DWORD PTR ?SMDFile@@3PAU_iobuf@@A
  00040	e8 00 00 00 00	 call	 _fgetc
  00045	8b d8		 mov	 ebx, eax
  00047	83 c4 04	 add	 esp, 4
  0004a	83 fb 2f	 cmp	 ebx, 47			; 0000002fH
  0004d	75 1b		 jne	 SHORT $LN2@GetToken
  0004f	90		 npad	 1
$LL5@GetToken:

; 42   : 				{
; 43   : 					while ((ch != '\n') && (ch != -1))	// End of Line (EOL)

  00050	83 fb ff	 cmp	 ebx, -1
  00053	74 3d		 je	 SHORT $LN43@GetToken

; 44   : 					{
; 45   : 						ch=fgetc(SMDFile);

  00055	ff 35 00 00 00
	00		 push	 DWORD PTR ?SMDFile@@3PAU_iobuf@@A
  0005b	e8 00 00 00 00	 call	 _fgetc
  00060	8b d8		 mov	 ebx, eax
  00062	83 c4 04	 add	 esp, 4
  00065	83 fb 0a	 cmp	 ebx, 10			; 0000000aH
  00068	75 e6		 jne	 SHORT $LL5@GetToken
$LN2@GetToken:

; 51   : 					}
; 52   : 				}
; 53   : 			}
; 54   : 		}
; 55   : 	}
; 56   : 	while (isspace(ch) != 0);

  0006a	53		 push	 ebx
  0006b	e8 00 00 00 00	 call	 _isspace
  00070	83 c4 04	 add	 esp, 4
  00073	85 c0		 test	 eax, eax
  00075	75 a9		 jne	 SHORT $LL4@GetToken

; 57   : 
; 58   : 	
; 59   : 	switch(ch)

  00077	8d 43 de	 lea	 eax, DWORD PTR [ebx-34]
  0007a	56		 push	 esi
  0007b	83 f8 5b	 cmp	 eax, 91			; 0000005bH
  0007e	0f 87 89 01 00
	00		 ja	 $LN29@GetToken
  00084	0f b6 80 00 00
	00 00		 movzx	 eax, BYTE PTR $LN58@GetToken[eax]
  0008b	ff 24 85 00 00
	00 00		 jmp	 DWORD PTR $LN64@GetToken[eax*4]
$LN43@GetToken:

; 46   : 					}
; 47   : 	
; 48   : 					if (ch == -1)
; 49   : 					{
; 50   : 						return END;	// End of FILE

  00092	b8 02 00 00 00	 mov	 eax, 2
  00097	5b		 pop	 ebx

; 143  : 		}
; 144  : 		else
; 145  : 		{
; 146  : 			return CurrentToken = SMD_ERROR; // '<'
; 147  : 		}
; 148  : 		break;
; 149  : 
; 150  : 	}
; 151  : 
; 152  : 	return NAME;
; 153  : }

  00098	8b 4d fc	 mov	 ecx, DWORD PTR __$ArrayPad$[ebp]
  0009b	33 cd		 xor	 ecx, ebp
  0009d	e8 00 00 00 00	 call	 @__security_check_cookie@4
  000a2	8b e5		 mov	 esp, ebp
  000a4	5d		 pop	 ebp
  000a5	c3		 ret	 0
$LN20@GetToken:
  000a6	5e		 pop	 esi

; 60   : 	{
; 61   : 
; 62   : 	case 0x23:	// #
; 63   : 		return CurrentToken=COMMAND;

  000a7	c7 05 00 00 00
	00 23 00 00 00	 mov	 DWORD PTR ?CurrentToken@@3W4SMDToken@@A, 35 ; 00000023H
  000b1	b8 23 00 00 00	 mov	 eax, 35			; 00000023H
  000b6	5b		 pop	 ebx

; 143  : 		}
; 144  : 		else
; 145  : 		{
; 146  : 			return CurrentToken = SMD_ERROR; // '<'
; 147  : 		}
; 148  : 		break;
; 149  : 
; 150  : 	}
; 151  : 
; 152  : 	return NAME;
; 153  : }

  000b7	8b 4d fc	 mov	 ecx, DWORD PTR __$ArrayPad$[ebp]
  000ba	33 cd		 xor	 ecx, ebp
  000bc	e8 00 00 00 00	 call	 @__security_check_cookie@4
  000c1	8b e5		 mov	 esp, ebp
  000c3	5d		 pop	 ebp
  000c4	c3		 ret	 0
$LN21@GetToken:
  000c5	5e		 pop	 esi

; 64   : 		break;
; 65   : 	
; 66   : 	case 0x3B:	// ;
; 67   : 		return CurrentToken=SEMICOLON;

  000c6	c7 05 00 00 00
	00 3b 00 00 00	 mov	 DWORD PTR ?CurrentToken@@3W4SMDToken@@A, 59 ; 0000003bH
  000d0	b8 3b 00 00 00	 mov	 eax, 59			; 0000003bH
  000d5	5b		 pop	 ebx

; 143  : 		}
; 144  : 		else
; 145  : 		{
; 146  : 			return CurrentToken = SMD_ERROR; // '<'
; 147  : 		}
; 148  : 		break;
; 149  : 
; 150  : 	}
; 151  : 
; 152  : 	return NAME;
; 153  : }

  000d6	8b 4d fc	 mov	 ecx, DWORD PTR __$ArrayPad$[ebp]
  000d9	33 cd		 xor	 ecx, ebp
  000db	e8 00 00 00 00	 call	 @__security_check_cookie@4
  000e0	8b e5		 mov	 esp, ebp
  000e2	5d		 pop	 ebp
  000e3	c3		 ret	 0
$LN22@GetToken:
  000e4	5e		 pop	 esi

; 68   : 		break;
; 69   : 	
; 70   : 	case 0x2C:	// ,
; 71   : 
; 72   : 		return CurrentToken=COMMA;

  000e5	c7 05 00 00 00
	00 2c 00 00 00	 mov	 DWORD PTR ?CurrentToken@@3W4SMDToken@@A, 44 ; 0000002cH
  000ef	b8 2c 00 00 00	 mov	 eax, 44			; 0000002cH
  000f4	5b		 pop	 ebx

; 143  : 		}
; 144  : 		else
; 145  : 		{
; 146  : 			return CurrentToken = SMD_ERROR; // '<'
; 147  : 		}
; 148  : 		break;
; 149  : 
; 150  : 	}
; 151  : 
; 152  : 	return NAME;
; 153  : }

  000f5	8b 4d fc	 mov	 ecx, DWORD PTR __$ArrayPad$[ebp]
  000f8	33 cd		 xor	 ecx, ebp
  000fa	e8 00 00 00 00	 call	 @__security_check_cookie@4
  000ff	8b e5		 mov	 esp, ebp
  00101	5d		 pop	 ebp
  00102	c3		 ret	 0
$LN23@GetToken:
  00103	5e		 pop	 esi

; 73   : 		break;
; 74   : 	
; 75   : 	case 0x7B:	// {
; 76   : 		return CurrentToken = LP;

  00104	c7 05 00 00 00
	00 7b 00 00 00	 mov	 DWORD PTR ?CurrentToken@@3W4SMDToken@@A, 123 ; 0000007bH
  0010e	b8 7b 00 00 00	 mov	 eax, 123		; 0000007bH
  00113	5b		 pop	 ebx

; 143  : 		}
; 144  : 		else
; 145  : 		{
; 146  : 			return CurrentToken = SMD_ERROR; // '<'
; 147  : 		}
; 148  : 		break;
; 149  : 
; 150  : 	}
; 151  : 
; 152  : 	return NAME;
; 153  : }

  00114	8b 4d fc	 mov	 ecx, DWORD PTR __$ArrayPad$[ebp]
  00117	33 cd		 xor	 ecx, ebp
  00119	e8 00 00 00 00	 call	 @__security_check_cookie@4
  0011e	8b e5		 mov	 esp, ebp
  00120	5d		 pop	 ebp
  00121	c3		 ret	 0
$LN24@GetToken:
  00122	5e		 pop	 esi

; 77   : 		break;
; 78   : 
; 79   : 	case 0x7D:	// }
; 80   : 		return CurrentToken = RP;

  00123	c7 05 00 00 00
	00 7d 00 00 00	 mov	 DWORD PTR ?CurrentToken@@3W4SMDToken@@A, 125 ; 0000007dH
  0012d	b8 7d 00 00 00	 mov	 eax, 125		; 0000007dH
  00132	5b		 pop	 ebx

; 143  : 		}
; 144  : 		else
; 145  : 		{
; 146  : 			return CurrentToken = SMD_ERROR; // '<'
; 147  : 		}
; 148  : 		break;
; 149  : 
; 150  : 	}
; 151  : 
; 152  : 	return NAME;
; 153  : }

  00133	8b 4d fc	 mov	 ecx, DWORD PTR __$ArrayPad$[ebp]
  00136	33 cd		 xor	 ecx, ebp
  00138	e8 00 00 00 00	 call	 @__security_check_cookie@4
  0013d	8b e5		 mov	 esp, ebp
  0013f	5d		 pop	 ebp
  00140	c3		 ret	 0
$LN25@GetToken:

; 81   : 		break;
; 82   : 	// Nice Index Table :)	by Deathway
; 83   : 	// Numbers Case
; 84   : 	case 0x2D:	//-
; 85   : 	case 0x2E:	//.
; 86   : 	case '0':	//0
; 87   : 	case '1':	//1
; 88   : 	case '2':	//2
; 89   : 	case '3':	//3
; 90   : 	case '4':	//4		
; 91   : 	case '5':	//5
; 92   : 	case '6':	//6
; 93   : 	case '7':	//7
; 94   : 	case '8':	//8
; 95   : 	case '9':	//9
; 96   : 		ungetc(ch, SMDFile);

  00141	ff 35 00 00 00
	00		 push	 DWORD PTR ?SMDFile@@3PAU_iobuf@@A
  00147	53		 push	 ebx
  00148	e8 00 00 00 00	 call	 _ungetc

; 97   : 		p = TempString;
; 98   : 		
; 99   : 		while (((ch=getc(SMDFile)) != -1) && ((ch == 0x2E) || (isdigit(ch) != 0) || (ch == 0x2D)))  // 2e '.'  2D '-'

  0014d	ff 35 00 00 00
	00		 push	 DWORD PTR ?SMDFile@@3PAU_iobuf@@A
  00153	8d 75 98	 lea	 esi, DWORD PTR _TempString$[ebp]
  00156	e8 00 00 00 00	 call	 _getc
  0015b	8b d8		 mov	 ebx, eax
  0015d	83 c4 0c	 add	 esp, 12			; 0000000cH
  00160	83 fb ff	 cmp	 ebx, -1
  00163	74 2f		 je	 SHORT $LN59@GetToken
$LL9@GetToken:
  00165	83 fb 2e	 cmp	 ebx, 46			; 0000002eH
  00168	74 12		 je	 SHORT $LN26@GetToken
  0016a	53		 push	 ebx
  0016b	e8 00 00 00 00	 call	 _isdigit
  00170	83 c4 04	 add	 esp, 4
  00173	85 c0		 test	 eax, eax
  00175	75 05		 jne	 SHORT $LN26@GetToken
  00177	83 fb 2d	 cmp	 ebx, 45			; 0000002dH
  0017a	75 18		 jne	 SHORT $LN59@GetToken
$LN26@GetToken:
  0017c	ff 35 00 00 00
	00		 push	 DWORD PTR ?SMDFile@@3PAU_iobuf@@A

; 100  : 		{
; 101  : 			*p = ch;	// Construct a String

  00182	88 1e		 mov	 BYTE PTR [esi], bl

; 102  : 			p++;

  00184	46		 inc	 esi
  00185	e8 00 00 00 00	 call	 _getc
  0018a	8b d8		 mov	 ebx, eax
  0018c	83 c4 04	 add	 esp, 4
  0018f	83 fb ff	 cmp	 ebx, -1
  00192	75 d1		 jne	 SHORT $LL9@GetToken
$LN59@GetToken:

; 103  : 		}		
; 104  : 		*p = 0;
; 105  : 		TokenNumber = (float)atof( TempString);	// Select the first Byte as Main ID

  00194	8d 45 98	 lea	 eax, DWORD PTR _TempString$[ebp]
  00197	c6 06 00	 mov	 BYTE PTR [esi], 0
  0019a	50		 push	 eax
  0019b	e8 00 00 00 00	 call	 _atof
  001a0	83 c4 04	 add	 esp, 4

; 106  : 		return CurrentToken  = NUMBER ;

  001a3	c7 05 00 00 00
	00 01 00 00 00	 mov	 DWORD PTR ?CurrentToken@@3W4SMDToken@@A, 1
  001ad	d9 1d 00 00 00
	00		 fstp	 DWORD PTR ?TokenNumber@@3MA
  001b3	b8 01 00 00 00	 mov	 eax, 1
  001b8	5e		 pop	 esi
  001b9	5b		 pop	 ebx

; 143  : 		}
; 144  : 		else
; 145  : 		{
; 146  : 			return CurrentToken = SMD_ERROR; // '<'
; 147  : 		}
; 148  : 		break;
; 149  : 
; 150  : 	}
; 151  : 
; 152  : 	return NAME;
; 153  : }

  001ba	8b 4d fc	 mov	 ecx, DWORD PTR __$ArrayPad$[ebp]
  001bd	33 cd		 xor	 ecx, ebp
  001bf	e8 00 00 00 00	 call	 @__security_check_cookie@4
  001c4	8b e5		 mov	 esp, ebp
  001c6	5d		 pop	 ebp
  001c7	c3		 ret	 0
$LN27@GetToken:

; 107  : 		break;
; 108  : 
; 109  : 	case '\"':	// "	String Case
; 110  : 		p=&TokenString[0];
; 111  : 		
; 112  : 		while (((ch=getc(SMDFile)) != -1 ) && (ch != 0x22))	// nice

  001c8	ff 35 00 00 00
	00		 push	 DWORD PTR ?SMDFile@@3PAU_iobuf@@A
  001ce	be 00 00 00 00	 mov	 esi, OFFSET ?TokenString@@3PADA
  001d3	e8 00 00 00 00	 call	 _getc
  001d8	83 c4 04	 add	 esp, 4
  001db	83 f8 ff	 cmp	 eax, -1
  001de	74 1f		 je	 SHORT $LN12@GetToken
$LL11@GetToken:
  001e0	83 f8 22	 cmp	 eax, 34			; 00000022H
  001e3	0f 84 95 00 00
	00		 je	 $LN28@GetToken
  001e9	ff 35 00 00 00
	00		 push	 DWORD PTR ?SMDFile@@3PAU_iobuf@@A

; 113  : 		{
; 114  : 			*p = ch;

  001ef	88 06		 mov	 BYTE PTR [esi], al

; 115  : 			p++;

  001f1	46		 inc	 esi
  001f2	e8 00 00 00 00	 call	 _getc
  001f7	83 c4 04	 add	 esp, 4
  001fa	83 f8 ff	 cmp	 eax, -1
  001fd	75 e1		 jne	 SHORT $LL11@GetToken
$LN12@GetToken:

; 116  : 		}
; 117  : 		if (ch != 0x22 )

  001ff	83 f8 22	 cmp	 eax, 34			; 00000022H
  00202	74 7a		 je	 SHORT $LN28@GetToken

; 118  : 		{
; 119  : 			ungetc(ch, SMDFile);

  00204	ff 35 00 00 00
	00		 push	 DWORD PTR ?SMDFile@@3PAU_iobuf@@A
  0020a	50		 push	 eax

; 120  : 		}
; 121  : 		*p = 0;
; 122  : 		return CurrentToken = NAME;

  0020b	eb 69		 jmp	 SHORT $LN62@GetToken
$LN29@GetToken:

; 123  : 		break;
; 124  : 
; 125  : 	default:	// Others
; 126  : 		if (isalpha(ch))

  0020d	53		 push	 ebx
  0020e	e8 00 00 00 00	 call	 _isalpha
  00213	83 c4 04	 add	 esp, 4
  00216	85 c0		 test	 eax, eax
  00218	0f 84 7f 00 00
	00		 je	 $LN30@GetToken

; 127  : 		{
; 128  : 			p=&TokenString[0];
; 129  : 			*p=ch;
; 130  : 			p++;
; 131  : 
; 132  : 			while ( ((ch=getc(SMDFile)) != -1) && ( (ch == 0x2E) || (ch == 0x5F) || (isalnum(ch) != 0) ) )

  0021e	ff 35 00 00 00
	00		 push	 DWORD PTR ?SMDFile@@3PAU_iobuf@@A
  00224	88 1d 00 00 00
	00		 mov	 BYTE PTR ?TokenString@@3PADA, bl
  0022a	be 01 00 00 00	 mov	 esi, OFFSET ?TokenString@@3PADA+1
  0022f	e8 00 00 00 00	 call	 _getc
  00234	8b d8		 mov	 ebx, eax
  00236	83 c4 04	 add	 esp, 4
  00239	83 fb ff	 cmp	 ebx, -1
  0023c	74 31		 je	 SHORT $LN60@GetToken
  0023e	66 90		 npad	 2
$LL13@GetToken:
  00240	83 fb 2e	 cmp	 ebx, 46			; 0000002eH
  00243	74 12		 je	 SHORT $LN32@GetToken
  00245	83 fb 5f	 cmp	 ebx, 95			; 0000005fH
  00248	74 0d		 je	 SHORT $LN32@GetToken
  0024a	53		 push	 ebx
  0024b	e8 00 00 00 00	 call	 _isalnum
  00250	83 c4 04	 add	 esp, 4
  00253	85 c0		 test	 eax, eax
  00255	74 18		 je	 SHORT $LN60@GetToken
$LN32@GetToken:
  00257	ff 35 00 00 00
	00		 push	 DWORD PTR ?SMDFile@@3PAU_iobuf@@A

; 133  : 			{
; 134  : 				*p=ch;

  0025d	88 1e		 mov	 BYTE PTR [esi], bl

; 135  : 				p++;

  0025f	46		 inc	 esi
  00260	e8 00 00 00 00	 call	 _getc
  00265	8b d8		 mov	 ebx, eax
  00267	83 c4 04	 add	 esp, 4
  0026a	83 fb ff	 cmp	 ebx, -1
  0026d	75 d1		 jne	 SHORT $LL13@GetToken
$LN60@GetToken:

; 136  : 				
; 137  : 			}
; 138  : 
; 139  : 			ungetc(ch, SMDFile);

  0026f	ff 35 00 00 00
	00		 push	 DWORD PTR ?SMDFile@@3PAU_iobuf@@A
  00275	53		 push	 ebx
$LN62@GetToken:
  00276	e8 00 00 00 00	 call	 _ungetc
  0027b	83 c4 08	 add	 esp, 8
$LN28@GetToken:

; 140  : 			*p=0;

  0027e	c6 06 00	 mov	 BYTE PTR [esi], 0

; 141  : 			CurrentToken=NAME;
; 142  : 			return CurrentToken;

  00281	33 c0		 xor	 eax, eax
  00283	5e		 pop	 esi
  00284	c7 05 00 00 00
	00 00 00 00 00	 mov	 DWORD PTR ?CurrentToken@@3W4SMDToken@@A, 0
  0028e	5b		 pop	 ebx

; 143  : 		}
; 144  : 		else
; 145  : 		{
; 146  : 			return CurrentToken = SMD_ERROR; // '<'
; 147  : 		}
; 148  : 		break;
; 149  : 
; 150  : 	}
; 151  : 
; 152  : 	return NAME;
; 153  : }

  0028f	8b 4d fc	 mov	 ecx, DWORD PTR __$ArrayPad$[ebp]
  00292	33 cd		 xor	 ecx, ebp
  00294	e8 00 00 00 00	 call	 @__security_check_cookie@4
  00299	8b e5		 mov	 esp, ebp
  0029b	5d		 pop	 ebp
  0029c	c3		 ret	 0
$LN30@GetToken:
  0029d	8b 4d fc	 mov	 ecx, DWORD PTR __$ArrayPad$[ebp]
  002a0	b8 3c 00 00 00	 mov	 eax, 60			; 0000003cH
  002a5	5e		 pop	 esi
  002a6	33 cd		 xor	 ecx, ebp
  002a8	c7 05 00 00 00
	00 3c 00 00 00	 mov	 DWORD PTR ?CurrentToken@@3W4SMDToken@@A, 60 ; 0000003cH
  002b2	5b		 pop	 ebx
  002b3	e8 00 00 00 00	 call	 @__security_check_cookie@4
  002b8	8b e5		 mov	 esp, ebp
  002ba	5d		 pop	 ebp
  002bb	c3		 ret	 0
$LN64@GetToken:
  002bc	00 00 00 00	 DD	 $LN27@GetToken
  002c0	00 00 00 00	 DD	 $LN20@GetToken
  002c4	00 00 00 00	 DD	 $LN22@GetToken
  002c8	00 00 00 00	 DD	 $LN25@GetToken
  002cc	00 00 00 00	 DD	 $LN21@GetToken
  002d0	00 00 00 00	 DD	 $LN23@GetToken
  002d4	00 00 00 00	 DD	 $LN24@GetToken
  002d8	00 00 00 00	 DD	 $LN29@GetToken
$LN58@GetToken:
  002dc	00		 DB	 0
  002dd	01		 DB	 1
  002de	07		 DB	 7
  002df	07		 DB	 7
  002e0	07		 DB	 7
  002e1	07		 DB	 7
  002e2	07		 DB	 7
  002e3	07		 DB	 7
  002e4	07		 DB	 7
  002e5	07		 DB	 7
  002e6	02		 DB	 2
  002e7	03		 DB	 3
  002e8	03		 DB	 3
  002e9	07		 DB	 7
  002ea	03		 DB	 3
  002eb	03		 DB	 3
  002ec	03		 DB	 3
  002ed	03		 DB	 3
  002ee	03		 DB	 3
  002ef	03		 DB	 3
  002f0	03		 DB	 3
  002f1	03		 DB	 3
  002f2	03		 DB	 3
  002f3	03		 DB	 3
  002f4	07		 DB	 7
  002f5	04		 DB	 4
  002f6	07		 DB	 7
  002f7	07		 DB	 7
  002f8	07		 DB	 7
  002f9	07		 DB	 7
  002fa	07		 DB	 7
  002fb	07		 DB	 7
  002fc	07		 DB	 7
  002fd	07		 DB	 7
  002fe	07		 DB	 7
  002ff	07		 DB	 7
  00300	07		 DB	 7
  00301	07		 DB	 7
  00302	07		 DB	 7
  00303	07		 DB	 7
  00304	07		 DB	 7
  00305	07		 DB	 7
  00306	07		 DB	 7
  00307	07		 DB	 7
  00308	07		 DB	 7
  00309	07		 DB	 7
  0030a	07		 DB	 7
  0030b	07		 DB	 7
  0030c	07		 DB	 7
  0030d	07		 DB	 7
  0030e	07		 DB	 7
  0030f	07		 DB	 7
  00310	07		 DB	 7
  00311	07		 DB	 7
  00312	07		 DB	 7
  00313	07		 DB	 7
  00314	07		 DB	 7
  00315	07		 DB	 7
  00316	07		 DB	 7
  00317	07		 DB	 7
  00318	07		 DB	 7
  00319	07		 DB	 7
  0031a	07		 DB	 7
  0031b	07		 DB	 7
  0031c	07		 DB	 7
  0031d	07		 DB	 7
  0031e	07		 DB	 7
  0031f	07		 DB	 7
  00320	07		 DB	 7
  00321	07		 DB	 7
  00322	07		 DB	 7
  00323	07		 DB	 7
  00324	07		 DB	 7
  00325	07		 DB	 7
  00326	07		 DB	 7
  00327	07		 DB	 7
  00328	07		 DB	 7
  00329	07		 DB	 7
  0032a	07		 DB	 7
  0032b	07		 DB	 7
  0032c	07		 DB	 7
  0032d	07		 DB	 7
  0032e	07		 DB	 7
  0032f	07		 DB	 7
  00330	07		 DB	 7
  00331	07		 DB	 7
  00332	07		 DB	 7
  00333	07		 DB	 7
  00334	07		 DB	 7
  00335	05		 DB	 5
  00336	07		 DB	 7
  00337	06		 DB	 6
?GetToken@@YA?AW4SMDToken@@XZ ENDP			; GetToken
_TEXT	ENDS
; Function compile flags: /Ogtp
; File c:\users\michel\desktop\source\gameserver\common\zzzitem.cpp
;	COMDAT ?GetItemAttr@@YAPAUITEM_ATTRIBUTE@@H@Z
_TEXT	SEGMENT
_item_num$ = 8						; size = 4
?GetItemAttr@@YAPAUITEM_ATTRIBUTE@@H@Z PROC		; GetItemAttr, COMDAT

; 5767 : {

  00000	55		 push	 ebp
  00001	8b ec		 mov	 ebp, esp

; 5768 : 	if ( item_num < 0 || item_num >= MAX_ITEMS )

  00003	8b 45 08	 mov	 eax, DWORD PTR _item_num$[ebp]
  00006	3d ff 1f 00 00	 cmp	 eax, 8191		; 00001fffH
  0000b	77 0a		 ja	 SHORT $LN3@GetItemAtt

; 5771 : 	}
; 5772 : 
; 5773 : 	return &ItemAttribute[item_num];

  0000d	6b c0 70	 imul	 eax, eax, 112
  00010	05 00 00 00 00	 add	 eax, OFFSET ?ItemAttribute@@3PAUITEM_ATTRIBUTE@@A ; ItemAttribute

; 5774 : }

  00015	5d		 pop	 ebp
  00016	c3		 ret	 0
$LN3@GetItemAtt:

; 5769 : 	{
; 5770 : 		return NULL;

  00017	33 c0		 xor	 eax, eax

; 5774 : }

  00019	5d		 pop	 ebp
  0001a	c3		 ret	 0
?GetItemAttr@@YAPAUITEM_ATTRIBUTE@@H@Z ENDP		; GetItemAttr
_TEXT	ENDS
; Function compile flags: /Ogtp
; File c:\users\michel\desktop\source\gameserver\common\zzzitem.cpp
;	COMDAT ?IsItem@@YAHH@Z
_TEXT	SEGMENT
_item_num$ = 8						; size = 4
?IsItem@@YAHH@Z PROC					; IsItem, COMDAT

; 5754 : {

  00000	55		 push	 ebp
  00001	8b ec		 mov	 ebp, esp

; 5755 : 	if ( item_num < 0 || item_num >= MAX_ITEMS )

  00003	8b 45 08	 mov	 eax, DWORD PTR _item_num$[ebp]
  00006	3d ff 1f 00 00	 cmp	 eax, 8191		; 00001fffH
  0000b	77 0c		 ja	 SHORT $LN3@IsItem

; 5758 : 	}
; 5759 : 
; 5760 : 	return ItemAttribute[item_num].HaveItemInfo;

  0000d	6b c0 70	 imul	 eax, eax, 112
  00010	0f b6 80 20 00
	00 00		 movzx	 eax, BYTE PTR ?ItemAttribute@@3PAUITEM_ATTRIBUTE@@A[eax+32]

; 5761 : }

  00017	5d		 pop	 ebp
  00018	c3		 ret	 0
$LN3@IsItem:

; 5756 : 	{
; 5757 : 		return 0;

  00019	33 c0		 xor	 eax, eax

; 5761 : }

  0001b	5d		 pop	 ebp
  0001c	c3		 ret	 0
?IsItem@@YAHH@Z ENDP					; IsItem
_TEXT	ENDS
; Function compile flags: /Ogtp
; File c:\users\michel\desktop\source\gameserver\common\zzzitem.cpp
;	COMDAT ?GetSerialItem@@YAHH@Z
_TEXT	SEGMENT
_type$ = 8						; size = 4
?GetSerialItem@@YAHH@Z PROC				; GetSerialItem, COMDAT

; 5736 : {

  00000	55		 push	 ebp
  00001	8b ec		 mov	 ebp, esp

; 5737 : 	int item_num = type;
; 5738 : 
; 5739 : 	if ( ItemAttribute[item_num].Level == 0xFF )

  00003	6b 4d 08 70	 imul	 ecx, DWORD PTR _type$[ebp], 112
  00007	80 b9 22 00 00
	00 ff		 cmp	 BYTE PTR ?ItemAttribute@@3PAUITEM_ATTRIBUTE@@A[ecx+34], 255 ; 000000ffH
  0000e	75 05		 jne	 SHORT $LN2@GetSerialI

; 5740 : 	{
; 5741 : 		return -1;

  00010	83 c8 ff	 or	 eax, -1

; 5744 : 	{
; 5745 : 		return 0;
; 5746 : 	}
; 5747 : 	return 1;
; 5748 : }

  00013	5d		 pop	 ebp
  00014	c3		 ret	 0
$LN2@GetSerialI:

; 5742 : 	}
; 5743 : 	if ( ItemAttribute[item_num].Serial  == 0 )

  00015	33 c0		 xor	 eax, eax
  00017	38 81 25 00 00
	00		 cmp	 BYTE PTR ?ItemAttribute@@3PAUITEM_ATTRIBUTE@@A[ecx+37], al
  0001d	0f 95 c0	 setne	 al

; 5744 : 	{
; 5745 : 		return 0;
; 5746 : 	}
; 5747 : 	return 1;
; 5748 : }

  00020	5d		 pop	 ebp
  00021	c3		 ret	 0
?GetSerialItem@@YAHH@Z ENDP				; GetSerialItem
_TEXT	ENDS
; Function compile flags: /Ogtp
; File c:\users\michel\desktop\source\gameserver\common\zzzitem.cpp
;	COMDAT ?GetLevelItem@@YAHHHH@Z
_TEXT	SEGMENT
_type$ = 8						; size = 4
_index$ = 12						; size = 4
_level$ = 16						; size = 4
?GetLevelItem@@YAHHHH@Z PROC				; GetLevelItem, COMDAT

; 5598 : {

  00000	55		 push	 ebp
  00001	8b ec		 mov	 ebp, esp

; 5599 : 	int item_num;
; 5600 : 	int itemlevel;
; 5601 : 
; 5602 : 	if ( level < 0 )
; 5603 : 	{
; 5604 : 		level = 0;
; 5605 : 	}
; 5606 : 
; 5607 : 	item_num = (type * MAX_SUBTYPE_ITEMS) + index;

  00003	8b 4d 0c	 mov	 ecx, DWORD PTR _index$[ebp]
  00006	33 c0		 xor	 eax, eax
  00008	56		 push	 esi
  00009	8b 75 10	 mov	 esi, DWORD PTR _level$[ebp]
  0000c	85 f6		 test	 esi, esi
  0000e	57		 push	 edi
  0000f	8b 7d 08	 mov	 edi, DWORD PTR _type$[ebp]
  00012	0f 48 f0	 cmovs	 esi, eax
  00015	8b c7		 mov	 eax, edi
  00017	c1 e0 09	 shl	 eax, 9
  0001a	03 c1		 add	 eax, ecx

; 5608 : 
; 5609 : 	if (ItemAttribute[item_num].MondownFlag  == 0)

  0001c	6b c0 70	 imul	 eax, eax, 112
  0001f	80 b8 27 00 00
	00 00		 cmp	 BYTE PTR ?ItemAttribute@@3PAUITEM_ATTRIBUTE@@A[eax+39], 0
  00026	0f 84 52 01 00
	00		 je	 $LN20@GetLevelIt

; 5610 : 	{
; 5611 : 		return -1;
; 5612 : 	}
; 5613 : 
; 5614 : 	if ( ItemAttribute[item_num].Level == 0xFF )

  0002c	8a 80 22 00 00
	00		 mov	 al, BYTE PTR ?ItemAttribute@@3PAUITEM_ATTRIBUTE@@A[eax+34]
  00032	3c ff		 cmp	 al, 255			; 000000ffH
  00034	0f 84 44 01 00
	00		 je	 $LN20@GetLevelIt

; 5615 : 	{
; 5616 : 		return -1;
; 5617 : 	}
; 5618 : 
; 5619 : 	if ( ItemAttribute[item_num].Level == 0 )

  0003a	84 c0		 test	 al, al
  0003c	0f 84 3c 01 00
	00		 je	 $LN20@GetLevelIt

; 5620 : 	{
; 5621 : 		return -1;
; 5622 : 	}
; 5623 : 
; 5624 : 	if ( type == 14 )

  00042	83 ff 0e	 cmp	 edi, 14			; 0000000eH
  00045	75 25		 jne	 SHORT $LN6@GetLevelIt

; 5625 : 	{
; 5626 : 		itemlevel = ItemAttribute[item_num].Level;

  00047	0f b6 d0	 movzx	 edx, al

; 5627 : 
; 5628 : 		if ( index == 15 )

  0004a	83 f9 0f	 cmp	 ecx, 15			; 0000000fH
  0004d	0f 84 2b 01 00
	00		 je	 $LN20@GetLevelIt

; 5629 : 		{
; 5630 : 			return -1;
; 5631 : 		}
; 5632 : 
; 5633 : 		if ( itemlevel >= (level-8) )

  00053	8d 46 f8	 lea	 eax, DWORD PTR [esi-8]
  00056	3b d0		 cmp	 edx, eax
  00058	0f 8c 20 01 00
	00		 jl	 $LN20@GetLevelIt

; 5634 : 		{
; 5635 : 			if ( itemlevel <= level )

  0005e	3b d6		 cmp	 edx, esi
  00060	0f 8f 18 01 00
	00		 jg	 $LN20@GetLevelIt
$LN28@GetLevelIt:
  00066	5f		 pop	 edi

; 5636 : 			{
; 5637 : 				return 0;

  00067	33 c0		 xor	 eax, eax
  00069	5e		 pop	 esi

; 5732 : }

  0006a	5d		 pop	 ebp
  0006b	c3		 ret	 0
$LN6@GetLevelIt:

; 5638 : 			}
; 5639 : 		}
; 5640 : 
; 5641 : 		return -1;
; 5642 : 	}
; 5643 : 
; 5644 : 	if ( type == 13 && index == 10  )

  0006c	83 ff 0d	 cmp	 edi, 13			; 0000000dH
  0006f	75 49		 jne	 SHORT $LN10@GetLevelIt
  00071	83 f9 0a	 cmp	 ecx, 10			; 0000000aH
  00074	0f 85 8a 00 00
	00		 jne	 $LN15@GetLevelIt

; 5645 : 	{
; 5646 : 		int ilevel;
; 5647 : 
; 5648 : 		if ( (rand()%10) == 0 )

  0007a	e8 00 00 00 00	 call	 _rand
  0007f	99		 cdq
  00080	b9 0a 00 00 00	 mov	 ecx, 10			; 0000000aH
  00085	f7 f9		 idiv	 ecx
  00087	85 d2		 test	 edx, edx
  00089	0f 85 ef 00 00
	00		 jne	 $LN20@GetLevelIt

; 5649 : 		{
; 5650 : 			ilevel = 0;
; 5651 : 
; 5652 : 			if ( level < 0 )

  0008f	33 c0		 xor	 eax, eax
  00091	85 f6		 test	 esi, esi
  00093	0f 48 f0	 cmovs	 esi, eax

; 5653 : 			{
; 5654 : 				level = 0;
; 5655 : 			}
; 5656 : 
; 5657 : 			ilevel= level/10;

  00096	b8 67 66 66 66	 mov	 eax, 1717986919		; 66666667H
  0009b	f7 ee		 imul	 esi
  0009d	c1 fa 02	 sar	 edx, 2
  000a0	8b c2		 mov	 eax, edx
  000a2	c1 e8 1f	 shr	 eax, 31			; 0000001fH
  000a5	03 c2		 add	 eax, edx

; 5658 : 
; 5659 : 			if ( ilevel > 0 )

  000a7	85 c0		 test	 eax, eax
  000a9	7e 01		 jle	 SHORT $LN13@GetLevelIt

; 5660 : 			{
; 5661 : 				ilevel--;

  000ab	48		 dec	 eax
$LN13@GetLevelIt:

; 5662 : 			}
; 5663 : 
; 5664 : 			if ( ilevel > 5)

  000ac	b9 05 00 00 00	 mov	 ecx, 5
  000b1	3b c1		 cmp	 eax, ecx
  000b3	5f		 pop	 edi

; 5720 : 			{
; 5721 : 				if ( itemlevel > 4 )

  000b4	0f 4f c1	 cmovg	 eax, ecx
  000b7	5e		 pop	 esi

; 5732 : }

  000b8	5d		 pop	 ebp
  000b9	c3		 ret	 0
$LN10@GetLevelIt:

; 5665 : 			{
; 5666 : 				ilevel = 5;
; 5667 : 			}
; 5668 : 
; 5669 : 			return ilevel;
; 5670 : 		}
; 5671 : 
; 5672 : 		return -1;
; 5673 : 	}
; 5674 : 
; 5675 : 	if ( type == 12 && index ==  11 )

  000ba	83 ff 0c	 cmp	 edi, 12			; 0000000cH
  000bd	75 45		 jne	 SHORT $LN15@GetLevelIt
  000bf	83 f9 0b	 cmp	 ecx, 11			; 0000000bH
  000c2	75 40		 jne	 SHORT $LN15@GetLevelIt

; 5676 : 	{
; 5677 : 		int ilevel;
; 5678 : 
; 5679 : 		if ( (rand()%10) == 0 )

  000c4	e8 00 00 00 00	 call	 _rand
  000c9	99		 cdq
  000ca	b9 0a 00 00 00	 mov	 ecx, 10			; 0000000aH
  000cf	f7 f9		 idiv	 ecx
  000d1	85 d2		 test	 edx, edx
  000d3	0f 85 a5 00 00
	00		 jne	 $LN20@GetLevelIt

; 5680 : 		{
; 5681 : 			ilevel = 0;
; 5682 : 
; 5683 : 			if ( level < 0 )

  000d9	33 c0		 xor	 eax, eax
  000db	85 f6		 test	 esi, esi
  000dd	0f 48 f0	 cmovs	 esi, eax

; 5684 : 			{
; 5685 : 				level = 0;
; 5686 : 			}
; 5687 : 
; 5688 : 			ilevel= level/10;

  000e0	b8 67 66 66 66	 mov	 eax, 1717986919		; 66666667H
  000e5	f7 ee		 imul	 esi
  000e7	c1 fa 02	 sar	 edx, 2
  000ea	8b c2		 mov	 eax, edx
  000ec	c1 e8 1f	 shr	 eax, 31			; 0000001fH
  000ef	03 c2		 add	 eax, edx

; 5689 : 
; 5690 : 			if ( ilevel > 0 )

  000f1	85 c0		 test	 eax, eax
  000f3	7e 01		 jle	 SHORT $LN18@GetLevelIt

; 5691 : 			{
; 5692 : 				ilevel--;

  000f5	48		 dec	 eax
$LN18@GetLevelIt:

; 5693 : 			}
; 5694 : 
; 5695 : 			if ( ilevel > 6)

  000f6	b9 06 00 00 00	 mov	 ecx, 6
  000fb	3b c1		 cmp	 eax, ecx
  000fd	5f		 pop	 edi

; 5720 : 			{
; 5721 : 				if ( itemlevel > 4 )

  000fe	0f 4f c1	 cmovg	 eax, ecx
  00101	5e		 pop	 esi

; 5732 : }

  00102	5d		 pop	 ebp
  00103	c3		 ret	 0
$LN15@GetLevelIt:

; 5696 : 			{
; 5697 : 				ilevel = 6;
; 5698 : 			}
; 5699 : 
; 5700 : 			return ilevel;
; 5701 : 		}
; 5702 : 
; 5703 : 		return -1;
; 5704 : 	}	
; 5705 : 
; 5706 : 	itemlevel = ItemAttribute[item_num].Level;

  00104	0f b6 d0	 movzx	 edx, al

; 5707 : 	
; 5708 : 	if ( itemlevel >= level - 18 && itemlevel <= level)

  00107	8d 46 ee	 lea	 eax, DWORD PTR [esi-18]
  0010a	3b d0		 cmp	 edx, eax
  0010c	7c 70		 jl	 SHORT $LN20@GetLevelIt
  0010e	3b d6		 cmp	 edx, esi
  00110	7f 6c		 jg	 SHORT $LN20@GetLevelIt

; 5709 : 	{
; 5710 : 		if ( type == 15 )

  00112	83 ff 0f	 cmp	 edi, 15			; 0000000fH
  00115	0f 84 4b ff ff
	ff		 je	 $LN28@GetLevelIt

; 5711 : 		{
; 5712 : 			return 0;
; 5713 : 		}
; 5714 : 
; 5715 : 		itemlevel = (level - itemlevel)/3;

  0011b	2b f2		 sub	 esi, edx
  0011d	b8 56 55 55 55	 mov	 eax, 1431655766		; 55555556H
  00122	f7 ee		 imul	 esi
  00124	8b c2		 mov	 eax, edx
  00126	c1 e8 1f	 shr	 eax, 31			; 0000001fH
  00129	03 c2		 add	 eax, edx

; 5716 : 
; 5717 : 		if ( type == 13 )

  0012b	83 ff 0d	 cmp	 edi, 13			; 0000000dH
  0012e	75 51		 jne	 SHORT $LN1@GetLevelIt

; 5718 : 		{
; 5719 : 			if ( index == 8 || index == 9 || index == 12 || index == 13 || index == 20 || index == 21 || index == 22 || index == 23 || index == 24 || index == 25 || index == 26 || index == 27 || index == 28 )

  00130	83 f9 08	 cmp	 ecx, 8
  00133	74 3b		 je	 SHORT $LN24@GetLevelIt
  00135	83 f9 09	 cmp	 ecx, 9
  00138	74 36		 je	 SHORT $LN24@GetLevelIt
  0013a	83 f9 0c	 cmp	 ecx, 12			; 0000000cH
  0013d	74 31		 je	 SHORT $LN24@GetLevelIt
  0013f	3b cf		 cmp	 ecx, edi
  00141	74 2d		 je	 SHORT $LN24@GetLevelIt
  00143	83 f9 14	 cmp	 ecx, 20			; 00000014H
  00146	74 28		 je	 SHORT $LN24@GetLevelIt
  00148	83 f9 15	 cmp	 ecx, 21			; 00000015H
  0014b	74 23		 je	 SHORT $LN24@GetLevelIt
  0014d	83 f9 16	 cmp	 ecx, 22			; 00000016H
  00150	74 1e		 je	 SHORT $LN24@GetLevelIt
  00152	83 f9 17	 cmp	 ecx, 23			; 00000017H
  00155	74 19		 je	 SHORT $LN24@GetLevelIt
  00157	83 f9 18	 cmp	 ecx, 24			; 00000018H
  0015a	74 14		 je	 SHORT $LN24@GetLevelIt
  0015c	83 f9 19	 cmp	 ecx, 25			; 00000019H
  0015f	74 0f		 je	 SHORT $LN24@GetLevelIt
  00161	83 f9 1a	 cmp	 ecx, 26			; 0000001aH
  00164	74 0a		 je	 SHORT $LN24@GetLevelIt
  00166	83 f9 1b	 cmp	 ecx, 27			; 0000001bH
  00169	74 05		 je	 SHORT $LN24@GetLevelIt
  0016b	83 f9 1c	 cmp	 ecx, 28			; 0000001cH
  0016e	75 11		 jne	 SHORT $LN1@GetLevelIt
$LN24@GetLevelIt:

; 5720 : 			{
; 5721 : 				if ( itemlevel > 4 )

  00170	b9 04 00 00 00	 mov	 ecx, 4
  00175	3b c1		 cmp	 eax, ecx
  00177	5f		 pop	 edi
  00178	0f 4f c1	 cmovg	 eax, ecx
  0017b	5e		 pop	 esi

; 5732 : }

  0017c	5d		 pop	 ebp
  0017d	c3		 ret	 0
$LN20@GetLevelIt:

; 5722 : 				{
; 5723 : 					itemlevel=4;
; 5724 : 				}
; 5725 : 			}
; 5726 : 		}
; 5727 : 
; 5728 : 		return itemlevel;
; 5729 : 		
; 5730 : 	}
; 5731 : 	return -1;

  0017e	83 c8 ff	 or	 eax, -1
$LN1@GetLevelIt:
  00181	5f		 pop	 edi
  00182	5e		 pop	 esi

; 5732 : }

  00183	5d		 pop	 ebp
  00184	c3		 ret	 0
?GetLevelItem@@YAHHHH@Z ENDP				; GetLevelItem
_TEXT	ENDS
; Function compile flags: /Ogtp
; File c:\users\michel\desktop\source\gameserver\common\zzzitem.cpp
;	COMDAT ?zzzItemLevel@@YAHHHH@Z
_TEXT	SEGMENT
_type$ = 8						; size = 4
_index$ = 12						; size = 4
_level$ = 16						; size = 4
?zzzItemLevel@@YAHHHH@Z PROC				; zzzItemLevel, COMDAT

; 5567 : {

  00000	55		 push	 ebp
  00001	8b ec		 mov	 ebp, esp

; 5568 : 	int item_num = (type*MAX_SUBTYPE_ITEMS)+index ;

  00003	8b 45 08	 mov	 eax, DWORD PTR _type$[ebp]

; 5569 : 
; 5570 : 	if (level < 0 )

  00006	33 c9		 xor	 ecx, ecx
  00008	8b 55 10	 mov	 edx, DWORD PTR _level$[ebp]
  0000b	c1 e0 09	 shl	 eax, 9
  0000e	03 45 0c	 add	 eax, DWORD PTR _index$[ebp]
  00011	85 d2		 test	 edx, edx
  00013	0f 48 d1	 cmovs	 edx, ecx

; 5571 : 	{
; 5572 : 		level = 0;
; 5573 : 	}
; 5574 : 	
; 5575 : 	if ( ItemAttribute[item_num].Level == (BYTE)-1 )

  00016	6b c0 70	 imul	 eax, eax, 112
  00019	8a 80 22 00 00
	00		 mov	 al, BYTE PTR ?ItemAttribute@@3PAUITEM_ATTRIBUTE@@A[eax+34]
  0001f	3c ff		 cmp	 al, 255			; 000000ffH
  00021	75 04		 jne	 SHORT $LN3@zzzItemLev
$LN7@zzzItemLev:

; 5576 : 	{
; 5577 : 		return 0;

  00023	33 c0		 xor	 eax, eax

; 5586 : 	{
; 5587 : 		return 1;
; 5588 : 	}
; 5589 : 
; 5590 : 	return 0;
; 5591 : }

  00025	5d		 pop	 ebp
  00026	c3		 ret	 0
$LN3@zzzItemLev:

; 5578 : 	}
; 5579 : 
; 5580 : 	if ( ItemAttribute[item_num].Level == 0 )

  00027	84 c0		 test	 al, al
  00029	74 f8		 je	 SHORT $LN7@zzzItemLev

; 5581 : 	{
; 5582 : 		return 0;
; 5583 : 	}
; 5584 : 
; 5585 : 	if ( ItemAttribute[item_num].Level < level )

  0002b	0f b6 c8	 movzx	 ecx, al
  0002e	33 c0		 xor	 eax, eax
  00030	3b ca		 cmp	 ecx, edx
  00032	0f 9c c0	 setl	 al

; 5586 : 	{
; 5587 : 		return 1;
; 5588 : 	}
; 5589 : 
; 5590 : 	return 0;
; 5591 : }

  00035	5d		 pop	 ebp
  00036	c3		 ret	 0
?zzzItemLevel@@YAHHHH@Z ENDP				; zzzItemLevel
_TEXT	ENDS
; Function compile flags: /Ogtp
; File c:\users\michel\desktop\source\gameserver\common\zzzitem.cpp
;	COMDAT ?OpenItemNameScript@@YAHPADH@Z
_TEXT	SEGMENT
_WzMemScript$ = -148					; size = 132
__$ArrayPad$ = -16					; size = 4
__$EHRec$ = -12						; size = 12
_Buffer$ = 8						; size = 4
_iSize$ = 12						; size = 4
?OpenItemNameScript@@YAHPADH@Z PROC			; OpenItemNameScript, COMDAT

; 5515 : {

  00000	55		 push	 ebp
  00001	8b ec		 mov	 ebp, esp
  00003	6a ff		 push	 -1
  00005	68 00 00 00 00	 push	 __ehhandler$?OpenItemNameScript@@YAHPADH@Z
  0000a	64 a1 00 00 00
	00		 mov	 eax, DWORD PTR fs:0
  00010	50		 push	 eax
  00011	81 ec 88 00 00
	00		 sub	 esp, 136		; 00000088H
  00017	a1 00 00 00 00	 mov	 eax, DWORD PTR ___security_cookie
  0001c	33 c5		 xor	 eax, ebp
  0001e	89 45 f0	 mov	 DWORD PTR __$ArrayPad$[ebp], eax
  00021	53		 push	 ebx
  00022	56		 push	 esi
  00023	57		 push	 edi
  00024	50		 push	 eax
  00025	8d 45 f4	 lea	 eax, DWORD PTR __$EHRec$[ebp]
  00028	64 a3 00 00 00
	00		 mov	 DWORD PTR fs:0, eax
  0002e	8b 75 08	 mov	 esi, DWORD PTR _Buffer$[ebp]

; 5516 : 	CWzMemScript WzMemScript;

  00031	8d 8d 6c ff ff
	ff		 lea	 ecx, DWORD PTR _WzMemScript$[ebp]
  00037	e8 00 00 00 00	 call	 ??0CWzMemScript@@QAE@XZ	; CWzMemScript::CWzMemScript

; 5517 : 	int Token;
; 5518 : 
; 5519 : 	WzMemScript.SetBuffer(Buffer, iSize);

  0003c	ff 75 0c	 push	 DWORD PTR _iSize$[ebp]
  0003f	8d 8d 6c ff ff
	ff		 lea	 ecx, DWORD PTR _WzMemScript$[ebp]
  00045	c7 45 fc 00 00
	00 00		 mov	 DWORD PTR __$EHRec$[ebp+8], 0
  0004c	56		 push	 esi
  0004d	e8 00 00 00 00	 call	 ?SetBuffer@CWzMemScript@@QAEHPADH@Z ; CWzMemScript::SetBuffer

; 5520 : 
; 5521 : 	while ( true )
; 5522 : 	{
; 5523 : 		Token = WzMemScript.GetToken();

  00052	8d 8d 6c ff ff
	ff		 lea	 ecx, DWORD PTR _WzMemScript$[ebp]
  00058	e8 00 00 00 00	 call	 ?GetToken@CWzMemScript@@QAE?AW4SMDToken@@XZ ; CWzMemScript::GetToken

; 5524 : 
; 5525 : 		if ( Token == 2 )

  0005d	83 f8 02	 cmp	 eax, 2
  00060	0f 84 c1 00 00
	00		 je	 $LN18@OpenItemNa
$LL2@OpenItemNa:

; 5526 : 		{
; 5527 : 			break;
; 5528 : 		}
; 5529 : 
; 5530 : 		if ( Token == 1 )

  00066	83 f8 01	 cmp	 eax, 1
  00069	0f 85 a4 00 00
	00		 jne	 $LN17@OpenItemNa

; 5531 : 		{
; 5532 : 			int ItemType;
; 5533 : 
; 5534 : 			ItemType = WzMemScript.GetNumber();

  0006f	8d 8d 6c ff ff
	ff		 lea	 ecx, DWORD PTR _WzMemScript$[ebp]
  00075	e8 00 00 00 00	 call	 ?GetNumber@CWzMemScript@@QAEHXZ ; CWzMemScript::GetNumber
  0007a	8b d8		 mov	 ebx, eax
  0007c	0f 1f 40 00	 npad	 4
$LL4@OpenItemNa:

; 5535 : 
; 5536 : 			while ( true )
; 5537 : 			{
; 5538 : 				int ItemSubType;
; 5539 : 				LPITEM_ATTRIBUTE p;
; 5540 : 
; 5541 : 				Token = WzMemScript.GetToken();

  00080	8d 8d 6c ff ff
	ff		 lea	 ecx, DWORD PTR _WzMemScript$[ebp]
  00086	e8 00 00 00 00	 call	 ?GetToken@CWzMemScript@@QAE?AW4SMDToken@@XZ ; CWzMemScript::GetToken

; 5542 : 				ItemSubType = WzMemScript.GetNumber();

  0008b	8d 8d 6c ff ff
	ff		 lea	 ecx, DWORD PTR _WzMemScript$[ebp]
  00091	8b f0		 mov	 esi, eax
  00093	e8 00 00 00 00	 call	 ?GetNumber@CWzMemScript@@QAEHXZ ; CWzMemScript::GetNumber
  00098	8b f8		 mov	 edi, eax

; 5543 : 				
; 5544 : 				if ( Token == 0 )

  0009a	85 f6		 test	 esi, esi
  0009c	75 3b		 jne	 SHORT $LN9@OpenItemNa

; 5545 : 				{
; 5546 : 					if ( strcmp("end", WzMemScript.GetString() ) == 0 )

  0009e	8d 8d 6c ff ff
	ff		 lea	 ecx, DWORD PTR _WzMemScript$[ebp]
  000a4	e8 00 00 00 00	 call	 ?GetString@CWzMemScript@@QAEPADXZ ; CWzMemScript::GetString
  000a9	b9 00 00 00 00	 mov	 ecx, OFFSET ??_C@_03JBJLGPFL@end?$AA@
  000ae	66 90		 npad	 2
$LL25@OpenItemNa:
  000b0	8a 11		 mov	 dl, BYTE PTR [ecx]
  000b2	3a 10		 cmp	 dl, BYTE PTR [eax]
  000b4	75 1a		 jne	 SHORT $LN26@OpenItemNa
  000b6	84 d2		 test	 dl, dl
  000b8	74 12		 je	 SHORT $LN27@OpenItemNa
  000ba	8a 51 01	 mov	 dl, BYTE PTR [ecx+1]
  000bd	3a 50 01	 cmp	 dl, BYTE PTR [eax+1]
  000c0	75 0e		 jne	 SHORT $LN26@OpenItemNa
  000c2	83 c1 02	 add	 ecx, 2
  000c5	83 c0 02	 add	 eax, 2
  000c8	84 d2		 test	 dl, dl
  000ca	75 e4		 jne	 SHORT $LL25@OpenItemNa
$LN27@OpenItemNa:
  000cc	33 c0		 xor	 eax, eax
  000ce	eb 05		 jmp	 SHORT $LN28@OpenItemNa
$LN26@OpenItemNa:
  000d0	1b c0		 sbb	 eax, eax
  000d2	83 c8 01	 or	 eax, 1
$LN28@OpenItemNa:
  000d5	85 c0		 test	 eax, eax
  000d7	74 3a		 je	 SHORT $LN17@OpenItemNa
$LN9@OpenItemNa:

; 5547 : 					{
; 5548 : 						break;
; 5549 : 					}
; 5550 : 				}
; 5551 : 					
; 5552 : 				p = &ItemAttribute[ItemType*MAX_SUBTYPE_ITEMS + ItemSubType];
; 5553 : 
; 5554 : 				Token = WzMemScript.GetToken();

  000d9	8d 8d 6c ff ff
	ff		 lea	 ecx, DWORD PTR _WzMemScript$[ebp]
  000df	e8 00 00 00 00	 call	 ?GetToken@CWzMemScript@@QAE?AW4SMDToken@@XZ ; CWzMemScript::GetToken

; 5555 : 				strcpy(&p->Name[0], WzMemScript.GetString() );

  000e4	8d 8d 6c ff ff
	ff		 lea	 ecx, DWORD PTR _WzMemScript$[ebp]
  000ea	e8 00 00 00 00	 call	 ?GetString@CWzMemScript@@QAEPADXZ ; CWzMemScript::GetString
  000ef	8b cb		 mov	 ecx, ebx
  000f1	c1 e1 09	 shl	 ecx, 9
  000f4	03 cf		 add	 ecx, edi
  000f6	6b c9 70	 imul	 ecx, ecx, 112
  000f9	2b c8		 sub	 ecx, eax
  000fb	8d 91 00 00 00
	00		 lea	 edx, DWORD PTR ?ItemAttribute@@3PAUITEM_ATTRIBUTE@@A[ecx]
$LL11@OpenItemNa:
  00101	8a 08		 mov	 cl, BYTE PTR [eax]
  00103	8d 40 01	 lea	 eax, DWORD PTR [eax+1]
  00106	88 4c 02 ff	 mov	 BYTE PTR [edx+eax-1], cl
  0010a	84 c9		 test	 cl, cl
  0010c	75 f3		 jne	 SHORT $LL11@OpenItemNa

; 5556 : 
; 5557 : 				
; 5558 : 			}

  0010e	e9 6d ff ff ff	 jmp	 $LL4@OpenItemNa
$LN17@OpenItemNa:

; 5520 : 
; 5521 : 	while ( true )
; 5522 : 	{
; 5523 : 		Token = WzMemScript.GetToken();

  00113	8d 8d 6c ff ff
	ff		 lea	 ecx, DWORD PTR _WzMemScript$[ebp]
  00119	e8 00 00 00 00	 call	 ?GetToken@CWzMemScript@@QAE?AW4SMDToken@@XZ ; CWzMemScript::GetToken

; 5524 : 
; 5525 : 		if ( Token == 2 )

  0011e	83 f8 02	 cmp	 eax, 2
  00121	0f 85 3f ff ff
	ff		 jne	 $LL2@OpenItemNa
$LN18@OpenItemNa:

; 5559 : 		}
; 5560 : 	}
; 5561 : 	return TRUE;

  00127	8d 8d 6c ff ff
	ff		 lea	 ecx, DWORD PTR _WzMemScript$[ebp]
  0012d	e8 00 00 00 00	 call	 ??1CWzMemScript@@UAE@XZ	; CWzMemScript::~CWzMemScript
  00132	b8 01 00 00 00	 mov	 eax, 1

; 5562 : }

  00137	8b 4d f4	 mov	 ecx, DWORD PTR __$EHRec$[ebp]
  0013a	64 89 0d 00 00
	00 00		 mov	 DWORD PTR fs:0, ecx
  00141	59		 pop	 ecx
  00142	5f		 pop	 edi
  00143	5e		 pop	 esi
  00144	5b		 pop	 ebx
  00145	8b 4d f0	 mov	 ecx, DWORD PTR __$ArrayPad$[ebp]
  00148	33 cd		 xor	 ecx, ebp
  0014a	e8 00 00 00 00	 call	 @__security_check_cookie@4
  0014f	8b e5		 mov	 esp, ebp
  00151	5d		 pop	 ebp
  00152	c3		 ret	 0
_TEXT	ENDS
;	COMDAT text$x
text$x	SEGMENT
__unwindfunclet$?OpenItemNameScript@@YAHPADH@Z$0:
  00000	8d 8d 6c ff ff
	ff		 lea	 ecx, DWORD PTR _WzMemScript$[ebp]
  00006	e9 00 00 00 00	 jmp	 ??1CWzMemScript@@UAE@XZ	; CWzMemScript::~CWzMemScript
__ehhandler$?OpenItemNameScript@@YAHPADH@Z:
  0000b	8b 54 24 08	 mov	 edx, DWORD PTR [esp+8]
  0000f	8d 42 0c	 lea	 eax, DWORD PTR [edx+12]
  00012	8b 8a 68 ff ff
	ff		 mov	 ecx, DWORD PTR [edx-152]
  00018	33 c8		 xor	 ecx, eax
  0001a	e8 00 00 00 00	 call	 @__security_check_cookie@4
  0001f	8b 4a fc	 mov	 ecx, DWORD PTR [edx-4]
  00022	33 c8		 xor	 ecx, eax
  00024	e8 00 00 00 00	 call	 @__security_check_cookie@4
  00029	b8 00 00 00 00	 mov	 eax, OFFSET __ehfuncinfo$?OpenItemNameScript@@YAHPADH@Z
  0002e	e9 00 00 00 00	 jmp	 ___CxxFrameHandler3
text$x	ENDS
?OpenItemNameScript@@YAHPADH@Z ENDP			; OpenItemNameScript
; Function compile flags: /Ogtp
; File c:\users\michel\desktop\source\gameserver\common\zzzitem.cpp
;	COMDAT ?OpenItemScript@@YAHPADH@Z
_TEXT	SEGMENT
_loop_count$1$ = -152					; size = 4
_WzMemScript$ = -148					; size = 132
__$ArrayPad$ = -16					; size = 4
__$EHRec$ = -12						; size = 12
_Buffer$ = 8						; size = 4
_iSize$ = 12						; size = 4
?OpenItemScript@@YAHPADH@Z PROC				; OpenItemScript, COMDAT

; 5167 : {

  00000	55		 push	 ebp
  00001	8b ec		 mov	 ebp, esp
  00003	6a ff		 push	 -1
  00005	68 00 00 00 00	 push	 __ehhandler$?OpenItemScript@@YAHPADH@Z
  0000a	64 a1 00 00 00
	00		 mov	 eax, DWORD PTR fs:0
  00010	50		 push	 eax
  00011	81 ec 8c 00 00
	00		 sub	 esp, 140		; 0000008cH
  00017	a1 00 00 00 00	 mov	 eax, DWORD PTR ___security_cookie
  0001c	33 c5		 xor	 eax, ebp
  0001e	89 45 f0	 mov	 DWORD PTR __$ArrayPad$[ebp], eax
  00021	53		 push	 ebx
  00022	56		 push	 esi
  00023	57		 push	 edi
  00024	50		 push	 eax
  00025	8d 45 f4	 lea	 eax, DWORD PTR __$EHRec$[ebp]
  00028	64 a3 00 00 00
	00		 mov	 DWORD PTR fs:0, eax
  0002e	8b 75 08	 mov	 esi, DWORD PTR _Buffer$[ebp]

; 5168 : 	CWzMemScript WzMemScript;

  00031	8d 8d 6c ff ff
	ff		 lea	 ecx, DWORD PTR _WzMemScript$[ebp]
  00037	e8 00 00 00 00	 call	 ??0CWzMemScript@@QAE@XZ	; CWzMemScript::CWzMemScript

; 5169 : 	int n;
; 5170 : 	int loop_count;
; 5171 : 
; 5172 : 	int Token;
; 5173 : 
; 5174 : 	WzMemScript.SetBuffer(Buffer, iSize);

  0003c	ff 75 0c	 push	 DWORD PTR _iSize$[ebp]
  0003f	8d 8d 6c ff ff
	ff		 lea	 ecx, DWORD PTR _WzMemScript$[ebp]
  00045	c7 45 fc 00 00
	00 00		 mov	 DWORD PTR __$EHRec$[ebp+8], 0
  0004c	56		 push	 esi
  0004d	e8 00 00 00 00	 call	 ?SetBuffer@CWzMemScript@@QAEHPADH@Z ; CWzMemScript::SetBuffer

; 5175 : 
; 5176 : 	memset ( ItemAttribute, 0, sizeof(ItemAttribute) );

  00052	68 00 00 0e 00	 push	 917504			; 000e0000H
  00057	6a 00		 push	 0
  00059	68 00 00 00 00	 push	 OFFSET ?ItemAttribute@@3PAUITEM_ATTRIBUTE@@A
  0005e	e8 00 00 00 00	 call	 _memset
  00063	83 c4 0c	 add	 esp, 12			; 0000000cH
  00066	b8 58 00 00 00	 mov	 eax, OFFSET ?ItemAttribute@@3PAUITEM_ATTRIBUTE@@A+88
  0006b	0f 1f 44 00 00	 npad	 5
$LL4@OpenItemSc:

; 5177 : 	
; 5178 : 	for ( n=0;n<MAX_ITEMS;n++)
; 5179 : 	{
; 5180 : 		ItemAttribute[n].Level = -1;

  00070	c6 40 ca ff	 mov	 BYTE PTR [eax-54], 255	; 000000ffH

; 5181 : 		ItemAttribute[n].RepaireMoneyRate  = 0;

  00074	c7 00 00 00 00
	00		 mov	 DWORD PTR [eax], 0

; 5182 : 		ItemAttribute[n].AllRepaireMoneyRate  = 0;

  0007a	c7 40 04 00 00
	00 00		 mov	 DWORD PTR [eax+4], 0
  00081	83 c0 70	 add	 eax, 112		; 00000070H
  00084	3d 58 00 0e 00	 cmp	 eax, OFFSET ?ItemAttribute@@3PAUITEM_ATTRIBUTE@@A+917592
  00089	7c e5		 jl	 SHORT $LL4@OpenItemSc

; 5183 : 	}
; 5184 : 
; 5185 : 	while ( true )
; 5186 : 	{
; 5187 : 		Token = WzMemScript.GetToken();

  0008b	8d 8d 6c ff ff
	ff		 lea	 ecx, DWORD PTR _WzMemScript$[ebp]
  00091	e8 00 00 00 00	 call	 ?GetToken@CWzMemScript@@QAE?AW4SMDToken@@XZ ; CWzMemScript::GetToken

; 5188 : 
; 5189 : 		if ( Token == 2 )

  00096	83 f8 02	 cmp	 eax, 2
  00099	0f 84 4f 08 00
	00		 je	 $LN49@OpenItemSc
  0009f	90		 npad	 1
$LL5@OpenItemSc:

; 5190 : 		{
; 5191 : 			break;
; 5192 : 		}
; 5193 : 		
; 5194 : 		if ( Token == 1 )

  000a0	83 f8 01	 cmp	 eax, 1
  000a3	0f 85 31 08 00
	00		 jne	 $LN8@OpenItemSc

; 5195 : 		{
; 5196 : 			int ItemType;
; 5197 : 
; 5198 : 			ItemType = WzMemScript.GetNumber();

  000a9	8d 8d 6c ff ff
	ff		 lea	 ecx, DWORD PTR _WzMemScript$[ebp]
  000af	e8 00 00 00 00	 call	 ?GetNumber@CWzMemScript@@QAEHXZ ; CWzMemScript::GetNumber
  000b4	8b f8		 mov	 edi, eax

; 5199 : 			loop_count = 0;

  000b6	c7 85 68 ff ff
	ff 00 00 00 00	 mov	 DWORD PTR _loop_count$1$[ebp], 0
$LL7@OpenItemSc:

; 5200 : 			while ( true )
; 5201 : 			{
; 5202 : 				int ItemSubType;
; 5203 : 				LPITEM_ATTRIBUTE p;
; 5204 : 
; 5205 : 				
; 5206 : 				Token = WzMemScript.GetToken();

  000c0	8d 8d 6c ff ff
	ff		 lea	 ecx, DWORD PTR _WzMemScript$[ebp]
  000c6	e8 00 00 00 00	 call	 ?GetToken@CWzMemScript@@QAE?AW4SMDToken@@XZ ; CWzMemScript::GetToken

; 5207 : 				ItemSubType = WzMemScript.GetNumber();

  000cb	8d 8d 6c ff ff
	ff		 lea	 ecx, DWORD PTR _WzMemScript$[ebp]
  000d1	8b f0		 mov	 esi, eax
  000d3	e8 00 00 00 00	 call	 ?GetNumber@CWzMemScript@@QAEHXZ ; CWzMemScript::GetNumber
  000d8	8b d8		 mov	 ebx, eax

; 5208 : 
; 5209 : 				if ( ItemType >= 0 && ItemType < MAX_TYPE_ITEMS )

  000da	83 ff 0f	 cmp	 edi, 15			; 0000000fH
  000dd	77 10		 ja	 SHORT $LN15@OpenItemSc

; 5210 : 				{
; 5211 : 					if ( g_MaxItemIndexOfEachItemType[ItemType] <= ItemSubType )

  000df	39 1c bd 00 00
	00 00		 cmp	 DWORD PTR ?g_MaxItemIndexOfEachItemType@@3PAHA[edi*4], ebx
  000e6	7f 07		 jg	 SHORT $LN15@OpenItemSc

; 5212 : 					{
; 5213 : 						g_MaxItemIndexOfEachItemType[ItemType] = ItemSubType;

  000e8	89 1c bd 00 00
	00 00		 mov	 DWORD PTR ?g_MaxItemIndexOfEachItemType@@3PAHA[edi*4], ebx
$LN15@OpenItemSc:

; 5214 : 					}
; 5215 : 				}
; 5216 : 				
; 5217 : 				if ( Token == 0 )

  000ef	85 f6		 test	 esi, esi
  000f1	75 3d		 jne	 SHORT $LN17@OpenItemSc

; 5218 : 				{
; 5219 : 					if ( strcmp("end", WzMemScript.GetString() ) == 0 )

  000f3	8d 8d 6c ff ff
	ff		 lea	 ecx, DWORD PTR _WzMemScript$[ebp]
  000f9	e8 00 00 00 00	 call	 ?GetString@CWzMemScript@@QAEPADXZ ; CWzMemScript::GetString
  000fe	b9 00 00 00 00	 mov	 ecx, OFFSET ??_C@_03JBJLGPFL@end?$AA@
$LL63@OpenItemSc:
  00103	8a 11		 mov	 dl, BYTE PTR [ecx]
  00105	3a 10		 cmp	 dl, BYTE PTR [eax]
  00107	75 1a		 jne	 SHORT $LN64@OpenItemSc
  00109	84 d2		 test	 dl, dl
  0010b	74 12		 je	 SHORT $LN65@OpenItemSc
  0010d	8a 51 01	 mov	 dl, BYTE PTR [ecx+1]
  00110	3a 50 01	 cmp	 dl, BYTE PTR [eax+1]
  00113	75 0e		 jne	 SHORT $LN64@OpenItemSc
  00115	83 c1 02	 add	 ecx, 2
  00118	83 c0 02	 add	 eax, 2
  0011b	84 d2		 test	 dl, dl
  0011d	75 e4		 jne	 SHORT $LL63@OpenItemSc
$LN65@OpenItemSc:
  0011f	33 c0		 xor	 eax, eax
  00121	eb 05		 jmp	 SHORT $LN66@OpenItemSc
$LN64@OpenItemSc:
  00123	1b c0		 sbb	 eax, eax
  00125	83 c8 01	 or	 eax, 1
$LN66@OpenItemSc:
  00128	85 c0		 test	 eax, eax
  0012a	0f 84 aa 07 00
	00		 je	 $LN8@OpenItemSc
$LN17@OpenItemSc:

; 5220 : 					{
; 5221 : 						break;
; 5222 : 					}
; 5223 : 				}
; 5224 : 					
; 5225 : 				p = &ItemAttribute[ItemType*MAX_SUBTYPE_ITEMS + ItemSubType];

  00130	8b c7		 mov	 eax, edi

; 5226 : 
; 5227 : 				Token = WzMemScript.GetToken();

  00132	8d 8d 6c ff ff
	ff		 lea	 ecx, DWORD PTR _WzMemScript$[ebp]
  00138	c1 e0 09	 shl	 eax, 9
  0013b	03 c3		 add	 eax, ebx
  0013d	6b f0 70	 imul	 esi, eax, 112
  00140	81 c6 00 00 00
	00		 add	 esi, OFFSET ?ItemAttribute@@3PAUITEM_ATTRIBUTE@@A
  00146	e8 00 00 00 00	 call	 ?GetToken@CWzMemScript@@QAE?AW4SMDToken@@XZ ; CWzMemScript::GetToken

; 5228 : 				p->ItemSlot = WzMemScript.GetNumber();

  0014b	8d 8d 6c ff ff
	ff		 lea	 ecx, DWORD PTR _WzMemScript$[ebp]
  00151	e8 00 00 00 00	 call	 ?GetNumber@CWzMemScript@@QAEHXZ ; CWzMemScript::GetNumber

; 5229 : 
; 5230 : 				Token = WzMemScript.GetToken();

  00156	8d 8d 6c ff ff
	ff		 lea	 ecx, DWORD PTR _WzMemScript$[ebp]
  0015c	89 46 64	 mov	 DWORD PTR [esi+100], eax
  0015f	e8 00 00 00 00	 call	 ?GetToken@CWzMemScript@@QAE?AW4SMDToken@@XZ ; CWzMemScript::GetToken

; 5231 : 				p->SkillType = WzMemScript.GetNumber();

  00164	8d 8d 6c ff ff
	ff		 lea	 ecx, DWORD PTR _WzMemScript$[ebp]
  0016a	e8 00 00 00 00	 call	 ?GetNumber@CWzMemScript@@QAEHXZ ; CWzMemScript::GetNumber

; 5232 : 
; 5233 : 				Token = WzMemScript.GetToken();

  0016f	8d 8d 6c ff ff
	ff		 lea	 ecx, DWORD PTR _WzMemScript$[ebp]
  00175	89 46 68	 mov	 DWORD PTR [esi+104], eax
  00178	e8 00 00 00 00	 call	 ?GetToken@CWzMemScript@@QAE?AW4SMDToken@@XZ ; CWzMemScript::GetToken

; 5234 : 				p->Width  = WzMemScript.GetNumber();

  0017d	8d 8d 6c ff ff
	ff		 lea	 ecx, DWORD PTR _WzMemScript$[ebp]
  00183	e8 00 00 00 00	 call	 ?GetNumber@CWzMemScript@@QAEHXZ ; CWzMemScript::GetNumber

; 5235 : 
; 5236 : 				Token = WzMemScript.GetToken();

  00188	8d 8d 6c ff ff
	ff		 lea	 ecx, DWORD PTR _WzMemScript$[ebp]
  0018e	88 46 23	 mov	 BYTE PTR [esi+35], al
  00191	e8 00 00 00 00	 call	 ?GetToken@CWzMemScript@@QAE?AW4SMDToken@@XZ ; CWzMemScript::GetToken

; 5237 : 				p->Height  = WzMemScript.GetNumber();

  00196	8d 8d 6c ff ff
	ff		 lea	 ecx, DWORD PTR _WzMemScript$[ebp]
  0019c	e8 00 00 00 00	 call	 ?GetNumber@CWzMemScript@@QAEHXZ ; CWzMemScript::GetNumber

; 5238 : 
; 5239 : 				Token = WzMemScript.GetToken();

  001a1	8d 8d 6c ff ff
	ff		 lea	 ecx, DWORD PTR _WzMemScript$[ebp]
  001a7	88 46 24	 mov	 BYTE PTR [esi+36], al
  001aa	e8 00 00 00 00	 call	 ?GetToken@CWzMemScript@@QAE?AW4SMDToken@@XZ ; CWzMemScript::GetToken

; 5240 : 				p->Serial = WzMemScript.GetNumber();

  001af	8d 8d 6c ff ff
	ff		 lea	 ecx, DWORD PTR _WzMemScript$[ebp]
  001b5	e8 00 00 00 00	 call	 ?GetNumber@CWzMemScript@@QAEHXZ ; CWzMemScript::GetNumber

; 5241 : 
; 5242 : 				Token = WzMemScript.GetToken();

  001ba	8d 8d 6c ff ff
	ff		 lea	 ecx, DWORD PTR _WzMemScript$[ebp]
  001c0	88 46 25	 mov	 BYTE PTR [esi+37], al
  001c3	e8 00 00 00 00	 call	 ?GetToken@CWzMemScript@@QAE?AW4SMDToken@@XZ ; CWzMemScript::GetToken

; 5243 : 				p->OptionFlag = WzMemScript.GetNumber();

  001c8	8d 8d 6c ff ff
	ff		 lea	 ecx, DWORD PTR _WzMemScript$[ebp]
  001ce	e8 00 00 00 00	 call	 ?GetNumber@CWzMemScript@@QAEHXZ ; CWzMemScript::GetNumber

; 5244 : 
; 5245 : 				Token = WzMemScript.GetToken();

  001d3	8d 8d 6c ff ff
	ff		 lea	 ecx, DWORD PTR _WzMemScript$[ebp]
  001d9	88 46 26	 mov	 BYTE PTR [esi+38], al
  001dc	e8 00 00 00 00	 call	 ?GetToken@CWzMemScript@@QAE?AW4SMDToken@@XZ ; CWzMemScript::GetToken

; 5246 : 				p->MondownFlag = WzMemScript.GetNumber();

  001e1	8d 8d 6c ff ff
	ff		 lea	 ecx, DWORD PTR _WzMemScript$[ebp]
  001e7	e8 00 00 00 00	 call	 ?GetNumber@CWzMemScript@@QAEHXZ ; CWzMemScript::GetNumber

; 5247 : 
; 5248 : 				Token = WzMemScript.GetToken();

  001ec	8d 8d 6c ff ff
	ff		 lea	 ecx, DWORD PTR _WzMemScript$[ebp]
  001f2	88 46 27	 mov	 BYTE PTR [esi+39], al
  001f5	e8 00 00 00 00	 call	 ?GetToken@CWzMemScript@@QAE?AW4SMDToken@@XZ ; CWzMemScript::GetToken

; 5249 : 				strcpy(&p->Name[0], WzMemScript.GetString() );

  001fa	8d 8d 6c ff ff
	ff		 lea	 ecx, DWORD PTR _WzMemScript$[ebp]
  00200	e8 00 00 00 00	 call	 ?GetString@CWzMemScript@@QAEPADXZ ; CWzMemScript::GetString
  00205	8b d6		 mov	 edx, esi
  00207	2b d0		 sub	 edx, eax
  00209	0f 1f 80 00 00
	00 00		 npad	 7
$LL39@OpenItemSc:
  00210	8a 08		 mov	 cl, BYTE PTR [eax]
  00212	8d 40 01	 lea	 eax, DWORD PTR [eax+1]
  00215	88 4c 10 ff	 mov	 BYTE PTR [eax+edx-1], cl
  00219	84 c9		 test	 cl, cl
  0021b	75 f3		 jne	 SHORT $LL39@OpenItemSc

; 5250 : 
; 5251 : 				if ( ItemType >= 0 && ItemType <= 5 )

  0021d	83 ff 05	 cmp	 edi, 5
  00220	0f 87 5a 01 00
	00		 ja	 $LN18@OpenItemSc

; 5252 : 				{
; 5253 : 					Token = WzMemScript.GetToken();

  00226	8d 8d 6c ff ff
	ff		 lea	 ecx, DWORD PTR _WzMemScript$[ebp]
  0022c	e8 00 00 00 00	 call	 ?GetToken@CWzMemScript@@QAE?AW4SMDToken@@XZ ; CWzMemScript::GetToken

; 5254 : 					p->Level = WzMemScript.GetNumber();

  00231	8d 8d 6c ff ff
	ff		 lea	 ecx, DWORD PTR _WzMemScript$[ebp]
  00237	e8 00 00 00 00	 call	 ?GetNumber@CWzMemScript@@QAEHXZ ; CWzMemScript::GetNumber

; 5255 : 
; 5256 : 					Token = WzMemScript.GetToken();

  0023c	8d 8d 6c ff ff
	ff		 lea	 ecx, DWORD PTR _WzMemScript$[ebp]
  00242	88 46 22	 mov	 BYTE PTR [esi+34], al
  00245	e8 00 00 00 00	 call	 ?GetToken@CWzMemScript@@QAE?AW4SMDToken@@XZ ; CWzMemScript::GetToken

; 5257 : 					p->DamageMin = WzMemScript.GetNumber();

  0024a	8d 8d 6c ff ff
	ff		 lea	 ecx, DWORD PTR _WzMemScript$[ebp]
  00250	e8 00 00 00 00	 call	 ?GetNumber@CWzMemScript@@QAEHXZ ; CWzMemScript::GetNumber

; 5258 : 
; 5259 : 					Token = WzMemScript.GetToken();

  00255	8d 8d 6c ff ff
	ff		 lea	 ecx, DWORD PTR _WzMemScript$[ebp]
  0025b	88 46 2a	 mov	 BYTE PTR [esi+42], al
  0025e	e8 00 00 00 00	 call	 ?GetToken@CWzMemScript@@QAE?AW4SMDToken@@XZ ; CWzMemScript::GetToken

; 5260 : 					p->DamageMax = WzMemScript.GetNumber();

  00263	8d 8d 6c ff ff
	ff		 lea	 ecx, DWORD PTR _WzMemScript$[ebp]
  00269	e8 00 00 00 00	 call	 ?GetNumber@CWzMemScript@@QAEHXZ ; CWzMemScript::GetNumber

; 5261 : 
; 5262 : 					Token = WzMemScript.GetToken();

  0026e	8d 8d 6c ff ff
	ff		 lea	 ecx, DWORD PTR _WzMemScript$[ebp]
  00274	88 46 2b	 mov	 BYTE PTR [esi+43], al
  00277	e8 00 00 00 00	 call	 ?GetToken@CWzMemScript@@QAE?AW4SMDToken@@XZ ; CWzMemScript::GetToken

; 5263 : 					p->AttackSpeed = WzMemScript.GetNumber();

  0027c	8d 8d 6c ff ff
	ff		 lea	 ecx, DWORD PTR _WzMemScript$[ebp]
  00282	e8 00 00 00 00	 call	 ?GetNumber@CWzMemScript@@QAEHXZ ; CWzMemScript::GetNumber

; 5264 : 
; 5265 : 					Token = WzMemScript.GetToken();

  00287	8d 8d 6c ff ff
	ff		 lea	 ecx, DWORD PTR _WzMemScript$[ebp]
  0028d	88 46 28	 mov	 BYTE PTR [esi+40], al
  00290	e8 00 00 00 00	 call	 ?GetToken@CWzMemScript@@QAE?AW4SMDToken@@XZ ; CWzMemScript::GetToken

; 5266 : 					p->Durability = WzMemScript.GetNumber();

  00295	8d 8d 6c ff ff
	ff		 lea	 ecx, DWORD PTR _WzMemScript$[ebp]
  0029b	e8 00 00 00 00	 call	 ?GetNumber@CWzMemScript@@QAEHXZ ; CWzMemScript::GetNumber

; 5267 : 
; 5268 : 					Token = WzMemScript.GetToken();

  002a0	8d 8d 6c ff ff
	ff		 lea	 ecx, DWORD PTR _WzMemScript$[ebp]
  002a6	88 46 30	 mov	 BYTE PTR [esi+48], al
  002a9	e8 00 00 00 00	 call	 ?GetToken@CWzMemScript@@QAE?AW4SMDToken@@XZ ; CWzMemScript::GetToken

; 5269 : 					p->MagicDurability = WzMemScript.GetNumber();

  002ae	8d 8d 6c ff ff
	ff		 lea	 ecx, DWORD PTR _WzMemScript$[ebp]
  002b4	e8 00 00 00 00	 call	 ?GetNumber@CWzMemScript@@QAEHXZ ; CWzMemScript::GetNumber

; 5270 : 
; 5271 : 					Token = WzMemScript.GetToken();

  002b9	8d 8d 6c ff ff
	ff		 lea	 ecx, DWORD PTR _WzMemScript$[ebp]
  002bf	88 46 31	 mov	 BYTE PTR [esi+49], al
  002c2	e8 00 00 00 00	 call	 ?GetToken@CWzMemScript@@QAE?AW4SMDToken@@XZ ; CWzMemScript::GetToken

; 5272 : 					p->MagicPW = WzMemScript.GetNumber();

  002c7	8d 8d 6c ff ff
	ff		 lea	 ecx, DWORD PTR _WzMemScript$[ebp]
  002cd	e8 00 00 00 00	 call	 ?GetNumber@CWzMemScript@@QAEHXZ ; CWzMemScript::GetNumber

; 5273 : 
; 5274 : 					Token = WzMemScript.GetToken();

  002d2	8d 8d 6c ff ff
	ff		 lea	 ecx, DWORD PTR _WzMemScript$[ebp]
  002d8	89 46 54	 mov	 DWORD PTR [esi+84], eax
  002db	e8 00 00 00 00	 call	 ?GetToken@CWzMemScript@@QAE?AW4SMDToken@@XZ ; CWzMemScript::GetToken

; 5275 : 					p->RequireLevel = WzMemScript.GetNumber();

  002e0	8d 8d 6c ff ff
	ff		 lea	 ecx, DWORD PTR _WzMemScript$[ebp]
  002e6	e8 00 00 00 00	 call	 ?GetNumber@CWzMemScript@@QAEHXZ ; CWzMemScript::GetNumber

; 5276 : 
; 5277 : 					Token = WzMemScript.GetToken();

  002eb	8d 8d 6c ff ff
	ff		 lea	 ecx, DWORD PTR _WzMemScript$[ebp]
  002f1	66 89 46 3a	 mov	 WORD PTR [esi+58], ax
  002f5	e8 00 00 00 00	 call	 ?GetToken@CWzMemScript@@QAE?AW4SMDToken@@XZ ; CWzMemScript::GetToken

; 5278 : 					p->RequireStrength = WzMemScript.GetNumber();

  002fa	8d 8d 6c ff ff
	ff		 lea	 ecx, DWORD PTR _WzMemScript$[ebp]
  00300	e8 00 00 00 00	 call	 ?GetNumber@CWzMemScript@@QAEHXZ ; CWzMemScript::GetNumber

; 5279 : 
; 5280 : 					Token = WzMemScript.GetToken();

  00305	8d 8d 6c ff ff
	ff		 lea	 ecx, DWORD PTR _WzMemScript$[ebp]
  0030b	66 89 46 34	 mov	 WORD PTR [esi+52], ax
  0030f	e8 00 00 00 00	 call	 ?GetToken@CWzMemScript@@QAE?AW4SMDToken@@XZ ; CWzMemScript::GetToken

; 5281 : 					p->RequireDexterity = WzMemScript.GetNumber();

  00314	8d 8d 6c ff ff
	ff		 lea	 ecx, DWORD PTR _WzMemScript$[ebp]
  0031a	e8 00 00 00 00	 call	 ?GetNumber@CWzMemScript@@QAEHXZ ; CWzMemScript::GetNumber

; 5282 : 
; 5283 : 					Token = WzMemScript.GetToken();

  0031f	8d 8d 6c ff ff
	ff		 lea	 ecx, DWORD PTR _WzMemScript$[ebp]
  00325	66 89 46 36	 mov	 WORD PTR [esi+54], ax
  00329	e8 00 00 00 00	 call	 ?GetToken@CWzMemScript@@QAE?AW4SMDToken@@XZ ; CWzMemScript::GetToken

; 5284 : 					p->RequireEnergy = WzMemScript.GetNumber();

  0032e	8d 8d 6c ff ff
	ff		 lea	 ecx, DWORD PTR _WzMemScript$[ebp]
  00334	e8 00 00 00 00	 call	 ?GetNumber@CWzMemScript@@QAEHXZ ; CWzMemScript::GetNumber

; 5285 : 
; 5286 : 					Token = WzMemScript.GetToken();

  00339	8d 8d 6c ff ff
	ff		 lea	 ecx, DWORD PTR _WzMemScript$[ebp]
  0033f	66 89 46 38	 mov	 WORD PTR [esi+56], ax
  00343	e8 00 00 00 00	 call	 ?GetToken@CWzMemScript@@QAE?AW4SMDToken@@XZ ; CWzMemScript::GetToken

; 5287 : 					p->RequireVitality = WzMemScript.GetNumber();

  00348	8d 8d 6c ff ff
	ff		 lea	 ecx, DWORD PTR _WzMemScript$[ebp]
  0034e	e8 00 00 00 00	 call	 ?GetNumber@CWzMemScript@@QAEHXZ ; CWzMemScript::GetNumber

; 5288 : 
; 5289 : 					Token = WzMemScript.GetToken();

  00353	8d 8d 6c ff ff
	ff		 lea	 ecx, DWORD PTR _WzMemScript$[ebp]
  00359	66 89 46 4c	 mov	 WORD PTR [esi+76], ax
  0035d	e8 00 00 00 00	 call	 ?GetToken@CWzMemScript@@QAE?AW4SMDToken@@XZ ; CWzMemScript::GetToken

; 5290 : 					p->RequireLeadership = WzMemScript.GetNumber();

  00362	8d 8d 6c ff ff
	ff		 lea	 ecx, DWORD PTR _WzMemScript$[ebp]
  00368	e8 00 00 00 00	 call	 ?GetNumber@CWzMemScript@@QAEHXZ ; CWzMemScript::GetNumber

; 5291 : 
; 5292 : 					if ( p->Width  >= 2)

  0036d	80 7e 23 02	 cmp	 BYTE PTR [esi+35], 2
  00371	89 46 6c	 mov	 DWORD PTR [esi+108], eax
  00374	72 04		 jb	 SHORT $LN19@OpenItemSc

; 5293 : 					{
; 5294 : 						p->TwoHand = TRUE; // Review this later

  00376	c6 46 21 01	 mov	 BYTE PTR [esi+33], 1
$LN19@OpenItemSc:

; 5295 : 					}
; 5296 : 
; 5297 : 					(BYTE)p->Durability += (BYTE)p->MagicDurability;

  0037a	8a 46 31	 mov	 al, BYTE PTR [esi+49]
  0037d	00 46 30	 add	 BYTE PTR [esi+48], al
$LN18@OpenItemSc:

; 5298 : 				}
; 5299 : 
; 5300 : 				if ( ItemType >= 6 && ItemType <= 11 )

  00380	8d 47 fa	 lea	 eax, DWORD PTR [edi-6]
  00383	83 f8 05	 cmp	 eax, 5
  00386	0f 87 b5 01 00
	00		 ja	 $LN20@OpenItemSc

; 5301 : 				{
; 5302 : 					Token = WzMemScript.GetToken();

  0038c	8d 8d 6c ff ff
	ff		 lea	 ecx, DWORD PTR _WzMemScript$[ebp]
  00392	e8 00 00 00 00	 call	 ?GetToken@CWzMemScript@@QAE?AW4SMDToken@@XZ ; CWzMemScript::GetToken

; 5303 : 					p->Level = WzMemScript.GetNumber();

  00397	8d 8d 6c ff ff
	ff		 lea	 ecx, DWORD PTR _WzMemScript$[ebp]
  0039d	e8 00 00 00 00	 call	 ?GetNumber@CWzMemScript@@QAEHXZ ; CWzMemScript::GetNumber
  003a2	88 46 22	 mov	 BYTE PTR [esi+34], al

; 5304 : 					
; 5305 : 					if ( ItemType == 6 )

  003a5	83 ff 06	 cmp	 edi, 6
  003a8	75 37		 jne	 SHORT $LN21@OpenItemSc

; 5306 : 					{
; 5307 : 
; 5308 : 						Token = WzMemScript.GetToken();

  003aa	8d 8d 6c ff ff
	ff		 lea	 ecx, DWORD PTR _WzMemScript$[ebp]
  003b0	e8 00 00 00 00	 call	 ?GetToken@CWzMemScript@@QAE?AW4SMDToken@@XZ ; CWzMemScript::GetToken

; 5309 : 						p->Defense = WzMemScript.GetNumber();

  003b5	8d 8d 6c ff ff
	ff		 lea	 ecx, DWORD PTR _WzMemScript$[ebp]
  003bb	e8 00 00 00 00	 call	 ?GetNumber@CWzMemScript@@QAEHXZ ; CWzMemScript::GetNumber

; 5310 : 
; 5311 : 						Token = WzMemScript.GetToken();

  003c0	8d 8d 6c ff ff
	ff		 lea	 ecx, DWORD PTR _WzMemScript$[ebp]
  003c6	88 46 2d	 mov	 BYTE PTR [esi+45], al
  003c9	e8 00 00 00 00	 call	 ?GetToken@CWzMemScript@@QAE?AW4SMDToken@@XZ ; CWzMemScript::GetToken

; 5312 : 						p->SuccessfulBlocking  = WzMemScript.GetNumber();

  003ce	8d 8d 6c ff ff
	ff		 lea	 ecx, DWORD PTR _WzMemScript$[ebp]
  003d4	e8 00 00 00 00	 call	 ?GetNumber@CWzMemScript@@QAEHXZ ; CWzMemScript::GetNumber
  003d9	88 46 2c	 mov	 BYTE PTR [esi+44], al
  003dc	e9 ac 00 00 00	 jmp	 $LN27@OpenItemSc
$LN21@OpenItemSc:

; 5313 : 
; 5314 : 					}
; 5315 : 					else if ( ItemType >= 7 && ItemType <= 9 )

  003e1	8d 47 f9	 lea	 eax, DWORD PTR [edi-7]
  003e4	83 f8 02	 cmp	 eax, 2
  003e7	77 34		 ja	 SHORT $LN23@OpenItemSc

; 5316 : 					{
; 5317 : 
; 5318 : 						Token = WzMemScript.GetToken();

  003e9	8d 8d 6c ff ff
	ff		 lea	 ecx, DWORD PTR _WzMemScript$[ebp]
  003ef	e8 00 00 00 00	 call	 ?GetToken@CWzMemScript@@QAE?AW4SMDToken@@XZ ; CWzMemScript::GetToken

; 5319 : 						p->Defense  = WzMemScript.GetNumber();

  003f4	8d 8d 6c ff ff
	ff		 lea	 ecx, DWORD PTR _WzMemScript$[ebp]
  003fa	e8 00 00 00 00	 call	 ?GetNumber@CWzMemScript@@QAEHXZ ; CWzMemScript::GetNumber

; 5320 : 
; 5321 : 						Token = WzMemScript.GetToken();

  003ff	8d 8d 6c ff ff
	ff		 lea	 ecx, DWORD PTR _WzMemScript$[ebp]
  00405	88 46 2d	 mov	 BYTE PTR [esi+45], al
  00408	e8 00 00 00 00	 call	 ?GetToken@CWzMemScript@@QAE?AW4SMDToken@@XZ ; CWzMemScript::GetToken

; 5322 : 						p->MagicDefense = WzMemScript.GetNumber();

  0040d	8d 8d 6c ff ff
	ff		 lea	 ecx, DWORD PTR _WzMemScript$[ebp]
  00413	e8 00 00 00 00	 call	 ?GetNumber@CWzMemScript@@QAEHXZ ; CWzMemScript::GetNumber
  00418	88 46 2e	 mov	 BYTE PTR [esi+46], al
  0041b	eb 70		 jmp	 SHORT $LN27@OpenItemSc
$LN23@OpenItemSc:

; 5323 : 					}
; 5324 : 					else if ( ItemType == 10 )

  0041d	83 ff 0a	 cmp	 edi, 10			; 0000000aH
  00420	75 34		 jne	 SHORT $LN25@OpenItemSc

; 5325 : 					{
; 5326 : 						Token = WzMemScript.GetToken();

  00422	8d 8d 6c ff ff
	ff		 lea	 ecx, DWORD PTR _WzMemScript$[ebp]
  00428	e8 00 00 00 00	 call	 ?GetToken@CWzMemScript@@QAE?AW4SMDToken@@XZ ; CWzMemScript::GetToken

; 5327 : 						p->Defense = WzMemScript.GetNumber();

  0042d	8d 8d 6c ff ff
	ff		 lea	 ecx, DWORD PTR _WzMemScript$[ebp]
  00433	e8 00 00 00 00	 call	 ?GetNumber@CWzMemScript@@QAEHXZ ; CWzMemScript::GetNumber

; 5328 : 
; 5329 : 						Token = WzMemScript.GetToken();

  00438	8d 8d 6c ff ff
	ff		 lea	 ecx, DWORD PTR _WzMemScript$[ebp]
  0043e	88 46 2d	 mov	 BYTE PTR [esi+45], al
  00441	e8 00 00 00 00	 call	 ?GetToken@CWzMemScript@@QAE?AW4SMDToken@@XZ ; CWzMemScript::GetToken

; 5330 : 						p->AttackSpeed = WzMemScript.GetNumber();

  00446	8d 8d 6c ff ff
	ff		 lea	 ecx, DWORD PTR _WzMemScript$[ebp]
  0044c	e8 00 00 00 00	 call	 ?GetNumber@CWzMemScript@@QAEHXZ ; CWzMemScript::GetNumber
  00451	88 46 28	 mov	 BYTE PTR [esi+40], al
  00454	eb 37		 jmp	 SHORT $LN27@OpenItemSc
$LN25@OpenItemSc:

; 5331 : 					}
; 5332 : 					else if ( ItemType == 11 )

  00456	83 ff 0b	 cmp	 edi, 11			; 0000000bH
  00459	75 32		 jne	 SHORT $LN27@OpenItemSc

; 5333 : 					{
; 5334 : 						Token = WzMemScript.GetToken();

  0045b	8d 8d 6c ff ff
	ff		 lea	 ecx, DWORD PTR _WzMemScript$[ebp]
  00461	e8 00 00 00 00	 call	 ?GetToken@CWzMemScript@@QAE?AW4SMDToken@@XZ ; CWzMemScript::GetToken

; 5335 : 						p->Defense  = WzMemScript.GetNumber();

  00466	8d 8d 6c ff ff
	ff		 lea	 ecx, DWORD PTR _WzMemScript$[ebp]
  0046c	e8 00 00 00 00	 call	 ?GetNumber@CWzMemScript@@QAEHXZ ; CWzMemScript::GetNumber

; 5336 : 
; 5337 : 						Token = WzMemScript.GetToken();

  00471	8d 8d 6c ff ff
	ff		 lea	 ecx, DWORD PTR _WzMemScript$[ebp]
  00477	88 46 2d	 mov	 BYTE PTR [esi+45], al
  0047a	e8 00 00 00 00	 call	 ?GetToken@CWzMemScript@@QAE?AW4SMDToken@@XZ ; CWzMemScript::GetToken

; 5338 : 						p->WalkSpeed = WzMemScript.GetNumber();

  0047f	8d 8d 6c ff ff
	ff		 lea	 ecx, DWORD PTR _WzMemScript$[ebp]
  00485	e8 00 00 00 00	 call	 ?GetNumber@CWzMemScript@@QAEHXZ ; CWzMemScript::GetNumber
  0048a	88 46 29	 mov	 BYTE PTR [esi+41], al
$LN27@OpenItemSc:

; 5339 : 					}
; 5340 : 					
; 5341 : 					Token = WzMemScript.GetToken();

  0048d	8d 8d 6c ff ff
	ff		 lea	 ecx, DWORD PTR _WzMemScript$[ebp]
  00493	e8 00 00 00 00	 call	 ?GetToken@CWzMemScript@@QAE?AW4SMDToken@@XZ ; CWzMemScript::GetToken

; 5342 : 					p->Durability = WzMemScript.GetNumber();

  00498	8d 8d 6c ff ff
	ff		 lea	 ecx, DWORD PTR _WzMemScript$[ebp]
  0049e	e8 00 00 00 00	 call	 ?GetNumber@CWzMemScript@@QAEHXZ ; CWzMemScript::GetNumber

; 5343 : 
; 5344 : 					Token = WzMemScript.GetToken();

  004a3	8d 8d 6c ff ff
	ff		 lea	 ecx, DWORD PTR _WzMemScript$[ebp]
  004a9	88 46 30	 mov	 BYTE PTR [esi+48], al
  004ac	e8 00 00 00 00	 call	 ?GetToken@CWzMemScript@@QAE?AW4SMDToken@@XZ ; CWzMemScript::GetToken

; 5345 : 					p->RequireLevel = WzMemScript.GetNumber();

  004b1	8d 8d 6c ff ff
	ff		 lea	 ecx, DWORD PTR _WzMemScript$[ebp]
  004b7	e8 00 00 00 00	 call	 ?GetNumber@CWzMemScript@@QAEHXZ ; CWzMemScript::GetNumber

; 5346 : 
; 5347 : 					Token = WzMemScript.GetToken();

  004bc	8d 8d 6c ff ff
	ff		 lea	 ecx, DWORD PTR _WzMemScript$[ebp]
  004c2	66 89 46 3a	 mov	 WORD PTR [esi+58], ax
  004c6	e8 00 00 00 00	 call	 ?GetToken@CWzMemScript@@QAE?AW4SMDToken@@XZ ; CWzMemScript::GetToken

; 5348 : 					p->RequireStrength = WzMemScript.GetNumber();

  004cb	8d 8d 6c ff ff
	ff		 lea	 ecx, DWORD PTR _WzMemScript$[ebp]
  004d1	e8 00 00 00 00	 call	 ?GetNumber@CWzMemScript@@QAEHXZ ; CWzMemScript::GetNumber

; 5349 : 
; 5350 : 					Token = WzMemScript.GetToken();

  004d6	8d 8d 6c ff ff
	ff		 lea	 ecx, DWORD PTR _WzMemScript$[ebp]
  004dc	66 89 46 34	 mov	 WORD PTR [esi+52], ax
  004e0	e8 00 00 00 00	 call	 ?GetToken@CWzMemScript@@QAE?AW4SMDToken@@XZ ; CWzMemScript::GetToken

; 5351 : 					p->RequireDexterity = WzMemScript.GetNumber();

  004e5	8d 8d 6c ff ff
	ff		 lea	 ecx, DWORD PTR _WzMemScript$[ebp]
  004eb	e8 00 00 00 00	 call	 ?GetNumber@CWzMemScript@@QAEHXZ ; CWzMemScript::GetNumber

; 5352 : 
; 5353 : 					Token = WzMemScript.GetToken();

  004f0	8d 8d 6c ff ff
	ff		 lea	 ecx, DWORD PTR _WzMemScript$[ebp]
  004f6	66 89 46 36	 mov	 WORD PTR [esi+54], ax
  004fa	e8 00 00 00 00	 call	 ?GetToken@CWzMemScript@@QAE?AW4SMDToken@@XZ ; CWzMemScript::GetToken

; 5354 : 					p->RequireEnergy = WzMemScript.GetNumber();

  004ff	8d 8d 6c ff ff
	ff		 lea	 ecx, DWORD PTR _WzMemScript$[ebp]
  00505	e8 00 00 00 00	 call	 ?GetNumber@CWzMemScript@@QAEHXZ ; CWzMemScript::GetNumber

; 5355 : 
; 5356 : 					Token = WzMemScript.GetToken();

  0050a	8d 8d 6c ff ff
	ff		 lea	 ecx, DWORD PTR _WzMemScript$[ebp]
  00510	66 89 46 38	 mov	 WORD PTR [esi+56], ax
  00514	e8 00 00 00 00	 call	 ?GetToken@CWzMemScript@@QAE?AW4SMDToken@@XZ ; CWzMemScript::GetToken

; 5357 : 					p->RequireVitality = WzMemScript.GetNumber();

  00519	8d 8d 6c ff ff
	ff		 lea	 ecx, DWORD PTR _WzMemScript$[ebp]
  0051f	e8 00 00 00 00	 call	 ?GetNumber@CWzMemScript@@QAEHXZ ; CWzMemScript::GetNumber

; 5358 : 
; 5359 : 					Token = WzMemScript.GetToken();

  00524	8d 8d 6c ff ff
	ff		 lea	 ecx, DWORD PTR _WzMemScript$[ebp]
  0052a	66 89 46 4c	 mov	 WORD PTR [esi+76], ax
  0052e	e8 00 00 00 00	 call	 ?GetToken@CWzMemScript@@QAE?AW4SMDToken@@XZ ; CWzMemScript::GetToken

; 5360 : 					p->RequireLeadership = WzMemScript.GetNumber();

  00533	8d 8d 6c ff ff
	ff		 lea	 ecx, DWORD PTR _WzMemScript$[ebp]
  00539	e8 00 00 00 00	 call	 ?GetNumber@CWzMemScript@@QAEHXZ ; CWzMemScript::GetNumber
  0053e	89 46 6c	 mov	 DWORD PTR [esi+108], eax
$LN20@OpenItemSc:

; 5361 : 				}
; 5362 : 
; 5363 : 				if ( ItemType == 13 )

  00541	83 ff 0d	 cmp	 edi, 13			; 0000000dH
  00544	0f 85 04 01 00
	00		 jne	 $LN28@OpenItemSc

; 5364 : 				{
; 5365 : 					Token = WzMemScript.GetToken();

  0054a	8d 8d 6c ff ff
	ff		 lea	 ecx, DWORD PTR _WzMemScript$[ebp]
  00550	e8 00 00 00 00	 call	 ?GetToken@CWzMemScript@@QAE?AW4SMDToken@@XZ ; CWzMemScript::GetToken

; 5366 : 					p->Level = WzMemScript.GetNumber();

  00555	8d 8d 6c ff ff
	ff		 lea	 ecx, DWORD PTR _WzMemScript$[ebp]
  0055b	e8 00 00 00 00	 call	 ?GetNumber@CWzMemScript@@QAEHXZ ; CWzMemScript::GetNumber

; 5367 : 
; 5368 : 					Token = WzMemScript.GetToken();

  00560	8d 8d 6c ff ff
	ff		 lea	 ecx, DWORD PTR _WzMemScript$[ebp]
  00566	88 46 22	 mov	 BYTE PTR [esi+34], al
  00569	e8 00 00 00 00	 call	 ?GetToken@CWzMemScript@@QAE?AW4SMDToken@@XZ ; CWzMemScript::GetToken

; 5369 : 					p->Durability = WzMemScript.GetNumber();

  0056e	8d 8d 6c ff ff
	ff		 lea	 ecx, DWORD PTR _WzMemScript$[ebp]
  00574	e8 00 00 00 00	 call	 ?GetNumber@CWzMemScript@@QAEHXZ ; CWzMemScript::GetNumber

; 5370 : 
; 5371 : 					Token = WzMemScript.GetToken();

  00579	8d 8d 6c ff ff
	ff		 lea	 ecx, DWORD PTR _WzMemScript$[ebp]
  0057f	88 46 30	 mov	 BYTE PTR [esi+48], al
  00582	e8 00 00 00 00	 call	 ?GetToken@CWzMemScript@@QAE?AW4SMDToken@@XZ ; CWzMemScript::GetToken

; 5372 : 					p->Resistance[0] = WzMemScript.GetNumber();

  00587	8d 8d 6c ff ff
	ff		 lea	 ecx, DWORD PTR _WzMemScript$[ebp]
  0058d	e8 00 00 00 00	 call	 ?GetNumber@CWzMemScript@@QAEHXZ ; CWzMemScript::GetNumber

; 5373 : 
; 5374 : 					Token = WzMemScript.GetToken();

  00592	8d 8d 6c ff ff
	ff		 lea	 ecx, DWORD PTR _WzMemScript$[ebp]
  00598	88 46 45	 mov	 BYTE PTR [esi+69], al
  0059b	e8 00 00 00 00	 call	 ?GetToken@CWzMemScript@@QAE?AW4SMDToken@@XZ ; CWzMemScript::GetToken

; 5375 : 					p->Resistance[1] = WzMemScript.GetNumber();

  005a0	8d 8d 6c ff ff
	ff		 lea	 ecx, DWORD PTR _WzMemScript$[ebp]
  005a6	e8 00 00 00 00	 call	 ?GetNumber@CWzMemScript@@QAEHXZ ; CWzMemScript::GetNumber

; 5376 : 
; 5377 : 					Token = WzMemScript.GetToken();

  005ab	8d 8d 6c ff ff
	ff		 lea	 ecx, DWORD PTR _WzMemScript$[ebp]
  005b1	88 46 46	 mov	 BYTE PTR [esi+70], al
  005b4	e8 00 00 00 00	 call	 ?GetToken@CWzMemScript@@QAE?AW4SMDToken@@XZ ; CWzMemScript::GetToken

; 5378 : 					p->Resistance[2] = WzMemScript.GetNumber();

  005b9	8d 8d 6c ff ff
	ff		 lea	 ecx, DWORD PTR _WzMemScript$[ebp]
  005bf	e8 00 00 00 00	 call	 ?GetNumber@CWzMemScript@@QAEHXZ ; CWzMemScript::GetNumber

; 5379 : 
; 5380 : 					Token = WzMemScript.GetToken();

  005c4	8d 8d 6c ff ff
	ff		 lea	 ecx, DWORD PTR _WzMemScript$[ebp]
  005ca	88 46 47	 mov	 BYTE PTR [esi+71], al
  005cd	e8 00 00 00 00	 call	 ?GetToken@CWzMemScript@@QAE?AW4SMDToken@@XZ ; CWzMemScript::GetToken

; 5381 : 					p->Resistance[3] = WzMemScript.GetNumber();

  005d2	8d 8d 6c ff ff
	ff		 lea	 ecx, DWORD PTR _WzMemScript$[ebp]
  005d8	e8 00 00 00 00	 call	 ?GetNumber@CWzMemScript@@QAEHXZ ; CWzMemScript::GetNumber

; 5382 : 
; 5383 : 					Token = WzMemScript.GetToken();

  005dd	8d 8d 6c ff ff
	ff		 lea	 ecx, DWORD PTR _WzMemScript$[ebp]
  005e3	88 46 48	 mov	 BYTE PTR [esi+72], al
  005e6	e8 00 00 00 00	 call	 ?GetToken@CWzMemScript@@QAE?AW4SMDToken@@XZ ; CWzMemScript::GetToken

; 5384 : 					p->Resistance[4] = WzMemScript.GetNumber();

  005eb	8d 8d 6c ff ff
	ff		 lea	 ecx, DWORD PTR _WzMemScript$[ebp]
  005f1	e8 00 00 00 00	 call	 ?GetNumber@CWzMemScript@@QAEHXZ ; CWzMemScript::GetNumber

; 5385 : 
; 5386 : 					Token = WzMemScript.GetToken();

  005f6	8d 8d 6c ff ff
	ff		 lea	 ecx, DWORD PTR _WzMemScript$[ebp]
  005fc	88 46 49	 mov	 BYTE PTR [esi+73], al
  005ff	e8 00 00 00 00	 call	 ?GetToken@CWzMemScript@@QAE?AW4SMDToken@@XZ ; CWzMemScript::GetToken

; 5387 : 					p->Resistance[5] = WzMemScript.GetNumber();

  00604	8d 8d 6c ff ff
	ff		 lea	 ecx, DWORD PTR _WzMemScript$[ebp]
  0060a	e8 00 00 00 00	 call	 ?GetNumber@CWzMemScript@@QAEHXZ ; CWzMemScript::GetNumber

; 5388 : 
; 5389 : 					Token = WzMemScript.GetToken();

  0060f	8d 8d 6c ff ff
	ff		 lea	 ecx, DWORD PTR _WzMemScript$[ebp]
  00615	88 46 4a	 mov	 BYTE PTR [esi+74], al
  00618	e8 00 00 00 00	 call	 ?GetToken@CWzMemScript@@QAE?AW4SMDToken@@XZ ; CWzMemScript::GetToken

; 5390 : 					p->Resistance[6] = WzMemScript.GetNumber();

  0061d	8d 8d 6c ff ff
	ff		 lea	 ecx, DWORD PTR _WzMemScript$[ebp]
  00623	e8 00 00 00 00	 call	 ?GetNumber@CWzMemScript@@QAEHXZ ; CWzMemScript::GetNumber
  00628	88 46 4b	 mov	 BYTE PTR [esi+75], al

; 5391 : 
; 5392 : 					p->ResistanceType = -1;
; 5393 : 					
; 5394 : 					int n;
; 5395 : 
; 5396 : 					for (n=0;n<MAX_ITEM_SPECIAL_ATTRIBUTE-1;n++)

  0062b	33 c0		 xor	 eax, eax
  0062d	c6 46 62 ff	 mov	 BYTE PTR [esi+98], 255	; 000000ffH
$LL11@OpenItemSc:

; 5397 : 					{
; 5398 : 						if ( (p->Resistance[n]) != 0 )

  00631	80 7c 06 45 00	 cmp	 BYTE PTR [esi+eax+69], 0
  00636	74 03		 je	 SHORT $LN9@OpenItemSc

; 5399 : 						{
; 5400 : 							p->ResistanceType=n;

  00638	88 46 62	 mov	 BYTE PTR [esi+98], al
$LN9@OpenItemSc:

; 5391 : 
; 5392 : 					p->ResistanceType = -1;
; 5393 : 					
; 5394 : 					int n;
; 5395 : 
; 5396 : 					for (n=0;n<MAX_ITEM_SPECIAL_ATTRIBUTE-1;n++)

  0063b	40		 inc	 eax
  0063c	83 f8 06	 cmp	 eax, 6
  0063f	7c f0		 jl	 SHORT $LL11@OpenItemSc

; 5401 : 						}
; 5402 : 					}
; 5403 : 
; 5404 : 					p->RequireLevel = p->Level ;

  00641	0f b6 46 22	 movzx	 eax, BYTE PTR [esi+34]
  00645	66 89 46 3a	 mov	 WORD PTR [esi+58], ax

; 5405 : 					
; 5406 : 				}
; 5407 : 
; 5408 : 				if ( ItemType == 14 )

  00649	e9 b5 01 00 00	 jmp	 $LN34@OpenItemSc
$LN28@OpenItemSc:
  0064e	83 ff 0e	 cmp	 edi, 14			; 0000000eH
  00651	75 3c		 jne	 SHORT $LN30@OpenItemSc

; 5409 : 				{
; 5410 : 					Token = WzMemScript.GetToken();

  00653	8d 8d 6c ff ff
	ff		 lea	 ecx, DWORD PTR _WzMemScript$[ebp]
  00659	e8 00 00 00 00	 call	 ?GetToken@CWzMemScript@@QAE?AW4SMDToken@@XZ ; CWzMemScript::GetToken

; 5411 : 					p->Value = WzMemScript.GetNumber();

  0065e	8d 8d 6c ff ff
	ff		 lea	 ecx, DWORD PTR _WzMemScript$[ebp]
  00664	e8 00 00 00 00	 call	 ?GetNumber@CWzMemScript@@QAEHXZ ; CWzMemScript::GetNumber

; 5412 : 
; 5413 : 					Token = WzMemScript.GetToken();

  00669	8d 8d 6c ff ff
	ff		 lea	 ecx, DWORD PTR _WzMemScript$[ebp]
  0066f	66 89 46 3c	 mov	 WORD PTR [esi+60], ax
  00673	e8 00 00 00 00	 call	 ?GetToken@CWzMemScript@@QAE?AW4SMDToken@@XZ ; CWzMemScript::GetToken

; 5414 : 					p->Level = WzMemScript.GetNumber();

  00678	8d 8d 6c ff ff
	ff		 lea	 ecx, DWORD PTR _WzMemScript$[ebp]
  0067e	e8 00 00 00 00	 call	 ?GetNumber@CWzMemScript@@QAEHXZ ; CWzMemScript::GetNumber
  00683	88 46 22	 mov	 BYTE PTR [esi+34], al

; 5415 : 
; 5416 : 					p->Durability = 1;

  00686	c6 46 30 01	 mov	 BYTE PTR [esi+48], 1

; 5417 : 				}
; 5418 : 
; 5419 : 				if ( ItemType == 12 )

  0068a	e9 7f 01 00 00	 jmp	 $LN33@OpenItemSc
$LN30@OpenItemSc:
  0068f	83 ff 0c	 cmp	 edi, 12			; 0000000cH
  00692	0f 85 ea 00 00
	00		 jne	 $LN31@OpenItemSc

; 5420 : 				{
; 5421 : 					Token = WzMemScript.GetToken();

  00698	8d 8d 6c ff ff
	ff		 lea	 ecx, DWORD PTR _WzMemScript$[ebp]
  0069e	e8 00 00 00 00	 call	 ?GetToken@CWzMemScript@@QAE?AW4SMDToken@@XZ ; CWzMemScript::GetToken

; 5422 : 					p->Level = WzMemScript.GetNumber();

  006a3	8d 8d 6c ff ff
	ff		 lea	 ecx, DWORD PTR _WzMemScript$[ebp]
  006a9	e8 00 00 00 00	 call	 ?GetNumber@CWzMemScript@@QAEHXZ ; CWzMemScript::GetNumber

; 5423 : 
; 5424 : 					Token = WzMemScript.GetToken();

  006ae	8d 8d 6c ff ff
	ff		 lea	 ecx, DWORD PTR _WzMemScript$[ebp]
  006b4	88 46 22	 mov	 BYTE PTR [esi+34], al
  006b7	e8 00 00 00 00	 call	 ?GetToken@CWzMemScript@@QAE?AW4SMDToken@@XZ ; CWzMemScript::GetToken

; 5425 : 					p->Defense = WzMemScript.GetNumber();

  006bc	8d 8d 6c ff ff
	ff		 lea	 ecx, DWORD PTR _WzMemScript$[ebp]
  006c2	e8 00 00 00 00	 call	 ?GetNumber@CWzMemScript@@QAEHXZ ; CWzMemScript::GetNumber

; 5426 : 
; 5427 : 					Token = WzMemScript.GetToken();

  006c7	8d 8d 6c ff ff
	ff		 lea	 ecx, DWORD PTR _WzMemScript$[ebp]
  006cd	88 46 2d	 mov	 BYTE PTR [esi+45], al
  006d0	e8 00 00 00 00	 call	 ?GetToken@CWzMemScript@@QAE?AW4SMDToken@@XZ ; CWzMemScript::GetToken

; 5428 : 					p->Durability = WzMemScript.GetNumber();

  006d5	8d 8d 6c ff ff
	ff		 lea	 ecx, DWORD PTR _WzMemScript$[ebp]
  006db	e8 00 00 00 00	 call	 ?GetNumber@CWzMemScript@@QAEHXZ ; CWzMemScript::GetNumber

; 5429 : 
; 5430 : 					Token = WzMemScript.GetToken();

  006e0	8d 8d 6c ff ff
	ff		 lea	 ecx, DWORD PTR _WzMemScript$[ebp]
  006e6	88 46 30	 mov	 BYTE PTR [esi+48], al
  006e9	e8 00 00 00 00	 call	 ?GetToken@CWzMemScript@@QAE?AW4SMDToken@@XZ ; CWzMemScript::GetToken

; 5431 : 					p->RequireLevel = WzMemScript.GetNumber();

  006ee	8d 8d 6c ff ff
	ff		 lea	 ecx, DWORD PTR _WzMemScript$[ebp]
  006f4	e8 00 00 00 00	 call	 ?GetNumber@CWzMemScript@@QAEHXZ ; CWzMemScript::GetNumber

; 5432 : 
; 5433 : 					Token = WzMemScript.GetToken();

  006f9	8d 8d 6c ff ff
	ff		 lea	 ecx, DWORD PTR _WzMemScript$[ebp]
  006ff	66 89 46 3a	 mov	 WORD PTR [esi+58], ax
  00703	e8 00 00 00 00	 call	 ?GetToken@CWzMemScript@@QAE?AW4SMDToken@@XZ ; CWzMemScript::GetToken

; 5434 : 					p->RequireEnergy = WzMemScript.GetNumber();

  00708	8d 8d 6c ff ff
	ff		 lea	 ecx, DWORD PTR _WzMemScript$[ebp]
  0070e	e8 00 00 00 00	 call	 ?GetNumber@CWzMemScript@@QAEHXZ ; CWzMemScript::GetNumber

; 5435 : 
; 5436 : 					Token = WzMemScript.GetToken();

  00713	8d 8d 6c ff ff
	ff		 lea	 ecx, DWORD PTR _WzMemScript$[ebp]
  00719	66 89 46 38	 mov	 WORD PTR [esi+56], ax
  0071d	e8 00 00 00 00	 call	 ?GetToken@CWzMemScript@@QAE?AW4SMDToken@@XZ ; CWzMemScript::GetToken

; 5437 : 					p->RequireStrength = WzMemScript.GetNumber();

  00722	8d 8d 6c ff ff
	ff		 lea	 ecx, DWORD PTR _WzMemScript$[ebp]
  00728	e8 00 00 00 00	 call	 ?GetNumber@CWzMemScript@@QAEHXZ ; CWzMemScript::GetNumber

; 5438 : 
; 5439 : 					Token = WzMemScript.GetToken();

  0072d	8d 8d 6c ff ff
	ff		 lea	 ecx, DWORD PTR _WzMemScript$[ebp]
  00733	66 89 46 34	 mov	 WORD PTR [esi+52], ax
  00737	e8 00 00 00 00	 call	 ?GetToken@CWzMemScript@@QAE?AW4SMDToken@@XZ ; CWzMemScript::GetToken

; 5440 : 					p->RequireDexterity = WzMemScript.GetNumber();

  0073c	8d 8d 6c ff ff
	ff		 lea	 ecx, DWORD PTR _WzMemScript$[ebp]
  00742	e8 00 00 00 00	 call	 ?GetNumber@CWzMemScript@@QAEHXZ ; CWzMemScript::GetNumber

; 5441 : 
; 5442 : 					Token = WzMemScript.GetToken();

  00747	8d 8d 6c ff ff
	ff		 lea	 ecx, DWORD PTR _WzMemScript$[ebp]
  0074d	66 89 46 36	 mov	 WORD PTR [esi+54], ax
  00751	e8 00 00 00 00	 call	 ?GetToken@CWzMemScript@@QAE?AW4SMDToken@@XZ ; CWzMemScript::GetToken

; 5443 : 					p->RequireLeadership = WzMemScript.GetNumber();

  00756	8d 8d 6c ff ff
	ff		 lea	 ecx, DWORD PTR _WzMemScript$[ebp]
  0075c	e8 00 00 00 00	 call	 ?GetNumber@CWzMemScript@@QAEHXZ ; CWzMemScript::GetNumber

; 5444 : 
; 5445 : 					Token = WzMemScript.GetToken();

  00761	8d 8d 6c ff ff
	ff		 lea	 ecx, DWORD PTR _WzMemScript$[ebp]
  00767	89 46 6c	 mov	 DWORD PTR [esi+108], eax
  0076a	e8 00 00 00 00	 call	 ?GetToken@CWzMemScript@@QAE?AW4SMDToken@@XZ ; CWzMemScript::GetToken

; 5446 : 					p->BuyMoney = WzMemScript.GetNumber();

  0076f	8d 8d 6c ff ff
	ff		 lea	 ecx, DWORD PTR _WzMemScript$[ebp]
  00775	e8 00 00 00 00	 call	 ?GetNumber@CWzMemScript@@QAEHXZ ; CWzMemScript::GetNumber
  0077a	89 46 50	 mov	 DWORD PTR [esi+80], eax

; 5447 : 
; 5448 : 				}
; 5449 : 				
; 5450 : 				if ( ItemType == 15 )

  0077d	e9 8c 00 00 00	 jmp	 $LN33@OpenItemSc
$LN31@OpenItemSc:
  00782	83 ff 0f	 cmp	 edi, 15			; 0000000fH
  00785	75 77		 jne	 SHORT $LN32@OpenItemSc

; 5451 : 				{
; 5452 : 
; 5453 : 					Token = WzMemScript.GetToken();

  00787	8d 8d 6c ff ff
	ff		 lea	 ecx, DWORD PTR _WzMemScript$[ebp]
  0078d	e8 00 00 00 00	 call	 ?GetToken@CWzMemScript@@QAE?AW4SMDToken@@XZ ; CWzMemScript::GetToken

; 5454 : 					p->Level = WzMemScript.GetNumber();

  00792	8d 8d 6c ff ff
	ff		 lea	 ecx, DWORD PTR _WzMemScript$[ebp]
  00798	e8 00 00 00 00	 call	 ?GetNumber@CWzMemScript@@QAEHXZ ; CWzMemScript::GetNumber

; 5455 : 
; 5456 : 					Token = WzMemScript.GetToken();

  0079d	8d 8d 6c ff ff
	ff		 lea	 ecx, DWORD PTR _WzMemScript$[ebp]
  007a3	88 46 22	 mov	 BYTE PTR [esi+34], al
  007a6	e8 00 00 00 00	 call	 ?GetToken@CWzMemScript@@QAE?AW4SMDToken@@XZ ; CWzMemScript::GetToken

; 5457 : 					p->RequireLevel  = WzMemScript.GetNumber();

  007ab	8d 8d 6c ff ff
	ff		 lea	 ecx, DWORD PTR _WzMemScript$[ebp]
  007b1	e8 00 00 00 00	 call	 ?GetNumber@CWzMemScript@@QAEHXZ ; CWzMemScript::GetNumber

; 5458 : 
; 5459 : 					Token = WzMemScript.GetToken();

  007b6	8d 8d 6c ff ff
	ff		 lea	 ecx, DWORD PTR _WzMemScript$[ebp]
  007bc	66 89 46 3a	 mov	 WORD PTR [esi+58], ax
  007c0	e8 00 00 00 00	 call	 ?GetToken@CWzMemScript@@QAE?AW4SMDToken@@XZ ; CWzMemScript::GetToken

; 5460 : 					p->RequireEnergy  = WzMemScript.GetNumber();

  007c5	8d 8d 6c ff ff
	ff		 lea	 ecx, DWORD PTR _WzMemScript$[ebp]
  007cb	e8 00 00 00 00	 call	 ?GetNumber@CWzMemScript@@QAEHXZ ; CWzMemScript::GetNumber

; 5461 : 
; 5462 : 					Token = WzMemScript.GetToken();

  007d0	8d 8d 6c ff ff
	ff		 lea	 ecx, DWORD PTR _WzMemScript$[ebp]
  007d6	66 89 46 38	 mov	 WORD PTR [esi+56], ax
  007da	e8 00 00 00 00	 call	 ?GetToken@CWzMemScript@@QAE?AW4SMDToken@@XZ ; CWzMemScript::GetToken

; 5463 : 					p->BuyMoney  = WzMemScript.GetNumber();

  007df	8d 8d 6c ff ff
	ff		 lea	 ecx, DWORD PTR _WzMemScript$[ebp]
  007e5	e8 00 00 00 00	 call	 ?GetNumber@CWzMemScript@@QAEHXZ ; CWzMemScript::GetNumber

; 5464 : 
; 5465 : 					p->DamageMin = p->Level;

  007ea	8a 4e 22	 mov	 cl, BYTE PTR [esi+34]
  007ed	89 46 50	 mov	 DWORD PTR [esi+80], eax

; 5466 : 					p->DamageMax = p->Level + p->Level/2; 

  007f0	8a c1		 mov	 al, cl
  007f2	d0 e8		 shr	 al, 1
  007f4	02 c1		 add	 al, cl
  007f6	88 4e 2a	 mov	 BYTE PTR [esi+42], cl
  007f9	88 46 2b	 mov	 BYTE PTR [esi+43], al

; 5467 : 				}
; 5468 : 
; 5469 : 				if ( ItemType <= 11 || ItemType == 13)

  007fc	eb 10		 jmp	 SHORT $LN33@OpenItemSc
$LN32@OpenItemSc:
  007fe	83 ff 0b	 cmp	 edi, 11			; 0000000bH
  00801	7f 0b		 jg	 SHORT $LN33@OpenItemSc
$LN34@OpenItemSc:

; 5470 : 				{
; 5471 : 					Token = WzMemScript.GetToken();

  00803	8d 8d 6c ff ff
	ff		 lea	 ecx, DWORD PTR _WzMemScript$[ebp]
  00809	e8 00 00 00 00	 call	 ?GetToken@CWzMemScript@@QAE?AW4SMDToken@@XZ ; CWzMemScript::GetToken
$LN33@OpenItemSc:

; 5472 : 				}
; 5473 : 
; 5474 : 				p->SetAttr = WzMemScript.GetNumber();

  0080e	8d 8d 6c ff ff
	ff		 lea	 ecx, DWORD PTR _WzMemScript$[ebp]
  00814	e8 00 00 00 00	 call	 ?GetNumber@CWzMemScript@@QAEHXZ ; CWzMemScript::GetNumber
  00819	88 46 61	 mov	 BYTE PTR [esi+97], al

; 5475 : 
; 5476 : 				if ( ItemType <= 13 || ItemType == 15 )

  0081c	83 ff 0d	 cmp	 edi, 13			; 0000000dH
  0081f	7e 05		 jle	 SHORT $LN36@OpenItemSc
  00821	83 ff 0f	 cmp	 edi, 15			; 0000000fH
  00824	75 7d		 jne	 SHORT $LN35@OpenItemSc
$LN36@OpenItemSc:

; 5477 : 				{
; 5478 : 
; 5479 : 					Token = WzMemScript.GetToken();

  00826	8d 8d 6c ff ff
	ff		 lea	 ecx, DWORD PTR _WzMemScript$[ebp]
  0082c	e8 00 00 00 00	 call	 ?GetToken@CWzMemScript@@QAE?AW4SMDToken@@XZ ; CWzMemScript::GetToken

; 5480 : 					p->RequireClass[0]  = WzMemScript.GetNumber();

  00831	8d 8d 6c ff ff
	ff		 lea	 ecx, DWORD PTR _WzMemScript$[ebp]
  00837	e8 00 00 00 00	 call	 ?GetNumber@CWzMemScript@@QAEHXZ ; CWzMemScript::GetNumber

; 5481 : 
; 5482 : 					Token = WzMemScript.GetToken();

  0083c	8d 8d 6c ff ff
	ff		 lea	 ecx, DWORD PTR _WzMemScript$[ebp]
  00842	88 46 3e	 mov	 BYTE PTR [esi+62], al
  00845	e8 00 00 00 00	 call	 ?GetToken@CWzMemScript@@QAE?AW4SMDToken@@XZ ; CWzMemScript::GetToken

; 5483 : 					p->RequireClass[1]  = WzMemScript.GetNumber();

  0084a	8d 8d 6c ff ff
	ff		 lea	 ecx, DWORD PTR _WzMemScript$[ebp]
  00850	e8 00 00 00 00	 call	 ?GetNumber@CWzMemScript@@QAEHXZ ; CWzMemScript::GetNumber

; 5484 : 
; 5485 : 					Token = WzMemScript.GetToken();

  00855	8d 8d 6c ff ff
	ff		 lea	 ecx, DWORD PTR _WzMemScript$[ebp]
  0085b	88 46 3f	 mov	 BYTE PTR [esi+63], al
  0085e	e8 00 00 00 00	 call	 ?GetToken@CWzMemScript@@QAE?AW4SMDToken@@XZ ; CWzMemScript::GetToken

; 5486 : 					p->RequireClass[2]  = WzMemScript.GetNumber();

  00863	8d 8d 6c ff ff
	ff		 lea	 ecx, DWORD PTR _WzMemScript$[ebp]
  00869	e8 00 00 00 00	 call	 ?GetNumber@CWzMemScript@@QAEHXZ ; CWzMemScript::GetNumber

; 5487 : 
; 5488 : 					Token = WzMemScript.GetToken();

  0086e	8d 8d 6c ff ff
	ff		 lea	 ecx, DWORD PTR _WzMemScript$[ebp]
  00874	88 46 40	 mov	 BYTE PTR [esi+64], al
  00877	e8 00 00 00 00	 call	 ?GetToken@CWzMemScript@@QAE?AW4SMDToken@@XZ ; CWzMemScript::GetToken

; 5489 : 					p->RequireClass[3]  = WzMemScript.GetNumber();

  0087c	8d 8d 6c ff ff
	ff		 lea	 ecx, DWORD PTR _WzMemScript$[ebp]
  00882	e8 00 00 00 00	 call	 ?GetNumber@CWzMemScript@@QAEHXZ ; CWzMemScript::GetNumber

; 5490 : 
; 5491 : 					Token = WzMemScript.GetToken();

  00887	8d 8d 6c ff ff
	ff		 lea	 ecx, DWORD PTR _WzMemScript$[ebp]
  0088d	88 46 41	 mov	 BYTE PTR [esi+65], al
  00890	e8 00 00 00 00	 call	 ?GetToken@CWzMemScript@@QAE?AW4SMDToken@@XZ ; CWzMemScript::GetToken

; 5492 : 					p->RequireClass[4]  = WzMemScript.GetNumber();

  00895	8d 8d 6c ff ff
	ff		 lea	 ecx, DWORD PTR _WzMemScript$[ebp]
  0089b	e8 00 00 00 00	 call	 ?GetNumber@CWzMemScript@@QAEHXZ ; CWzMemScript::GetNumber
  008a0	88 46 42	 mov	 BYTE PTR [esi+66], al
$LN35@OpenItemSc:

; 5493 : 				}
; 5494 : 
; 5495 : 				CalRepairRate(ItemType, ItemSubType, p);

  008a3	56		 push	 esi
  008a4	53		 push	 ebx
  008a5	57		 push	 edi
  008a6	e8 00 00 00 00	 call	 ?CalRepairRate@@YAXHHPAUITEM_ATTRIBUTE@@@Z ; CalRepairRate

; 5496 : 
; 5497 : 				p->HaveItemInfo = TRUE;
; 5498 : 
; 5499 : 				loop_count++;

  008ab	8b 85 68 ff ff
	ff		 mov	 eax, DWORD PTR _loop_count$1$[ebp]
  008b1	83 c4 0c	 add	 esp, 12			; 0000000cH
  008b4	40		 inc	 eax
  008b5	c6 46 20 01	 mov	 BYTE PTR [esi+32], 1
  008b9	89 85 68 ff ff
	ff		 mov	 DWORD PTR _loop_count$1$[ebp], eax

; 5500 : 
; 5501 : 				if ( loop_count > MAX_SUBTYPE_ITEMS )

  008bf	3d 00 02 00 00	 cmp	 eax, 512		; 00000200H
  008c4	0f 8e f6 f7 ff
	ff		 jle	 $LL7@OpenItemSc

; 5502 : 				{
; 5503 : 					MsgBox("Error : Item Data fail. (LoopCount:%d) Item Type:%d Index %d", loop_count, ItemType, ItemSubType);

  008ca	53		 push	 ebx
  008cb	57		 push	 edi
  008cc	50		 push	 eax
  008cd	68 00 00 00 00	 push	 OFFSET ??_C@_0DN@NLHNDLLL@Error?5?3?5Item?5Data?5fail?4?5?$CILoopCou@
  008d2	e8 00 00 00 00	 call	 ?MsgBox@@YAXPADZZ	; MsgBox
  008d7	83 c4 10	 add	 esp, 16			; 00000010H
$LN8@OpenItemSc:

; 5183 : 	}
; 5184 : 
; 5185 : 	while ( true )
; 5186 : 	{
; 5187 : 		Token = WzMemScript.GetToken();

  008da	8d 8d 6c ff ff
	ff		 lea	 ecx, DWORD PTR _WzMemScript$[ebp]
  008e0	e8 00 00 00 00	 call	 ?GetToken@CWzMemScript@@QAE?AW4SMDToken@@XZ ; CWzMemScript::GetToken

; 5188 : 
; 5189 : 		if ( Token == 2 )

  008e5	83 f8 02	 cmp	 eax, 2
  008e8	0f 85 b2 f7 ff
	ff		 jne	 $LL5@OpenItemSc
$LN49@OpenItemSc:

; 5504 : 					break;
; 5505 : 				}
; 5506 : 			}
; 5507 : 		}
; 5508 : 	}
; 5509 : 	
; 5510 : 	return TRUE;

  008ee	8d 8d 6c ff ff
	ff		 lea	 ecx, DWORD PTR _WzMemScript$[ebp]
  008f4	e8 00 00 00 00	 call	 ??1CWzMemScript@@UAE@XZ	; CWzMemScript::~CWzMemScript
  008f9	b8 01 00 00 00	 mov	 eax, 1

; 5511 : 
; 5512 : }

  008fe	8b 4d f4	 mov	 ecx, DWORD PTR __$EHRec$[ebp]
  00901	64 89 0d 00 00
	00 00		 mov	 DWORD PTR fs:0, ecx
  00908	59		 pop	 ecx
  00909	5f		 pop	 edi
  0090a	5e		 pop	 esi
  0090b	5b		 pop	 ebx
  0090c	8b 4d f0	 mov	 ecx, DWORD PTR __$ArrayPad$[ebp]
  0090f	33 cd		 xor	 ecx, ebp
  00911	e8 00 00 00 00	 call	 @__security_check_cookie@4
  00916	8b e5		 mov	 esp, ebp
  00918	5d		 pop	 ebp
  00919	c3		 ret	 0
_TEXT	ENDS
;	COMDAT text$x
text$x	SEGMENT
__unwindfunclet$?OpenItemScript@@YAHPADH@Z$0:
  00000	8d 8d 6c ff ff
	ff		 lea	 ecx, DWORD PTR _WzMemScript$[ebp]
  00006	e9 00 00 00 00	 jmp	 ??1CWzMemScript@@UAE@XZ	; CWzMemScript::~CWzMemScript
__ehhandler$?OpenItemScript@@YAHPADH@Z:
  0000b	8b 54 24 08	 mov	 edx, DWORD PTR [esp+8]
  0000f	8d 42 0c	 lea	 eax, DWORD PTR [edx+12]
  00012	8b 8a 64 ff ff
	ff		 mov	 ecx, DWORD PTR [edx-156]
  00018	33 c8		 xor	 ecx, eax
  0001a	e8 00 00 00 00	 call	 @__security_check_cookie@4
  0001f	8b 4a fc	 mov	 ecx, DWORD PTR [edx-4]
  00022	33 c8		 xor	 ecx, eax
  00024	e8 00 00 00 00	 call	 @__security_check_cookie@4
  00029	b8 00 00 00 00	 mov	 eax, OFFSET __ehfuncinfo$?OpenItemScript@@YAHPADH@Z
  0002e	e9 00 00 00 00	 jmp	 ___CxxFrameHandler3
text$x	ENDS
?OpenItemScript@@YAHPADH@Z ENDP				; OpenItemScript
; Function compile flags: /Ogtp
; File c:\users\michel\desktop\source\gameserver\common\zzzitem.cpp
;	COMDAT ?OpenItemNameScript@@YAHPAD@Z
_TEXT	SEGMENT
_FileName$ = 8						; size = 4
?OpenItemNameScript@@YAHPAD@Z PROC			; OpenItemNameScript, COMDAT

; 5112 : {

  00000	55		 push	 ebp
  00001	8b ec		 mov	 ebp, esp

; 5113 : 	
; 5114 : 	int Token;
; 5115 : 
; 5116 : 	SMDFile = fopen(FileName, "r");

  00003	68 00 00 00 00	 push	 OFFSET ??_C@_01KDCPPGHE@r?$AA@
  00008	ff 75 08	 push	 DWORD PTR _FileName$[ebp]
  0000b	e8 00 00 00 00	 call	 _fopen
  00010	83 c4 08	 add	 esp, 8
  00013	a3 00 00 00 00	 mov	 DWORD PTR ?SMDFile@@3PAU_iobuf@@A, eax

; 5117 : 
; 5118 : 	if (SMDFile == 0 )

  00018	85 c0		 test	 eax, eax
  0001a	75 02		 jne	 SHORT $LN14@OpenItemNa

; 5164 : }

  0001c	5d		 pop	 ebp
  0001d	c3		 ret	 0
$LN14@OpenItemNa:

; 5119 : 	{
; 5120 : 		return FALSE;
; 5121 : 	}
; 5122 : 
; 5123 : 	while ( true )
; 5124 : 	{
; 5125 : 		Token = GetToken();

  0001e	e8 00 00 00 00	 call	 ?GetToken@@YA?AW4SMDToken@@XZ ; GetToken

; 5126 : 
; 5127 : 		if ( Token == 2 )

  00023	83 f8 02	 cmp	 eax, 2
  00026	0f 84 96 00 00
	00		 je	 $LN18@OpenItemNa
  0002c	56		 push	 esi
  0002d	57		 push	 edi
  0002e	66 90		 npad	 2
$LL2@OpenItemNa:

; 5128 : 		{
; 5129 : 			break;
; 5130 : 		}
; 5131 : 		if ( Token == 1 )

  00030	83 f8 01	 cmp	 eax, 1
  00033	0f 85 79 00 00
	00		 jne	 $LN29@OpenItemNa

; 5132 : 		{
; 5133 : 			int ItemType;
; 5134 : 
; 5135 : 			ItemType = TokenNumber;

  00039	f3 0f 2c 3d 00
	00 00 00	 cvttss2si edi, DWORD PTR ?TokenNumber@@3MA
$LL4@OpenItemNa:

; 5136 : 
; 5137 : 			while ( true )
; 5138 : 			{
; 5139 : 				int ItemSubType;
; 5140 : 				LPITEM_ATTRIBUTE p;
; 5141 : 
; 5142 : 				Token = GetToken();

  00041	e8 00 00 00 00	 call	 ?GetToken@@YA?AW4SMDToken@@XZ ; GetToken

; 5143 : 				ItemSubType = TokenNumber;

  00046	f3 0f 2c 35 00
	00 00 00	 cvttss2si esi, DWORD PTR ?TokenNumber@@3MA

; 5144 : 
; 5145 : 				if ( Token == 0 )

  0004e	85 c0		 test	 eax, eax
  00050	75 37		 jne	 SHORT $LN10@OpenItemNa

; 5146 : 				{
; 5147 : 					if ( strcmp("end", TokenString ) == 0 )

  00052	b9 00 00 00 00	 mov	 ecx, OFFSET ?TokenString@@3PADA
  00057	b8 00 00 00 00	 mov	 eax, OFFSET ??_C@_03JBJLGPFL@end?$AA@
  0005c	0f 1f 40 00	 npad	 4
$LL25@OpenItemNa:
  00060	8a 10		 mov	 dl, BYTE PTR [eax]
  00062	3a 11		 cmp	 dl, BYTE PTR [ecx]
  00064	75 1a		 jne	 SHORT $LN26@OpenItemNa
  00066	84 d2		 test	 dl, dl
  00068	74 12		 je	 SHORT $LN27@OpenItemNa
  0006a	8a 50 01	 mov	 dl, BYTE PTR [eax+1]
  0006d	3a 51 01	 cmp	 dl, BYTE PTR [ecx+1]
  00070	75 0e		 jne	 SHORT $LN26@OpenItemNa
  00072	83 c0 02	 add	 eax, 2
  00075	83 c1 02	 add	 ecx, 2
  00078	84 d2		 test	 dl, dl
  0007a	75 e4		 jne	 SHORT $LL25@OpenItemNa
$LN27@OpenItemNa:
  0007c	33 c0		 xor	 eax, eax
  0007e	eb 05		 jmp	 SHORT $LN28@OpenItemNa
$LN26@OpenItemNa:
  00080	1b c0		 sbb	 eax, eax
  00082	83 c8 01	 or	 eax, 1
$LN28@OpenItemNa:
  00085	85 c0		 test	 eax, eax
  00087	74 29		 je	 SHORT $LN29@OpenItemNa
$LN10@OpenItemNa:

; 5148 : 					{
; 5149 : 						break;
; 5150 : 					}
; 5151 : 				}
; 5152 : 					
; 5153 : 				p = &ItemAttribute[ItemType*MAX_SUBTYPE_ITEMS + ItemSubType];
; 5154 : 
; 5155 : 				Token = GetToken();

  00089	e8 00 00 00 00	 call	 ?GetToken@@YA?AW4SMDToken@@XZ ; GetToken

; 5156 : 				strcpy(&p->Name[0], TokenString );

  0008e	8b c7		 mov	 eax, edi
  00090	b9 00 00 00 00	 mov	 ecx, OFFSET ?TokenString@@3PADA
  00095	c1 e0 09	 shl	 eax, 9
  00098	03 c6		 add	 eax, esi
  0009a	6b d0 70	 imul	 edx, eax, 112
  0009d	2b d1		 sub	 edx, ecx
  0009f	90		 npad	 1
$LL12@OpenItemNa:
  000a0	8a 01		 mov	 al, BYTE PTR [ecx]
  000a2	8d 49 01	 lea	 ecx, DWORD PTR [ecx+1]
  000a5	88 84 0a ff ff
	ff ff		 mov	 BYTE PTR ?ItemAttribute@@3PAUITEM_ATTRIBUTE@@A[edx+ecx-1], al
  000ac	84 c0		 test	 al, al
  000ae	75 f0		 jne	 SHORT $LL12@OpenItemNa

; 5157 : 
; 5158 : 				
; 5159 : 			}

  000b0	eb 8f		 jmp	 SHORT $LL4@OpenItemNa
$LN29@OpenItemNa:

; 5119 : 	{
; 5120 : 		return FALSE;
; 5121 : 	}
; 5122 : 
; 5123 : 	while ( true )
; 5124 : 	{
; 5125 : 		Token = GetToken();

  000b2	e8 00 00 00 00	 call	 ?GetToken@@YA?AW4SMDToken@@XZ ; GetToken

; 5126 : 
; 5127 : 		if ( Token == 2 )

  000b7	83 f8 02	 cmp	 eax, 2
  000ba	0f 85 70 ff ff
	ff		 jne	 $LL2@OpenItemNa
  000c0	5f		 pop	 edi
  000c1	5e		 pop	 esi
$LN18@OpenItemNa:

; 5160 : 		}
; 5161 : 	}
; 5162 : 	fclose(SMDFile);

  000c2	ff 35 00 00 00
	00		 push	 DWORD PTR ?SMDFile@@3PAU_iobuf@@A
  000c8	e8 00 00 00 00	 call	 _fclose
  000cd	83 c4 04	 add	 esp, 4

; 5163 : 	return TRUE;

  000d0	b8 01 00 00 00	 mov	 eax, 1

; 5164 : }

  000d5	5d		 pop	 ebp
  000d6	c3		 ret	 0
?OpenItemNameScript@@YAHPAD@Z ENDP			; OpenItemNameScript
_TEXT	ENDS
; Function compile flags: /Ogtp
; File c:\users\michel\desktop\source\gameserver\common\zzzitem.cpp
;	COMDAT ?OpenItemScript@@YAHPAD@Z
_TEXT	SEGMENT
_loop_count$1$ = -4					; size = 4
_FileName$ = 8						; size = 4
?OpenItemScript@@YAHPAD@Z PROC				; OpenItemScript, COMDAT

; 4746 : {

  00000	55		 push	 ebp
  00001	8b ec		 mov	 ebp, esp
  00003	51		 push	 ecx

; 4747 : 	int loop_count;
; 4748 : 	int n;
; 4749 : 	int Token;
; 4750 : 
; 4751 : 	SMDFile = fopen(FileName, "r");

  00004	68 00 00 00 00	 push	 OFFSET ??_C@_01KDCPPGHE@r?$AA@
  00009	ff 75 08	 push	 DWORD PTR _FileName$[ebp]
  0000c	e8 00 00 00 00	 call	 _fopen
  00011	83 c4 08	 add	 esp, 8
  00014	a3 00 00 00 00	 mov	 DWORD PTR ?SMDFile@@3PAU_iobuf@@A, eax

; 4752 : 
; 4753 : 	if ( SMDFile == 0 )

  00019	85 c0		 test	 eax, eax
  0001b	75 04		 jne	 SHORT $LN12@OpenItemSc

; 5108 : }

  0001d	8b e5		 mov	 esp, ebp
  0001f	5d		 pop	 ebp
  00020	c3		 ret	 0
$LN12@OpenItemSc:

; 4754 : 	{
; 4755 : 		return FALSE;
; 4756 : 	}
; 4757 : 
; 4758 : 	memset ( ItemAttribute, 0, sizeof(ItemAttribute) );

  00021	68 00 00 0e 00	 push	 917504			; 000e0000H
  00026	6a 00		 push	 0
  00028	68 00 00 00 00	 push	 OFFSET ?ItemAttribute@@3PAUITEM_ATTRIBUTE@@A
  0002d	e8 00 00 00 00	 call	 _memset
  00032	83 c4 0c	 add	 esp, 12			; 0000000cH
  00035	b8 58 00 00 00	 mov	 eax, OFFSET ?ItemAttribute@@3PAUITEM_ATTRIBUTE@@A+88
  0003a	66 0f 1f 44 00
	00		 npad	 6
$LL4@OpenItemSc:

; 4759 : 	
; 4760 : 	for ( n=0;n<MAX_ITEMS;n++)
; 4761 : 	{
; 4762 : 		ItemAttribute[n].Level = -1;

  00040	c6 40 ca ff	 mov	 BYTE PTR [eax-54], 255	; 000000ffH

; 4763 : 		ItemAttribute[n].RepaireMoneyRate  = 0;

  00044	c7 00 00 00 00
	00		 mov	 DWORD PTR [eax], 0

; 4764 : 		ItemAttribute[n].AllRepaireMoneyRate  = 0;

  0004a	c7 40 04 00 00
	00 00		 mov	 DWORD PTR [eax+4], 0
  00051	83 c0 70	 add	 eax, 112		; 00000070H
  00054	3d 58 00 0e 00	 cmp	 eax, OFFSET ?ItemAttribute@@3PAUITEM_ATTRIBUTE@@A+917592
  00059	7c e5		 jl	 SHORT $LL4@OpenItemSc

; 4765 : 	}
; 4766 : 
; 4767 : 	
; 4768 : 	while ( true )
; 4769 : 	{
; 4770 : 		Token = GetToken();

  0005b	e8 00 00 00 00	 call	 ?GetToken@@YA?AW4SMDToken@@XZ ; GetToken

; 4771 : 
; 4772 : 		if ( Token == 2 )

  00060	83 f8 02	 cmp	 eax, 2
  00063	0f 84 fe 05 00
	00		 je	 $LN70@OpenItemSc
  00069	53		 push	 ebx
  0006a	56		 push	 esi
  0006b	57		 push	 edi
  0006c	0f 1f 40 00	 npad	 4
$LL5@OpenItemSc:

; 4773 : 		{
; 4774 : 			break;
; 4775 : 		}
; 4776 : 		if ( Token == 1 )

  00070	83 f8 01	 cmp	 eax, 1
  00073	0f 85 dd 05 00
	00		 jne	 $LN39@OpenItemSc

; 4777 : 		{
; 4778 : 			int ItemType;
; 4779 : 
; 4780 : 			ItemType = TokenNumber;

  00079	f3 0f 2c 3d 00
	00 00 00	 cvttss2si edi, DWORD PTR ?TokenNumber@@3MA

; 4781 : 			loop_count = 0;

  00081	33 f6		 xor	 esi, esi
  00083	89 75 fc	 mov	 DWORD PTR _loop_count$1$[ebp], esi
$LL7@OpenItemSc:

; 4782 : 			while ( true )
; 4783 : 			{
; 4784 : 				int ItemSubType;
; 4785 : 				LPITEM_ATTRIBUTE p;
; 4786 : 				
; 4787 : 				Token = GetToken();

  00086	e8 00 00 00 00	 call	 ?GetToken@@YA?AW4SMDToken@@XZ ; GetToken

; 4788 : 				ItemSubType = TokenNumber;

  0008b	f3 0f 2c 1d 00
	00 00 00	 cvttss2si ebx, DWORD PTR ?TokenNumber@@3MA

; 4789 : 
; 4790 : 				if ( ItemType >= 0 && ItemType < MAX_TYPE_ITEMS )

  00093	83 ff 0f	 cmp	 edi, 15			; 0000000fH
  00096	77 10		 ja	 SHORT $LN16@OpenItemSc

; 4791 : 				{
; 4792 : 					if ( g_MaxItemIndexOfEachItemType[ItemType] <= ItemSubType )

  00098	39 1c bd 00 00
	00 00		 cmp	 DWORD PTR ?g_MaxItemIndexOfEachItemType@@3PAHA[edi*4], ebx
  0009f	7f 07		 jg	 SHORT $LN16@OpenItemSc

; 4793 : 					{
; 4794 : 						g_MaxItemIndexOfEachItemType[ItemType] = ItemSubType;

  000a1	89 1c bd 00 00
	00 00		 mov	 DWORD PTR ?g_MaxItemIndexOfEachItemType@@3PAHA[edi*4], ebx
$LN16@OpenItemSc:

; 4795 : 					}
; 4796 : 				}
; 4797 : 
; 4798 : 				
; 4799 : 				if ( Token == 0 )

  000a8	85 c0		 test	 eax, eax
  000aa	75 37		 jne	 SHORT $LN18@OpenItemSc

; 4800 : 				{
; 4801 : 					if ( strcmp("end", TokenString ) == 0 )

  000ac	b9 00 00 00 00	 mov	 ecx, OFFSET ?TokenString@@3PADA
  000b1	b8 00 00 00 00	 mov	 eax, OFFSET ??_C@_03JBJLGPFL@end?$AA@
$LL65@OpenItemSc:
  000b6	8a 10		 mov	 dl, BYTE PTR [eax]
  000b8	3a 11		 cmp	 dl, BYTE PTR [ecx]
  000ba	75 1a		 jne	 SHORT $LN66@OpenItemSc
  000bc	84 d2		 test	 dl, dl
  000be	74 12		 je	 SHORT $LN67@OpenItemSc
  000c0	8a 50 01	 mov	 dl, BYTE PTR [eax+1]
  000c3	3a 51 01	 cmp	 dl, BYTE PTR [ecx+1]
  000c6	75 0e		 jne	 SHORT $LN66@OpenItemSc
  000c8	83 c0 02	 add	 eax, 2
  000cb	83 c1 02	 add	 ecx, 2
  000ce	84 d2		 test	 dl, dl
  000d0	75 e4		 jne	 SHORT $LL65@OpenItemSc
$LN67@OpenItemSc:
  000d2	33 c0		 xor	 eax, eax
  000d4	eb 05		 jmp	 SHORT $LN68@OpenItemSc
$LN66@OpenItemSc:
  000d6	1b c0		 sbb	 eax, eax
  000d8	83 c8 01	 or	 eax, 1
$LN68@OpenItemSc:
  000db	85 c0		 test	 eax, eax
  000dd	0f 84 6b 05 00
	00		 je	 $LN8@OpenItemSc
$LN18@OpenItemSc:

; 4802 : 					{
; 4803 : 						break;
; 4804 : 					}
; 4805 : 				}
; 4806 : 					
; 4807 : 				p = &ItemAttribute[ItemType*MAX_SUBTYPE_ITEMS + ItemSubType];

  000e3	8b c7		 mov	 eax, edi
  000e5	c1 e0 09	 shl	 eax, 9
  000e8	03 c3		 add	 eax, ebx
  000ea	6b f0 70	 imul	 esi, eax, 112
  000ed	81 c6 00 00 00
	00		 add	 esi, OFFSET ?ItemAttribute@@3PAUITEM_ATTRIBUTE@@A

; 4808 : 
; 4809 : 				Token = GetToken();

  000f3	e8 00 00 00 00	 call	 ?GetToken@@YA?AW4SMDToken@@XZ ; GetToken

; 4810 : 				p->ItemSlot = TokenNumber;

  000f8	f3 0f 2c 05 00
	00 00 00	 cvttss2si eax, DWORD PTR ?TokenNumber@@3MA
  00100	89 46 64	 mov	 DWORD PTR [esi+100], eax

; 4811 : 
; 4812 : 				Token = GetToken();

  00103	e8 00 00 00 00	 call	 ?GetToken@@YA?AW4SMDToken@@XZ ; GetToken

; 4813 : 				p->SkillType = TokenNumber;

  00108	f3 0f 2c 05 00
	00 00 00	 cvttss2si eax, DWORD PTR ?TokenNumber@@3MA
  00110	89 46 68	 mov	 DWORD PTR [esi+104], eax

; 4814 : 
; 4815 : 				Token = GetToken();

  00113	e8 00 00 00 00	 call	 ?GetToken@@YA?AW4SMDToken@@XZ ; GetToken

; 4816 : 				p->Width  = TokenNumber;

  00118	f3 0f 2c 05 00
	00 00 00	 cvttss2si eax, DWORD PTR ?TokenNumber@@3MA
  00120	88 46 23	 mov	 BYTE PTR [esi+35], al

; 4817 : 
; 4818 : 				Token = GetToken();

  00123	e8 00 00 00 00	 call	 ?GetToken@@YA?AW4SMDToken@@XZ ; GetToken

; 4819 : 				p->Height  = TokenNumber;

  00128	f3 0f 2c 05 00
	00 00 00	 cvttss2si eax, DWORD PTR ?TokenNumber@@3MA
  00130	88 46 24	 mov	 BYTE PTR [esi+36], al

; 4820 : 
; 4821 : 				Token = GetToken();

  00133	e8 00 00 00 00	 call	 ?GetToken@@YA?AW4SMDToken@@XZ ; GetToken

; 4822 : 				p->Serial = TokenNumber;

  00138	f3 0f 2c 05 00
	00 00 00	 cvttss2si eax, DWORD PTR ?TokenNumber@@3MA
  00140	88 46 25	 mov	 BYTE PTR [esi+37], al

; 4823 : 
; 4824 : 				Token = GetToken();

  00143	e8 00 00 00 00	 call	 ?GetToken@@YA?AW4SMDToken@@XZ ; GetToken

; 4825 : 				p->OptionFlag = TokenNumber;

  00148	f3 0f 2c 05 00
	00 00 00	 cvttss2si eax, DWORD PTR ?TokenNumber@@3MA
  00150	88 46 26	 mov	 BYTE PTR [esi+38], al

; 4826 : 
; 4827 : 				Token = GetToken();

  00153	e8 00 00 00 00	 call	 ?GetToken@@YA?AW4SMDToken@@XZ ; GetToken

; 4828 : 				p->MondownFlag = TokenNumber;

  00158	f3 0f 2c 05 00
	00 00 00	 cvttss2si eax, DWORD PTR ?TokenNumber@@3MA
  00160	88 46 27	 mov	 BYTE PTR [esi+39], al

; 4829 : 
; 4830 : 				Token = GetToken();

  00163	e8 00 00 00 00	 call	 ?GetToken@@YA?AW4SMDToken@@XZ ; GetToken

; 4831 : 				strcpy(&p->Name[0], TokenString );

  00168	b9 00 00 00 00	 mov	 ecx, OFFSET ?TokenString@@3PADA
  0016d	8b d6		 mov	 edx, esi
  0016f	2b d1		 sub	 edx, ecx
$LL41@OpenItemSc:
  00171	8a 01		 mov	 al, BYTE PTR [ecx]
  00173	8d 49 01	 lea	 ecx, DWORD PTR [ecx+1]
  00176	88 44 0a ff	 mov	 BYTE PTR [edx+ecx-1], al
  0017a	84 c0		 test	 al, al
  0017c	75 f3		 jne	 SHORT $LL41@OpenItemSc

; 4832 : 
; 4833 : 				if ( ItemType >= 0 && ItemType <= 5 )

  0017e	83 ff 05	 cmp	 edi, 5
  00181	0f 87 e5 00 00
	00		 ja	 $LN69@OpenItemSc

; 4834 : 				{
; 4835 : 					Token = GetToken();

  00187	e8 00 00 00 00	 call	 ?GetToken@@YA?AW4SMDToken@@XZ ; GetToken

; 4836 : 					p->Level = TokenNumber;

  0018c	f3 0f 2c 05 00
	00 00 00	 cvttss2si eax, DWORD PTR ?TokenNumber@@3MA
  00194	88 46 22	 mov	 BYTE PTR [esi+34], al

; 4837 : 
; 4838 : 					Token = GetToken();

  00197	e8 00 00 00 00	 call	 ?GetToken@@YA?AW4SMDToken@@XZ ; GetToken

; 4839 : 					p->DamageMin = TokenNumber;

  0019c	f3 0f 2c 05 00
	00 00 00	 cvttss2si eax, DWORD PTR ?TokenNumber@@3MA
  001a4	88 46 2a	 mov	 BYTE PTR [esi+42], al

; 4840 : 
; 4841 : 					Token = GetToken();

  001a7	e8 00 00 00 00	 call	 ?GetToken@@YA?AW4SMDToken@@XZ ; GetToken

; 4842 : 					p->DamageMax = TokenNumber;

  001ac	f3 0f 2c 05 00
	00 00 00	 cvttss2si eax, DWORD PTR ?TokenNumber@@3MA
  001b4	88 46 2b	 mov	 BYTE PTR [esi+43], al

; 4843 : 
; 4844 : 					Token = GetToken();

  001b7	e8 00 00 00 00	 call	 ?GetToken@@YA?AW4SMDToken@@XZ ; GetToken

; 4845 : 					p->AttackSpeed = TokenNumber;

  001bc	f3 0f 2c 05 00
	00 00 00	 cvttss2si eax, DWORD PTR ?TokenNumber@@3MA
  001c4	88 46 28	 mov	 BYTE PTR [esi+40], al

; 4846 : 
; 4847 : 					Token = GetToken();

  001c7	e8 00 00 00 00	 call	 ?GetToken@@YA?AW4SMDToken@@XZ ; GetToken

; 4848 : 					p->Durability = TokenNumber;

  001cc	f3 0f 2c 05 00
	00 00 00	 cvttss2si eax, DWORD PTR ?TokenNumber@@3MA
  001d4	88 46 30	 mov	 BYTE PTR [esi+48], al

; 4849 : 
; 4850 : 					Token = GetToken();

  001d7	e8 00 00 00 00	 call	 ?GetToken@@YA?AW4SMDToken@@XZ ; GetToken

; 4851 : 					p->MagicDurability = TokenNumber;

  001dc	f3 0f 2c 05 00
	00 00 00	 cvttss2si eax, DWORD PTR ?TokenNumber@@3MA
  001e4	88 46 31	 mov	 BYTE PTR [esi+49], al

; 4852 : 
; 4853 : 					Token = GetToken();

  001e7	e8 00 00 00 00	 call	 ?GetToken@@YA?AW4SMDToken@@XZ ; GetToken

; 4854 : 					p->MagicPW = TokenNumber;

  001ec	f3 0f 2c 05 00
	00 00 00	 cvttss2si eax, DWORD PTR ?TokenNumber@@3MA
  001f4	89 46 54	 mov	 DWORD PTR [esi+84], eax

; 4855 : 
; 4856 : 					Token = GetToken();

  001f7	e8 00 00 00 00	 call	 ?GetToken@@YA?AW4SMDToken@@XZ ; GetToken

; 4857 : 					p->RequireLevel = TokenNumber;

  001fc	f3 0f 2c 05 00
	00 00 00	 cvttss2si eax, DWORD PTR ?TokenNumber@@3MA
  00204	66 89 46 3a	 mov	 WORD PTR [esi+58], ax

; 4858 : 
; 4859 : 					Token = GetToken();

  00208	e8 00 00 00 00	 call	 ?GetToken@@YA?AW4SMDToken@@XZ ; GetToken

; 4860 : 					p->RequireStrength = TokenNumber;

  0020d	f3 0f 2c 05 00
	00 00 00	 cvttss2si eax, DWORD PTR ?TokenNumber@@3MA
  00215	66 89 46 34	 mov	 WORD PTR [esi+52], ax

; 4861 : 
; 4862 : 					Token = GetToken();

  00219	e8 00 00 00 00	 call	 ?GetToken@@YA?AW4SMDToken@@XZ ; GetToken

; 4863 : 					p->RequireDexterity = TokenNumber;

  0021e	f3 0f 2c 05 00
	00 00 00	 cvttss2si eax, DWORD PTR ?TokenNumber@@3MA
  00226	66 89 46 36	 mov	 WORD PTR [esi+54], ax

; 4864 : 
; 4865 : 					Token = GetToken();

  0022a	e8 00 00 00 00	 call	 ?GetToken@@YA?AW4SMDToken@@XZ ; GetToken

; 4866 : 					p->RequireEnergy = TokenNumber;

  0022f	f3 0f 2c 05 00
	00 00 00	 cvttss2si eax, DWORD PTR ?TokenNumber@@3MA
  00237	66 89 46 38	 mov	 WORD PTR [esi+56], ax

; 4867 : 
; 4868 : 					Token = GetToken();

  0023b	e8 00 00 00 00	 call	 ?GetToken@@YA?AW4SMDToken@@XZ ; GetToken

; 4869 : 					p->RequireVitality = TokenNumber;

  00240	f3 0f 2c 05 00
	00 00 00	 cvttss2si eax, DWORD PTR ?TokenNumber@@3MA
  00248	66 89 46 4c	 mov	 WORD PTR [esi+76], ax

; 4870 : 
; 4871 : 					Token = GetToken();

  0024c	e8 00 00 00 00	 call	 ?GetToken@@YA?AW4SMDToken@@XZ ; GetToken

; 4872 : 					p->RequireLeadership = TokenNumber;
; 4873 : 
; 4874 : 					if ( p->Width  >= 2)

  00251	80 7e 23 02	 cmp	 BYTE PTR [esi+35], 2
  00255	f3 0f 2c 05 00
	00 00 00	 cvttss2si eax, DWORD PTR ?TokenNumber@@3MA
  0025d	89 46 6c	 mov	 DWORD PTR [esi+108], eax
  00260	72 04		 jb	 SHORT $LN20@OpenItemSc

; 4875 : 					{
; 4876 : 						p->TwoHand = TRUE; // Review this later

  00262	c6 46 21 01	 mov	 BYTE PTR [esi+33], 1
$LN20@OpenItemSc:

; 4877 : 					}
; 4878 : 
; 4879 : 					(BYTE)p->Durability += (BYTE)p->MagicDurability;

  00266	8a 46 31	 mov	 al, BYTE PTR [esi+49]
  00269	00 46 30	 add	 BYTE PTR [esi+48], al
$LN69@OpenItemSc:

; 4880 : 				}
; 4881 : 
; 4882 : 				if ( ItemType >= 6 && ItemType <= 11 )

  0026c	8d 47 fa	 lea	 eax, DWORD PTR [edi-6]
  0026f	83 f8 05	 cmp	 eax, 5
  00272	0f 87 22 01 00
	00		 ja	 $LN21@OpenItemSc

; 4883 : 				{
; 4884 : 					Token = GetToken();

  00278	e8 00 00 00 00	 call	 ?GetToken@@YA?AW4SMDToken@@XZ ; GetToken

; 4885 : 					p->Level = TokenNumber;

  0027d	f3 0f 2c 05 00
	00 00 00	 cvttss2si eax, DWORD PTR ?TokenNumber@@3MA
  00285	88 46 22	 mov	 BYTE PTR [esi+34], al

; 4886 : 					
; 4887 : 					if ( ItemType == 6 )

  00288	83 ff 06	 cmp	 edi, 6
  0028b	75 22		 jne	 SHORT $LN22@OpenItemSc

; 4888 : 					{
; 4889 : 
; 4890 : 						Token = GetToken();

  0028d	e8 00 00 00 00	 call	 ?GetToken@@YA?AW4SMDToken@@XZ ; GetToken

; 4891 : 						p->Defense = TokenNumber;

  00292	f3 0f 2c 05 00
	00 00 00	 cvttss2si eax, DWORD PTR ?TokenNumber@@3MA
  0029a	88 46 2d	 mov	 BYTE PTR [esi+45], al

; 4892 : 
; 4893 : 						Token = GetToken();

  0029d	e8 00 00 00 00	 call	 ?GetToken@@YA?AW4SMDToken@@XZ ; GetToken

; 4894 : 						p->SuccessfulBlocking  = TokenNumber;

  002a2	f3 0f 2c 05 00
	00 00 00	 cvttss2si eax, DWORD PTR ?TokenNumber@@3MA
  002aa	88 46 2c	 mov	 BYTE PTR [esi+44], al
  002ad	eb 76		 jmp	 SHORT $LN28@OpenItemSc
$LN22@OpenItemSc:

; 4895 : 
; 4896 : 					}
; 4897 : 					else if ( ItemType >= 7 && ItemType <= 9 )

  002af	8d 47 f9	 lea	 eax, DWORD PTR [edi-7]
  002b2	83 f8 02	 cmp	 eax, 2
  002b5	77 22		 ja	 SHORT $LN24@OpenItemSc

; 4898 : 					{
; 4899 : 
; 4900 : 						Token = GetToken();

  002b7	e8 00 00 00 00	 call	 ?GetToken@@YA?AW4SMDToken@@XZ ; GetToken

; 4901 : 						p->Defense  = TokenNumber;

  002bc	f3 0f 2c 05 00
	00 00 00	 cvttss2si eax, DWORD PTR ?TokenNumber@@3MA
  002c4	88 46 2d	 mov	 BYTE PTR [esi+45], al

; 4902 : 
; 4903 : 						Token = GetToken();

  002c7	e8 00 00 00 00	 call	 ?GetToken@@YA?AW4SMDToken@@XZ ; GetToken

; 4904 : 						p->MagicDefense = TokenNumber;

  002cc	f3 0f 2c 05 00
	00 00 00	 cvttss2si eax, DWORD PTR ?TokenNumber@@3MA
  002d4	88 46 2e	 mov	 BYTE PTR [esi+46], al
  002d7	eb 4c		 jmp	 SHORT $LN28@OpenItemSc
$LN24@OpenItemSc:

; 4905 : 					}
; 4906 : 					else if ( ItemType == 10 )

  002d9	83 ff 0a	 cmp	 edi, 10			; 0000000aH
  002dc	75 22		 jne	 SHORT $LN26@OpenItemSc

; 4907 : 					{
; 4908 : 						Token = GetToken();

  002de	e8 00 00 00 00	 call	 ?GetToken@@YA?AW4SMDToken@@XZ ; GetToken

; 4909 : 						p->Defense = TokenNumber;

  002e3	f3 0f 2c 05 00
	00 00 00	 cvttss2si eax, DWORD PTR ?TokenNumber@@3MA
  002eb	88 46 2d	 mov	 BYTE PTR [esi+45], al

; 4910 : 
; 4911 : 						Token = GetToken();

  002ee	e8 00 00 00 00	 call	 ?GetToken@@YA?AW4SMDToken@@XZ ; GetToken

; 4912 : 						p->AttackSpeed = TokenNumber;

  002f3	f3 0f 2c 05 00
	00 00 00	 cvttss2si eax, DWORD PTR ?TokenNumber@@3MA
  002fb	88 46 28	 mov	 BYTE PTR [esi+40], al
  002fe	eb 25		 jmp	 SHORT $LN28@OpenItemSc
$LN26@OpenItemSc:

; 4913 : 					}
; 4914 : 					else if ( ItemType == 11 )

  00300	83 ff 0b	 cmp	 edi, 11			; 0000000bH
  00303	75 20		 jne	 SHORT $LN28@OpenItemSc

; 4915 : 					{
; 4916 : 						Token = GetToken();

  00305	e8 00 00 00 00	 call	 ?GetToken@@YA?AW4SMDToken@@XZ ; GetToken

; 4917 : 						p->Defense  = TokenNumber;

  0030a	f3 0f 2c 05 00
	00 00 00	 cvttss2si eax, DWORD PTR ?TokenNumber@@3MA
  00312	88 46 2d	 mov	 BYTE PTR [esi+45], al

; 4918 : 
; 4919 : 						Token = GetToken();

  00315	e8 00 00 00 00	 call	 ?GetToken@@YA?AW4SMDToken@@XZ ; GetToken

; 4920 : 						p->WalkSpeed = TokenNumber;

  0031a	f3 0f 2c 05 00
	00 00 00	 cvttss2si eax, DWORD PTR ?TokenNumber@@3MA
  00322	88 46 29	 mov	 BYTE PTR [esi+41], al
$LN28@OpenItemSc:

; 4921 : 					}
; 4922 : 					
; 4923 : 					Token = GetToken();

  00325	e8 00 00 00 00	 call	 ?GetToken@@YA?AW4SMDToken@@XZ ; GetToken

; 4924 : 					p->Durability = TokenNumber;

  0032a	f3 0f 2c 05 00
	00 00 00	 cvttss2si eax, DWORD PTR ?TokenNumber@@3MA
  00332	88 46 30	 mov	 BYTE PTR [esi+48], al

; 4925 : 
; 4926 : 					Token = GetToken();

  00335	e8 00 00 00 00	 call	 ?GetToken@@YA?AW4SMDToken@@XZ ; GetToken

; 4927 : 					p->RequireLevel = TokenNumber;

  0033a	f3 0f 2c 05 00
	00 00 00	 cvttss2si eax, DWORD PTR ?TokenNumber@@3MA
  00342	66 89 46 3a	 mov	 WORD PTR [esi+58], ax

; 4928 : 
; 4929 : 					Token = GetToken();

  00346	e8 00 00 00 00	 call	 ?GetToken@@YA?AW4SMDToken@@XZ ; GetToken

; 4930 : 					p->RequireStrength = TokenNumber;

  0034b	f3 0f 2c 05 00
	00 00 00	 cvttss2si eax, DWORD PTR ?TokenNumber@@3MA
  00353	66 89 46 34	 mov	 WORD PTR [esi+52], ax

; 4931 : 
; 4932 : 					Token = GetToken();

  00357	e8 00 00 00 00	 call	 ?GetToken@@YA?AW4SMDToken@@XZ ; GetToken

; 4933 : 					p->RequireDexterity = TokenNumber;

  0035c	f3 0f 2c 05 00
	00 00 00	 cvttss2si eax, DWORD PTR ?TokenNumber@@3MA
  00364	66 89 46 36	 mov	 WORD PTR [esi+54], ax

; 4934 : 
; 4935 : 					Token = GetToken();

  00368	e8 00 00 00 00	 call	 ?GetToken@@YA?AW4SMDToken@@XZ ; GetToken

; 4936 : 					p->RequireEnergy = TokenNumber;

  0036d	f3 0f 2c 05 00
	00 00 00	 cvttss2si eax, DWORD PTR ?TokenNumber@@3MA
  00375	66 89 46 38	 mov	 WORD PTR [esi+56], ax

; 4937 : 
; 4938 : 					Token = GetToken();

  00379	e8 00 00 00 00	 call	 ?GetToken@@YA?AW4SMDToken@@XZ ; GetToken

; 4939 : 					p->RequireVitality = TokenNumber;

  0037e	f3 0f 2c 05 00
	00 00 00	 cvttss2si eax, DWORD PTR ?TokenNumber@@3MA
  00386	66 89 46 4c	 mov	 WORD PTR [esi+76], ax

; 4940 : 
; 4941 : 					Token = GetToken();

  0038a	e8 00 00 00 00	 call	 ?GetToken@@YA?AW4SMDToken@@XZ ; GetToken

; 4942 : 					p->RequireLeadership = TokenNumber;

  0038f	f3 0f 2c 05 00
	00 00 00	 cvttss2si eax, DWORD PTR ?TokenNumber@@3MA
  00397	89 46 6c	 mov	 DWORD PTR [esi+108], eax
$LN21@OpenItemSc:

; 4943 : 				}
; 4944 : 
; 4945 : 				if ( ItemType == 13 )

  0039a	83 ff 0d	 cmp	 edi, 13			; 0000000dH
  0039d	0f 85 ba 00 00
	00		 jne	 $LN29@OpenItemSc

; 4946 : 				{
; 4947 : 					Token = GetToken();

  003a3	e8 00 00 00 00	 call	 ?GetToken@@YA?AW4SMDToken@@XZ ; GetToken

; 4948 : 					p->Level = TokenNumber;

  003a8	f3 0f 2c 05 00
	00 00 00	 cvttss2si eax, DWORD PTR ?TokenNumber@@3MA
  003b0	88 46 22	 mov	 BYTE PTR [esi+34], al

; 4949 : 
; 4950 : 					Token = GetToken();

  003b3	e8 00 00 00 00	 call	 ?GetToken@@YA?AW4SMDToken@@XZ ; GetToken

; 4951 : 					p->Durability = TokenNumber;

  003b8	f3 0f 2c 05 00
	00 00 00	 cvttss2si eax, DWORD PTR ?TokenNumber@@3MA
  003c0	88 46 30	 mov	 BYTE PTR [esi+48], al

; 4952 : 
; 4953 : 					Token = GetToken();

  003c3	e8 00 00 00 00	 call	 ?GetToken@@YA?AW4SMDToken@@XZ ; GetToken

; 4954 : 					p->Resistance[0] = TokenNumber;

  003c8	f3 0f 2c 05 00
	00 00 00	 cvttss2si eax, DWORD PTR ?TokenNumber@@3MA
  003d0	88 46 45	 mov	 BYTE PTR [esi+69], al

; 4955 : 
; 4956 : 					Token = GetToken();

  003d3	e8 00 00 00 00	 call	 ?GetToken@@YA?AW4SMDToken@@XZ ; GetToken

; 4957 : 					p->Resistance[1] = TokenNumber;

  003d8	f3 0f 2c 05 00
	00 00 00	 cvttss2si eax, DWORD PTR ?TokenNumber@@3MA
  003e0	88 46 46	 mov	 BYTE PTR [esi+70], al

; 4958 : 
; 4959 : 					Token = GetToken();

  003e3	e8 00 00 00 00	 call	 ?GetToken@@YA?AW4SMDToken@@XZ ; GetToken

; 4960 : 					p->Resistance[2] = TokenNumber;

  003e8	f3 0f 2c 05 00
	00 00 00	 cvttss2si eax, DWORD PTR ?TokenNumber@@3MA
  003f0	88 46 47	 mov	 BYTE PTR [esi+71], al

; 4961 : 
; 4962 : 					Token = GetToken();

  003f3	e8 00 00 00 00	 call	 ?GetToken@@YA?AW4SMDToken@@XZ ; GetToken

; 4963 : 					p->Resistance[3] = TokenNumber;

  003f8	f3 0f 2c 05 00
	00 00 00	 cvttss2si eax, DWORD PTR ?TokenNumber@@3MA
  00400	88 46 48	 mov	 BYTE PTR [esi+72], al

; 4964 : 
; 4965 : 					Token = GetToken();

  00403	e8 00 00 00 00	 call	 ?GetToken@@YA?AW4SMDToken@@XZ ; GetToken

; 4966 : 					p->Resistance[4] = TokenNumber;

  00408	f3 0f 2c 05 00
	00 00 00	 cvttss2si eax, DWORD PTR ?TokenNumber@@3MA
  00410	88 46 49	 mov	 BYTE PTR [esi+73], al

; 4967 : 
; 4968 : 					Token = GetToken();

  00413	e8 00 00 00 00	 call	 ?GetToken@@YA?AW4SMDToken@@XZ ; GetToken

; 4969 : 					p->Resistance[5] = TokenNumber;

  00418	f3 0f 2c 05 00
	00 00 00	 cvttss2si eax, DWORD PTR ?TokenNumber@@3MA
  00420	88 46 4a	 mov	 BYTE PTR [esi+74], al

; 4970 : 
; 4971 : 					Token = GetToken();

  00423	e8 00 00 00 00	 call	 ?GetToken@@YA?AW4SMDToken@@XZ ; GetToken

; 4972 : 					p->Resistance[6] = TokenNumber;

  00428	f3 0f 2c 05 00
	00 00 00	 cvttss2si eax, DWORD PTR ?TokenNumber@@3MA
  00430	88 46 4b	 mov	 BYTE PTR [esi+75], al

; 4973 : 
; 4974 : 					p->ResistanceType = -1;
; 4975 : 					
; 4976 : 					int n;
; 4977 : 
; 4978 : 					for (n=0;n<MAX_ITEM_SPECIAL_ATTRIBUTE-1;n++)

  00433	33 c0		 xor	 eax, eax
  00435	c6 46 62 ff	 mov	 BYTE PTR [esi+98], 255	; 000000ffH
  00439	0f 1f 80 00 00
	00 00		 npad	 7
$LL11@OpenItemSc:

; 4979 : 					{
; 4980 : 						if ( (p->Resistance[n]) != 0 )

  00440	80 7c 06 45 00	 cmp	 BYTE PTR [esi+eax+69], 0
  00445	74 03		 je	 SHORT $LN9@OpenItemSc

; 4981 : 						{
; 4982 : 							p->ResistanceType=n;

  00447	88 46 62	 mov	 BYTE PTR [esi+98], al
$LN9@OpenItemSc:

; 4973 : 
; 4974 : 					p->ResistanceType = -1;
; 4975 : 					
; 4976 : 					int n;
; 4977 : 
; 4978 : 					for (n=0;n<MAX_ITEM_SPECIAL_ATTRIBUTE-1;n++)

  0044a	40		 inc	 eax
  0044b	83 f8 06	 cmp	 eax, 6
  0044e	7c f0		 jl	 SHORT $LL11@OpenItemSc

; 4983 : 						}
; 4984 : 					}
; 4985 : 
; 4986 : 					p->RequireLevel = p->Level ;

  00450	0f b6 46 22	 movzx	 eax, BYTE PTR [esi+34]
  00454	66 89 46 3a	 mov	 WORD PTR [esi+58], ax

; 4987 : 					
; 4988 : 				}
; 4989 : 
; 4990 : 				if ( ItemType == 14 )

  00458	e9 35 01 00 00	 jmp	 $LN35@OpenItemSc
$LN29@OpenItemSc:
  0045d	83 ff 0e	 cmp	 edi, 14			; 0000000eH
  00460	75 2a		 jne	 SHORT $LN31@OpenItemSc

; 4991 : 				{
; 4992 : 					Token = GetToken();

  00462	e8 00 00 00 00	 call	 ?GetToken@@YA?AW4SMDToken@@XZ ; GetToken

; 4993 : 					p->Value = TokenNumber;

  00467	f3 0f 2c 05 00
	00 00 00	 cvttss2si eax, DWORD PTR ?TokenNumber@@3MA
  0046f	66 89 46 3c	 mov	 WORD PTR [esi+60], ax

; 4994 : 
; 4995 : 					Token = GetToken();

  00473	e8 00 00 00 00	 call	 ?GetToken@@YA?AW4SMDToken@@XZ ; GetToken

; 4996 : 					p->Level = TokenNumber;

  00478	f3 0f 2c 05 00
	00 00 00	 cvttss2si eax, DWORD PTR ?TokenNumber@@3MA

; 4997 : 
; 4998 : 					p->Durability = 1;

  00480	c6 46 30 01	 mov	 BYTE PTR [esi+48], 1
  00484	88 46 22	 mov	 BYTE PTR [esi+34], al

; 4999 : 				}
; 5000 : 
; 5001 : 				if ( ItemType == 12 )

  00487	e9 0b 01 00 00	 jmp	 $LN34@OpenItemSc
$LN31@OpenItemSc:
  0048c	83 ff 0c	 cmp	 edi, 12			; 0000000cH
  0048f	0f 85 9b 00 00
	00		 jne	 $LN32@OpenItemSc

; 5002 : 				{
; 5003 : 					Token = GetToken();

  00495	e8 00 00 00 00	 call	 ?GetToken@@YA?AW4SMDToken@@XZ ; GetToken

; 5004 : 					p->Level = TokenNumber;

  0049a	f3 0f 2c 05 00
	00 00 00	 cvttss2si eax, DWORD PTR ?TokenNumber@@3MA
  004a2	88 46 22	 mov	 BYTE PTR [esi+34], al

; 5005 : 
; 5006 : 					Token = GetToken();

  004a5	e8 00 00 00 00	 call	 ?GetToken@@YA?AW4SMDToken@@XZ ; GetToken

; 5007 : 					p->Defense = TokenNumber;

  004aa	f3 0f 2c 05 00
	00 00 00	 cvttss2si eax, DWORD PTR ?TokenNumber@@3MA
  004b2	88 46 2d	 mov	 BYTE PTR [esi+45], al

; 5008 : 
; 5009 : 					Token = GetToken();

  004b5	e8 00 00 00 00	 call	 ?GetToken@@YA?AW4SMDToken@@XZ ; GetToken

; 5010 : 					p->Durability = TokenNumber;

  004ba	f3 0f 2c 05 00
	00 00 00	 cvttss2si eax, DWORD PTR ?TokenNumber@@3MA
  004c2	88 46 30	 mov	 BYTE PTR [esi+48], al

; 5011 : 
; 5012 : 					Token = GetToken();

  004c5	e8 00 00 00 00	 call	 ?GetToken@@YA?AW4SMDToken@@XZ ; GetToken

; 5013 : 					p->RequireLevel = TokenNumber;

  004ca	f3 0f 2c 05 00
	00 00 00	 cvttss2si eax, DWORD PTR ?TokenNumber@@3MA
  004d2	66 89 46 3a	 mov	 WORD PTR [esi+58], ax

; 5014 : 
; 5015 : 					Token = GetToken();

  004d6	e8 00 00 00 00	 call	 ?GetToken@@YA?AW4SMDToken@@XZ ; GetToken

; 5016 : 					p->RequireEnergy = TokenNumber;

  004db	f3 0f 2c 05 00
	00 00 00	 cvttss2si eax, DWORD PTR ?TokenNumber@@3MA
  004e3	66 89 46 38	 mov	 WORD PTR [esi+56], ax

; 5017 : 
; 5018 : 					Token = GetToken();

  004e7	e8 00 00 00 00	 call	 ?GetToken@@YA?AW4SMDToken@@XZ ; GetToken

; 5019 : 					p->RequireStrength = TokenNumber;

  004ec	f3 0f 2c 05 00
	00 00 00	 cvttss2si eax, DWORD PTR ?TokenNumber@@3MA
  004f4	66 89 46 34	 mov	 WORD PTR [esi+52], ax

; 5020 : 
; 5021 : 					Token = GetToken();

  004f8	e8 00 00 00 00	 call	 ?GetToken@@YA?AW4SMDToken@@XZ ; GetToken

; 5022 : 					p->RequireDexterity = TokenNumber;

  004fd	f3 0f 2c 05 00
	00 00 00	 cvttss2si eax, DWORD PTR ?TokenNumber@@3MA
  00505	66 89 46 36	 mov	 WORD PTR [esi+54], ax

; 5023 : 
; 5024 : 					Token = GetToken();

  00509	e8 00 00 00 00	 call	 ?GetToken@@YA?AW4SMDToken@@XZ ; GetToken

; 5025 : 					p->RequireLeadership = TokenNumber;

  0050e	f3 0f 2c 05 00
	00 00 00	 cvttss2si eax, DWORD PTR ?TokenNumber@@3MA
  00516	89 46 6c	 mov	 DWORD PTR [esi+108], eax

; 5026 : 
; 5027 : 					Token = GetToken();

  00519	e8 00 00 00 00	 call	 ?GetToken@@YA?AW4SMDToken@@XZ ; GetToken

; 5028 : 					p->BuyMoney = TokenNumber;

  0051e	f3 0f 10 05 00
	00 00 00	 movss	 xmm0, DWORD PTR ?TokenNumber@@3MA
  00526	e8 00 00 00 00	 call	 __ftoui3
  0052b	89 46 50	 mov	 DWORD PTR [esi+80], eax

; 5029 : 
; 5030 : 				}
; 5031 : 				
; 5032 : 				if ( ItemType == 15 )

  0052e	eb 67		 jmp	 SHORT $LN34@OpenItemSc
$LN32@OpenItemSc:
  00530	83 ff 0f	 cmp	 edi, 15			; 0000000fH
  00533	75 58		 jne	 SHORT $LN33@OpenItemSc

; 5033 : 				{
; 5034 : 
; 5035 : 					Token = GetToken();

  00535	e8 00 00 00 00	 call	 ?GetToken@@YA?AW4SMDToken@@XZ ; GetToken

; 5036 : 					p->Level = TokenNumber;

  0053a	f3 0f 2c 05 00
	00 00 00	 cvttss2si eax, DWORD PTR ?TokenNumber@@3MA
  00542	88 46 22	 mov	 BYTE PTR [esi+34], al

; 5037 : 
; 5038 : 					Token = GetToken();

  00545	e8 00 00 00 00	 call	 ?GetToken@@YA?AW4SMDToken@@XZ ; GetToken

; 5039 : 					p->RequireLevel  = TokenNumber;

  0054a	f3 0f 2c 05 00
	00 00 00	 cvttss2si eax, DWORD PTR ?TokenNumber@@3MA
  00552	66 89 46 3a	 mov	 WORD PTR [esi+58], ax

; 5040 : 
; 5041 : 					Token = GetToken();

  00556	e8 00 00 00 00	 call	 ?GetToken@@YA?AW4SMDToken@@XZ ; GetToken

; 5042 : 					p->RequireEnergy  = TokenNumber;

  0055b	f3 0f 2c 05 00
	00 00 00	 cvttss2si eax, DWORD PTR ?TokenNumber@@3MA
  00563	66 89 46 38	 mov	 WORD PTR [esi+56], ax

; 5043 : 
; 5044 : 					Token = GetToken();

  00567	e8 00 00 00 00	 call	 ?GetToken@@YA?AW4SMDToken@@XZ ; GetToken

; 5045 : 					p->BuyMoney  = TokenNumber;

  0056c	f3 0f 10 05 00
	00 00 00	 movss	 xmm0, DWORD PTR ?TokenNumber@@3MA
  00574	e8 00 00 00 00	 call	 __ftoui3

; 5046 : 
; 5047 : 					p->DamageMin = p->Level;

  00579	8a 4e 22	 mov	 cl, BYTE PTR [esi+34]
  0057c	89 46 50	 mov	 DWORD PTR [esi+80], eax

; 5048 : 					p->DamageMax = p->Level + p->Level/2; 

  0057f	8a c1		 mov	 al, cl
  00581	d0 e8		 shr	 al, 1
  00583	02 c1		 add	 al, cl
  00585	88 4e 2a	 mov	 BYTE PTR [esi+42], cl
  00588	88 46 2b	 mov	 BYTE PTR [esi+43], al

; 5049 : 				}
; 5050 : 
; 5051 : 				if ( ItemType <= 11 || ItemType == 13)

  0058b	eb 0a		 jmp	 SHORT $LN34@OpenItemSc
$LN33@OpenItemSc:
  0058d	83 ff 0b	 cmp	 edi, 11			; 0000000bH
  00590	7f 05		 jg	 SHORT $LN34@OpenItemSc
$LN35@OpenItemSc:

; 5052 : 				{
; 5053 : 					Token = GetToken();

  00592	e8 00 00 00 00	 call	 ?GetToken@@YA?AW4SMDToken@@XZ ; GetToken
$LN34@OpenItemSc:

; 5054 : 				}
; 5055 : 
; 5056 : 				p->SetAttr = TokenNumber;

  00597	f3 0f 2c 05 00
	00 00 00	 cvttss2si eax, DWORD PTR ?TokenNumber@@3MA
  0059f	88 46 61	 mov	 BYTE PTR [esi+97], al

; 5057 : 
; 5058 : 				if ( ItemType <= 13 || ItemType == 15 )

  005a2	83 ff 0d	 cmp	 edi, 13			; 0000000dH
  005a5	7e 05		 jle	 SHORT $LN37@OpenItemSc
  005a7	83 ff 0f	 cmp	 edi, 15			; 0000000fH
  005aa	75 70		 jne	 SHORT $LN36@OpenItemSc
$LN37@OpenItemSc:

; 5059 : 				{
; 5060 : 
; 5061 : 					Token = GetToken();

  005ac	e8 00 00 00 00	 call	 ?GetToken@@YA?AW4SMDToken@@XZ ; GetToken

; 5062 : 					p->RequireClass[0]  = TokenNumber;

  005b1	f3 0f 2c 05 00
	00 00 00	 cvttss2si eax, DWORD PTR ?TokenNumber@@3MA
  005b9	88 46 3e	 mov	 BYTE PTR [esi+62], al

; 5063 : 
; 5064 : 					Token = GetToken();

  005bc	e8 00 00 00 00	 call	 ?GetToken@@YA?AW4SMDToken@@XZ ; GetToken

; 5065 : 					p->RequireClass[1]  = TokenNumber;

  005c1	f3 0f 2c 05 00
	00 00 00	 cvttss2si eax, DWORD PTR ?TokenNumber@@3MA
  005c9	88 46 3f	 mov	 BYTE PTR [esi+63], al

; 5066 : 
; 5067 : 					Token = GetToken();

  005cc	e8 00 00 00 00	 call	 ?GetToken@@YA?AW4SMDToken@@XZ ; GetToken

; 5068 : 					p->RequireClass[2]  = TokenNumber;

  005d1	f3 0f 2c 05 00
	00 00 00	 cvttss2si eax, DWORD PTR ?TokenNumber@@3MA
  005d9	88 46 40	 mov	 BYTE PTR [esi+64], al

; 5069 : 
; 5070 : 					Token = GetToken();

  005dc	e8 00 00 00 00	 call	 ?GetToken@@YA?AW4SMDToken@@XZ ; GetToken

; 5071 : 					p->RequireClass[3]  = TokenNumber;

  005e1	f3 0f 2c 05 00
	00 00 00	 cvttss2si eax, DWORD PTR ?TokenNumber@@3MA
  005e9	88 46 41	 mov	 BYTE PTR [esi+65], al

; 5072 : 
; 5073 : 					Token = GetToken();

  005ec	e8 00 00 00 00	 call	 ?GetToken@@YA?AW4SMDToken@@XZ ; GetToken

; 5074 : 					p->RequireClass[4]  = TokenNumber;

  005f1	f3 0f 2c 05 00
	00 00 00	 cvttss2si eax, DWORD PTR ?TokenNumber@@3MA
  005f9	88 46 42	 mov	 BYTE PTR [esi+66], al

; 5075 : 
; 5076 : 					Token = GetToken();

  005fc	e8 00 00 00 00	 call	 ?GetToken@@YA?AW4SMDToken@@XZ ; GetToken

; 5077 : 					p->RequireClass[5]	= TokenNumber;

  00601	f3 0f 2c 05 00
	00 00 00	 cvttss2si eax, DWORD PTR ?TokenNumber@@3MA
  00609	88 46 43	 mov	 BYTE PTR [esi+67], al

; 5078 : 
; 5079 : 					Token = GetToken();

  0060c	e8 00 00 00 00	 call	 ?GetToken@@YA?AW4SMDToken@@XZ ; GetToken

; 5080 : 					p->RequireClass[6]  = TokenNumber;

  00611	f3 0f 2c 05 00
	00 00 00	 cvttss2si eax, DWORD PTR ?TokenNumber@@3MA
  00619	88 46 44	 mov	 BYTE PTR [esi+68], al
$LN36@OpenItemSc:

; 5081 : 				}
; 5082 : 
; 5083 : 				CalRepairRate(ItemType, ItemSubType, p);

  0061c	56		 push	 esi
  0061d	53		 push	 ebx
  0061e	57		 push	 edi
  0061f	e8 00 00 00 00	 call	 ?CalRepairRate@@YAXHHPAUITEM_ATTRIBUTE@@@Z ; CalRepairRate

; 5084 : 
; 5085 : 				p->HaveItemInfo = TRUE;

  00624	c6 46 20 01	 mov	 BYTE PTR [esi+32], 1
  00628	83 c4 0c	 add	 esp, 12			; 0000000cH

; 5086 : 
; 5087 : 				loop_count++;

  0062b	8b 75 fc	 mov	 esi, DWORD PTR _loop_count$1$[ebp]
  0062e	46		 inc	 esi
  0062f	89 75 fc	 mov	 DWORD PTR _loop_count$1$[ebp], esi

; 5088 : 
; 5089 : 				if ( loop_count > MAX_SUBTYPE_ITEMS )

  00632	81 fe 00 02 00
	00		 cmp	 esi, 512		; 00000200H
  00638	0f 8e 48 fa ff
	ff		 jle	 $LL7@OpenItemSc

; 5090 : 				{
; 5091 : 					MsgBox("Error : Item Data fail. (LoopCount:%d) Item Type:%d Index %d", loop_count, ItemType, ItemSubType);

  0063e	53		 push	 ebx
  0063f	57		 push	 edi
  00640	56		 push	 esi
  00641	68 00 00 00 00	 push	 OFFSET ??_C@_0DN@NLHNDLLL@Error?5?3?5Item?5Data?5fail?4?5?$CILoopCou@
  00646	e8 00 00 00 00	 call	 ?MsgBox@@YAXPADZZ	; MsgBox
  0064b	83 c4 10	 add	 esp, 16			; 00000010H
$LN8@OpenItemSc:

; 5092 : 					break;
; 5093 : 				}
; 5094 : 			}
; 5095 : 
; 5096 : 			if ( loop_count > MAX_SUBTYPE_ITEMS )

  0064e	81 fe 00 02 00
	00		 cmp	 esi, 512		; 00000200H
  00654	7f 0e		 jg	 SHORT $LN71@OpenItemSc
$LN39@OpenItemSc:

; 4765 : 	}
; 4766 : 
; 4767 : 	
; 4768 : 	while ( true )
; 4769 : 	{
; 4770 : 		Token = GetToken();

  00656	e8 00 00 00 00	 call	 ?GetToken@@YA?AW4SMDToken@@XZ ; GetToken

; 4771 : 
; 4772 : 		if ( Token == 2 )

  0065b	83 f8 02	 cmp	 eax, 2
  0065e	0f 85 0c fa ff
	ff		 jne	 $LL5@OpenItemSc
$LN71@OpenItemSc:
  00664	5f		 pop	 edi
  00665	5e		 pop	 esi
  00666	5b		 pop	 ebx
$LN70@OpenItemSc:

; 5097 : 			{
; 5098 : 				break;
; 5099 : 			}
; 5100 : 			
; 5101 : 		}
; 5102 : 
; 5103 : 
; 5104 : 	}
; 5105 : 
; 5106 : 	fclose(SMDFile);

  00667	ff 35 00 00 00
	00		 push	 DWORD PTR ?SMDFile@@3PAU_iobuf@@A
  0066d	e8 00 00 00 00	 call	 _fclose
  00672	83 c4 04	 add	 esp, 4

; 5107 : 	return TRUE;

  00675	b8 01 00 00 00	 mov	 eax, 1

; 5108 : }

  0067a	8b e5		 mov	 esp, ebp
  0067c	5d		 pop	 ebp
  0067d	c3		 ret	 0
?OpenItemScript@@YAHPAD@Z ENDP				; OpenItemScript
_TEXT	ENDS
; Function compile flags: /Ogtp
; File c:\users\michel\desktop\source\gameserver\common\zzzitem.cpp
;	COMDAT ?CalRepairRate@@YAXHHPAUITEM_ATTRIBUTE@@@Z
_TEXT	SEGMENT
_itemtype$ = 8						; size = 4
_itemsubtype$ = 12					; size = 4
_p$ = 16						; size = 4
?CalRepairRate@@YAXHHPAUITEM_ATTRIBUTE@@@Z PROC		; CalRepairRate, COMDAT

; 4739 : {

  00000	55		 push	 ebp
  00001	8b ec		 mov	 ebp, esp

; 4740 : 	p->RepaireMoneyRate = (float)0.1;

  00003	8b 45 10	 mov	 eax, DWORD PTR _p$[ebp]
  00006	c7 40 58 cd cc
	cc 3d		 mov	 DWORD PTR [eax+88], 1036831949 ; 3dcccccdH

; 4741 : 	p->AllRepaireMoneyRate = (float)0.4;

  0000d	c7 40 5c cd cc
	cc 3e		 mov	 DWORD PTR [eax+92], 1053609165 ; 3ecccccdH

; 4742 : }

  00014	5d		 pop	 ebp
  00015	c3		 ret	 0
?CalRepairRate@@YAXHHPAUITEM_ATTRIBUTE@@@Z ENDP		; CalRepairRate
_TEXT	ENDS
; Function compile flags: /Ogtp
; File c:\users\michel\desktop\source\gameserver\common\zzzitem.cpp
;	COMDAT ?GetAllRepairItemRate@@YAMH@Z
_TEXT	SEGMENT
_index$ = 8						; size = 4
?GetAllRepairItemRate@@YAMH@Z PROC			; GetAllRepairItemRate, COMDAT

; 4734 : {

  00000	55		 push	 ebp
  00001	8b ec		 mov	 ebp, esp

; 4735 : 	return ItemAttribute[index].AllRepaireMoneyRate;

  00003	6b 45 08 70	 imul	 eax, DWORD PTR _index$[ebp], 112
  00007	d9 80 5c 00 00
	00		 fld	 DWORD PTR ?ItemAttribute@@3PAUITEM_ATTRIBUTE@@A[eax+92]

; 4736 : }

  0000d	5d		 pop	 ebp
  0000e	c3		 ret	 0
?GetAllRepairItemRate@@YAMH@Z ENDP			; GetAllRepairItemRate
_TEXT	ENDS
; Function compile flags: /Ogtp
; File c:\users\michel\desktop\source\gameserver\common\zzzitem.cpp
;	COMDAT ?GetRepairItemRate@@YAMH@Z
_TEXT	SEGMENT
_index$ = 8						; size = 4
?GetRepairItemRate@@YAMH@Z PROC				; GetRepairItemRate, COMDAT

; 4728 : {

  00000	55		 push	 ebp
  00001	8b ec		 mov	 ebp, esp

; 4729 : 	return ItemAttribute[index].RepaireMoneyRate;

  00003	6b 45 08 70	 imul	 eax, DWORD PTR _index$[ebp], 112
  00007	d9 80 58 00 00
	00		 fld	 DWORD PTR ?ItemAttribute@@3PAUITEM_ATTRIBUTE@@A[eax+88]

; 4730 : }

  0000d	5d		 pop	 ebp
  0000e	c3		 ret	 0
?GetRepairItemRate@@YAMH@Z ENDP				; GetRepairItemRate
_TEXT	ENDS
; Function compile flags: /Ogtp
; File c:\users\michel\desktop\source\gameserver\common\zzzitem.cpp
;	COMDAT ?ItemGetDefenseDurability@@YAHH@Z
_TEXT	SEGMENT
_index$ = 8						; size = 4
?ItemGetDefenseDurability@@YAHH@Z PROC			; ItemGetDefenseDurability, COMDAT

; 4722 : {

  00000	55		 push	 ebp
  00001	8b ec		 mov	 ebp, esp

; 4723 : 	return ItemAttribute[index].DefenceDur;

  00003	6b 45 08 70	 imul	 eax, DWORD PTR _index$[ebp], 112
  00007	0f b6 80 33 00
	00 00		 movzx	 eax, BYTE PTR ?ItemAttribute@@3PAUITEM_ATTRIBUTE@@A[eax+51]

; 4724 : }

  0000e	5d		 pop	 ebp
  0000f	c3		 ret	 0
?ItemGetDefenseDurability@@YAHH@Z ENDP			; ItemGetDefenseDurability
_TEXT	ENDS
; Function compile flags: /Ogtp
; File c:\users\michel\desktop\source\gameserver\common\zzzitem.cpp
;	COMDAT ?ItemGetAttackDurability@@YAHH@Z
_TEXT	SEGMENT
_index$ = 8						; size = 4
?ItemGetAttackDurability@@YAHH@Z PROC			; ItemGetAttackDurability, COMDAT

; 4716 : {

  00000	55		 push	 ebp
  00001	8b ec		 mov	 ebp, esp

; 4717 : 	return ItemAttribute[index].AttackDur;

  00003	6b 45 08 70	 imul	 eax, DWORD PTR _index$[ebp], 112
  00007	0f b6 80 32 00
	00 00		 movzx	 eax, BYTE PTR ?ItemAttribute@@3PAUITEM_ATTRIBUTE@@A[eax+50]

; 4718 : }

  0000e	5d		 pop	 ebp
  0000f	c3		 ret	 0
?ItemGetAttackDurability@@YAHH@Z ENDP			; ItemGetAttackDurability
_TEXT	ENDS
; Function compile flags: /Ogtp
; File c:\users\michel\desktop\source\gameserver\common\zzzitem.cpp
;	COMDAT ?ItemGetDurability@@YAHHHHH@Z
_TEXT	SEGMENT
_index$ = 8						; size = 4
_itemLevel$ = 12					; size = 4
_ExcellentItem$ = 16					; size = 4
_SetItem$ = 20						; size = 4
?ItemGetDurability@@YAHHHHH@Z PROC			; ItemGetDurability, COMDAT

; 4629 : {

  00000	55		 push	 ebp
  00001	8b ec		 mov	 ebp, esp

; 4630 : 
; 4631 : 	if ( index == ITEMGET(14,21) && itemLevel == 3 )	// Mark Lord

  00003	8b 4d 08	 mov	 ecx, DWORD PTR _index$[ebp]
  00006	8b 55 0c	 mov	 edx, DWORD PTR _itemLevel$[ebp]
  00009	81 f9 15 1c 00
	00		 cmp	 ecx, 7189		; 00001c15H
  0000f	75 18		 jne	 SHORT $LN2@ItemGetDur
  00011	83 fa 03	 cmp	 edx, 3
  00014	75 42		 jne	 SHORT $LN31@ItemGetDur

; 4646 : 	{
; 4647 : 		dur= ItemAttribute[index].Durability + itemLevel;

  00016	6b c1 70	 imul	 eax, ecx, 112
  00019	33 d2		 xor	 edx, edx
  0001b	0f b6 80 30 00
	00 00		 movzx	 eax, BYTE PTR ?ItemAttribute@@3PAUITEM_ATTRIBUTE@@A[eax+48]
  00022	03 c2		 add	 eax, edx
  00024	e9 8e 00 00 00	 jmp	 $LN21@ItemGetDur
$LN2@ItemGetDur:

; 4632 : 		itemLevel=0;
; 4633 : 	
; 4634 : 	if ( index == ITEMGET(14,29) )

  00029	81 f9 1d 1c 00
	00		 cmp	 ecx, 7197		; 00001c1dH
  0002f	75 07		 jne	 SHORT $LN3@ItemGetDur
$LN47@ItemGetDur:

; 4635 : 		return 1;

  00031	b8 01 00 00 00	 mov	 eax, 1

; 4708 : 		dur = 255;
; 4709 : 
; 4710 : 	return dur;
; 4711 : }

  00036	5d		 pop	 ebp
  00037	c3		 ret	 0
$LN3@ItemGetDur:

; 4636 : 
; 4637 : 	if ( index == ITEMGET(14,100) )

  00038	81 f9 64 1c 00
	00		 cmp	 ecx, 7268		; 00001c64H
  0003e	74 f1		 je	 SHORT $LN47@ItemGetDur

; 4638 : 		return 1;
; 4639 : 
; 4640 : 	if ( index == ITEMGET(12,200) || index == ITEMGET(12,201) )

  00040	81 f9 c8 18 00
	00		 cmp	 ecx, 6344		; 000018c8H
  00046	0f 84 1d 01 00
	00		 je	 $LN6@ItemGetDur
  0004c	81 f9 c9 18 00
	00		 cmp	 ecx, 6345		; 000018c9H
  00052	0f 84 11 01 00
	00		 je	 $LN6@ItemGetDur
$LN31@ItemGetDur:

; 4642 : 
; 4643 : 	int dur=0;
; 4644 : 
; 4645 : 	if ( itemLevel < 5)

  00058	83 fa 05	 cmp	 edx, 5
  0005b	7d 0e		 jge	 SHORT $LN7@ItemGetDur

; 4646 : 	{
; 4647 : 		dur= ItemAttribute[index].Durability + itemLevel;

  0005d	6b c1 70	 imul	 eax, ecx, 112
  00060	0f b6 80 30 00
	00 00		 movzx	 eax, BYTE PTR ?ItemAttribute@@3PAUITEM_ATTRIBUTE@@A[eax+48]
  00067	03 c2		 add	 eax, edx
  00069	eb 4c		 jmp	 SHORT $LN21@ItemGetDur
$LN7@ItemGetDur:

; 4648 : 	}
; 4649 : 	else if ( itemLevel >= 5 )
; 4650 : 	{
; 4651 : 		if ( itemLevel == 10 )
; 4652 : 		{
; 4653 : 			dur=ItemAttribute[index].Durability + itemLevel*2-3;

  0006b	6b c1 70	 imul	 eax, ecx, 112
  0006e	0f b6 80 30 00
	00 00		 movzx	 eax, BYTE PTR ?ItemAttribute@@3PAUITEM_ATTRIBUTE@@A[eax+48]
  00075	83 fa 0a	 cmp	 edx, 10			; 0000000aH
  00078	75 05		 jne	 SHORT $LN10@ItemGetDur
  0007a	83 c0 11	 add	 eax, 17			; 00000011H
  0007d	eb 38		 jmp	 SHORT $LN21@ItemGetDur
$LN10@ItemGetDur:

; 4654 : 		}
; 4655 : 		else if (itemLevel == 11 )

  0007f	83 fa 0b	 cmp	 edx, 11			; 0000000bH
  00082	75 05		 jne	 SHORT $LN12@ItemGetDur

; 4656 : 		{
; 4657 : 			dur=ItemAttribute[index].Durability + itemLevel*2-1;

  00084	83 c0 15	 add	 eax, 21			; 00000015H
  00087	eb 2e		 jmp	 SHORT $LN21@ItemGetDur
$LN12@ItemGetDur:

; 4658 : 		}
; 4659 : 		else if (itemLevel == 12 )

  00089	83 fa 0c	 cmp	 edx, 12			; 0000000cH
  0008c	75 05		 jne	 SHORT $LN14@ItemGetDur

; 4660 : 		{
; 4661 : 			dur=ItemAttribute[index].Durability + itemLevel*2+2;

  0008e	83 c0 1a	 add	 eax, 26			; 0000001aH
  00091	eb 24		 jmp	 SHORT $LN21@ItemGetDur
$LN14@ItemGetDur:

; 4662 : 		}
; 4663 : 		else if (itemLevel == 13 )

  00093	83 fa 0d	 cmp	 edx, 13			; 0000000dH
  00096	75 05		 jne	 SHORT $LN16@ItemGetDur

; 4664 : 		{
; 4665 : 			dur=ItemAttribute[index].Durability + itemLevel*2+6;

  00098	83 c0 20	 add	 eax, 32			; 00000020H
  0009b	eb 1a		 jmp	 SHORT $LN21@ItemGetDur
$LN16@ItemGetDur:

; 4666 : 		}
; 4667 : 		else if (itemLevel == 14)

  0009d	83 fa 0e	 cmp	 edx, 14			; 0000000eH
  000a0	75 05		 jne	 SHORT $LN18@ItemGetDur

; 4668 : 		{
; 4669 : 			dur=ItemAttribute[index].Durability + itemLevel*2+11;

  000a2	83 c0 27	 add	 eax, 39			; 00000027H
  000a5	eb 10		 jmp	 SHORT $LN21@ItemGetDur
$LN18@ItemGetDur:

; 4670 : 		}
; 4671 : 		else if (itemLevel == 15)

  000a7	83 fa 0f	 cmp	 edx, 15			; 0000000fH
  000aa	75 05		 jne	 SHORT $LN20@ItemGetDur

; 4672 : 		{
; 4673 : 			dur=ItemAttribute[index].Durability + itemLevel*2+17;

  000ac	83 c0 2f	 add	 eax, 47			; 0000002fH

; 4674 : 		}
; 4675 : 		else

  000af	eb 06		 jmp	 SHORT $LN21@ItemGetDur
$LN20@ItemGetDur:

; 4676 : 		{
; 4677 : 			dur=ItemAttribute[index].Durability + itemLevel*2-4;

  000b1	8d 04 50	 lea	 eax, DWORD PTR [eax+edx*2]
  000b4	83 c0 fc	 add	 eax, -4			; fffffffcH
$LN21@ItemGetDur:

; 4678 : 		}
; 4679 : 	}
; 4680 : 	
; 4681 : 	if ( index == ITEMGET(13,51) )

  000b7	81 f9 33 1a 00
	00		 cmp	 ecx, 6707		; 00001a33H
  000bd	75 07		 jne	 SHORT $LN22@ItemGetDur

; 4682 : 	{
; 4683 : 		dur = 1;

  000bf	b8 01 00 00 00	 mov	 eax, 1

; 4684 : 	}
; 4685 : 
; 4686 : 	if ( (index < ITEMGET(12,3) || index > ITEMGET(12,6) ) &&
; 4687 : 		  index != ITEMGET(0,19) &&
; 4688 : 		  index != ITEMGET(4,18) &&
; 4689 : 		  index != ITEMGET(5,10) &&
; 4690 : 		  index != ITEMGET(2,13) &&
; 4691 : 		  index != ITEMGET(13,30) && 
; 4692 : 		  index != ITEMGET(12,36) &&
; 4693 : 		  index != ITEMGET(12,37) && 
; 4694 : 		  index != ITEMGET(12,38) && 
; 4695 : 		  index != ITEMGET(12,39) && 
; 4696 : 		  index != ITEMGET(12,40) && 
; 4697 : 		  index != ITEMGET(12,41) &&
; 4698 : 		  index != ITEMGET(12,42) && 

  000c4	eb 79		 jmp	 SHORT $LN45@ItemGetDur
$LN22@ItemGetDur:
  000c6	81 f9 03 18 00
	00		 cmp	 ecx, 6147		; 00001803H
  000cc	7c 0c		 jl	 SHORT $LN24@ItemGetDur
  000ce	81 f9 06 18 00
	00		 cmp	 ecx, 6150		; 00001806H
  000d4	0f 8e 83 00 00
	00		 jle	 $LN27@ItemGetDur
$LN24@ItemGetDur:
  000da	83 f9 13	 cmp	 ecx, 19			; 00000013H
  000dd	74 7e		 je	 SHORT $LN27@ItemGetDur
  000df	81 f9 12 08 00
	00		 cmp	 ecx, 2066		; 00000812H
  000e5	74 76		 je	 SHORT $LN27@ItemGetDur
  000e7	81 f9 0a 0a 00
	00		 cmp	 ecx, 2570		; 00000a0aH
  000ed	74 6e		 je	 SHORT $LN27@ItemGetDur
  000ef	81 f9 0d 04 00
	00		 cmp	 ecx, 1037		; 0000040dH
  000f5	74 66		 je	 SHORT $LN27@ItemGetDur
  000f7	81 f9 1e 1a 00
	00		 cmp	 ecx, 6686		; 00001a1eH
  000fd	74 5e		 je	 SHORT $LN27@ItemGetDur
  000ff	81 f9 24 18 00
	00		 cmp	 ecx, 6180		; 00001824H
  00105	74 56		 je	 SHORT $LN27@ItemGetDur
  00107	81 f9 25 18 00
	00		 cmp	 ecx, 6181		; 00001825H
  0010d	74 4e		 je	 SHORT $LN27@ItemGetDur
  0010f	81 f9 26 18 00
	00		 cmp	 ecx, 6182		; 00001826H
  00115	74 46		 je	 SHORT $LN27@ItemGetDur
  00117	81 f9 27 18 00
	00		 cmp	 ecx, 6183		; 00001827H
  0011d	74 3e		 je	 SHORT $LN27@ItemGetDur
  0011f	81 f9 28 18 00
	00		 cmp	 ecx, 6184		; 00001828H
  00125	74 36		 je	 SHORT $LN27@ItemGetDur
  00127	81 f9 29 18 00
	00		 cmp	 ecx, 6185		; 00001829H
  0012d	74 2e		 je	 SHORT $LN27@ItemGetDur
  0012f	81 f9 2a 18 00
	00		 cmp	 ecx, 6186		; 0000182aH
  00135	74 26		 je	 SHORT $LN27@ItemGetDur
  00137	81 f9 2b 18 00
	00		 cmp	 ecx, 6187		; 0000182bH
  0013d	74 1e		 je	 SHORT $LN27@ItemGetDur
$LN45@ItemGetDur:

; 4699 : 		  index != ITEMGET(12,43) )
; 4700 : 	{
; 4701 : 		if ( SetItem != 0 )

  0013f	83 7d 14 00	 cmp	 DWORD PTR _SetItem$[ebp], 0
  00143	74 0f		 je	 SHORT $LN25@ItemGetDur

; 4702 : 			dur +=20;

  00145	83 c0 14	 add	 eax, 20			; 00000014H

; 4705 : 	}
; 4706 : 
; 4707 : 	if ( dur > 255 )

  00148	b9 ff 00 00 00	 mov	 ecx, 255		; 000000ffH
  0014d	3b c1		 cmp	 eax, ecx
  0014f	0f 4f c1	 cmovg	 eax, ecx

; 4708 : 		dur = 255;
; 4709 : 
; 4710 : 	return dur;
; 4711 : }

  00152	5d		 pop	 ebp
  00153	c3		 ret	 0
$LN25@ItemGetDur:

; 4703 : 		else if ( ExcellentItem != 0 ) // Prevent duple if items

  00154	83 7d 10 00	 cmp	 DWORD PTR _ExcellentItem$[ebp], 0
  00158	74 03		 je	 SHORT $LN27@ItemGetDur

; 4704 : 			dur +=15;

  0015a	83 c0 0f	 add	 eax, 15			; 0000000fH
$LN27@ItemGetDur:

; 4705 : 	}
; 4706 : 
; 4707 : 	if ( dur > 255 )

  0015d	b9 ff 00 00 00	 mov	 ecx, 255		; 000000ffH
  00162	3b c1		 cmp	 eax, ecx
  00164	0f 4f c1	 cmovg	 eax, ecx

; 4708 : 		dur = 255;
; 4709 : 
; 4710 : 	return dur;
; 4711 : }

  00167	5d		 pop	 ebp
  00168	c3		 ret	 0
$LN6@ItemGetDur:

; 4641 : 		return 5;

  00169	b8 05 00 00 00	 mov	 eax, 5

; 4708 : 		dur = 255;
; 4709 : 
; 4710 : 	return dur;
; 4711 : }

  0016e	5d		 pop	 ebp
  0016f	c3		 ret	 0
?ItemGetDurability@@YAHHHHH@Z ENDP			; ItemGetDurability
_TEXT	ENDS
; Function compile flags: /Ogtp
; File c:\users\michel\desktop\source\gameserver\common\zzzitem.cpp
;	COMDAT ?HasItemDurability@@YAHH@Z
_TEXT	SEGMENT
_index$ = 8						; size = 4
?HasItemDurability@@YAHH@Z PROC				; HasItemDurability, COMDAT

; 4619 : {

  00000	55		 push	 ebp
  00001	8b ec		 mov	 ebp, esp

; 4620 : 	if ( ItemAttribute[index].Durability == 0 && ItemAttribute[index].MagicDurability == 0)

  00003	6b 45 08 70	 imul	 eax, DWORD PTR _index$[ebp], 112
  00007	80 b8 30 00 00
	00 00		 cmp	 BYTE PTR ?ItemAttribute@@3PAUITEM_ATTRIBUTE@@A[eax+48], 0
  0000e	75 0d		 jne	 SHORT $LN2@HasItemDur
  00010	80 b8 31 00 00
	00 00		 cmp	 BYTE PTR ?ItemAttribute@@3PAUITEM_ATTRIBUTE@@A[eax+49], 0
  00017	75 04		 jne	 SHORT $LN2@HasItemDur

; 4621 : 	{
; 4622 : 		return FALSE; 

  00019	33 c0		 xor	 eax, eax

; 4626 : }

  0001b	5d		 pop	 ebp
  0001c	c3		 ret	 0
$LN2@HasItemDur:

; 4623 : 	}
; 4624 : 	
; 4625 : 	return TRUE;

  0001d	b8 01 00 00 00	 mov	 eax, 1

; 4626 : }

  00022	5d		 pop	 ebp
  00023	c3		 ret	 0
?HasItemDurability@@YAHH@Z ENDP				; HasItemDurability
_TEXT	ENDS
; Function compile flags: /Ogtp
; File c:\users\michel\desktop\source\gameserver\common\zzzitem.cpp
;	COMDAT ?ItemGetSize@@YAXHAAH0@Z
_TEXT	SEGMENT
_index$ = 8						; size = 4
_width$ = 12						; size = 4
_height$ = 16						; size = 4
?ItemGetSize@@YAXHAAH0@Z PROC				; ItemGetSize, COMDAT

; 4612 : {

  00000	55		 push	 ebp
  00001	8b ec		 mov	 ebp, esp

; 4613 : 	width = ItemAttribute[index].Width;

  00003	6b 55 08 70	 imul	 edx, DWORD PTR _index$[ebp], 112
  00007	8b 45 0c	 mov	 eax, DWORD PTR _width$[ebp]
  0000a	0f b6 8a 23 00
	00 00		 movzx	 ecx, BYTE PTR ?ItemAttribute@@3PAUITEM_ATTRIBUTE@@A[edx+35]
  00011	89 08		 mov	 DWORD PTR [eax], ecx

; 4614 : 	height = ItemAttribute[index].Height;

  00013	8b 45 10	 mov	 eax, DWORD PTR _height$[ebp]
  00016	0f b6 8a 24 00
	00 00		 movzx	 ecx, BYTE PTR ?ItemAttribute@@3PAUITEM_ATTRIBUTE@@A[edx+36]
  0001d	89 08		 mov	 DWORD PTR [eax], ecx

; 4615 : }

  0001f	5d		 pop	 ebp
  00020	c3		 ret	 0
?ItemGetSize@@YAXHAAH0@Z ENDP				; ItemGetSize
_TEXT	ENDS
; Function compile flags: /Ogtp
; File c:\users\michel\desktop\source\gameserver\common\zzzitem.cpp
;	COMDAT ?ItemGetNumberMake@@YAHHH@Z
_TEXT	SEGMENT
_type$ = 8						; size = 4
_index$ = 12						; size = 4
?ItemGetNumberMake@@YAHHH@Z PROC			; ItemGetNumberMake, COMDAT

; 4599 : {

  00000	55		 push	 ebp
  00001	8b ec		 mov	 ebp, esp

; 4600 : 	int make;
; 4601 : 
; 4602 : 	make = type*MAX_SUBTYPE_ITEMS + index;

  00003	8b 45 08	 mov	 eax, DWORD PTR _type$[ebp]
  00006	c1 e0 09	 shl	 eax, 9
  00009	03 45 0c	 add	 eax, DWORD PTR _index$[ebp]

; 4603 : 
; 4604 : 	if (ItemAttribute[make].Width < 1 ||  ItemAttribute[make].Height < 1)

  0000c	6b c8 70	 imul	 ecx, eax, 112
  0000f	80 b9 23 00 00
	00 01		 cmp	 BYTE PTR ?ItemAttribute@@3PAUITEM_ATTRIBUTE@@A[ecx+35], 1
  00016	72 09		 jb	 SHORT $LN3@ItemGetNum
  00018	80 b9 24 00 00
	00 01		 cmp	 BYTE PTR ?ItemAttribute@@3PAUITEM_ATTRIBUTE@@A[ecx+36], 1
  0001f	73 03		 jae	 SHORT $LN1@ItemGetNum
$LN3@ItemGetNum:

; 4605 : 	{
; 4606 : 		return -1;

  00021	83 c8 ff	 or	 eax, -1
$LN1@ItemGetNum:

; 4607 : 	}
; 4608 : 	return make;
; 4609 : }

  00024	5d		 pop	 ebp
  00025	c3		 ret	 0
?ItemGetNumberMake@@YAHHH@Z ENDP			; ItemGetNumberMake
_TEXT	ENDS
; Function compile flags: /Ogtp
; File c:\users\michel\desktop\source\gameserver\common\zzzitem.cpp
;	COMDAT ?ItemByteConvert@@YAXPAEHEEEEEEEEE0E@Z
_TEXT	SEGMENT
_buf$ = 8						; size = 4
_type$ = 12						; size = 4
_Option1$ = 16						; size = 1
_Option2$ = 20						; size = 1
_Option3$ = 24						; size = 1
_level$ = 28						; size = 1
_dur$ = 32						; size = 1
_Noption$ = 36						; size = 1
_SetOption$ = 40					; size = 1
_JewelOfHarmonyOption$ = 44				; size = 1
_ItemEffectEx$ = 48					; size = 1
_SocketOption$ = 52					; size = 4
_SocketBonus$ = 56					; size = 1
?ItemByteConvert@@YAXPAEHEEEEEEEEE0E@Z PROC		; ItemByteConvert, COMDAT

; 4364 : {

  00000	55		 push	 ebp
  00001	8b ec		 mov	 ebp, esp

; 4365 : 	memset(buf, 0, 12);
; 4366 : 	int n = 0;
; 4367 : 
; 4368 : 	buf[n] = type & 0xFF;
; 4369 : 	n++;
; 4370 : 	buf[n] = 0;
; 4371 : 	buf[n] |= level * 8;
; 4372 : 	buf[n] |= Option1 * 128;
; 4373 : 	buf[n] |= Option2 * 4;

  00003	8a 45 14	 mov	 al, BYTE PTR _Option2$[ebp]
  00006	0f 57 c0	 xorps	 xmm0, xmm0
  00009	8a 4d 10	 mov	 cl, BYTE PTR _Option1$[ebp]
  0000c	c0 e0 02	 shl	 al, 2
  0000f	c0 e1 07	 shl	 cl, 7

; 4374 : 	buf[n] |= Option3 & 3;

  00012	0a c8		 or	 cl, al
  00014	8a 45 18	 mov	 al, BYTE PTR _Option3$[ebp]
  00017	24 03		 and	 al, 3
  00019	0a c8		 or	 cl, al
  0001b	8a 45 1c	 mov	 al, BYTE PTR _level$[ebp]
  0001e	53		 push	 ebx
  0001f	8b 5d 0c	 mov	 ebx, DWORD PTR _type$[ebp]
  00022	56		 push	 esi
  00023	8b 75 08	 mov	 esi, DWORD PTR _buf$[ebp]
  00026	c0 e0 03	 shl	 al, 3
  00029	0a c8		 or	 cl, al

; 4375 : 	n++;
; 4376 : 	buf[n] = dur;

  0002b	8a 45 20	 mov	 al, BYTE PTR _dur$[ebp]
  0002e	66 0f d6 06	 movq	 QWORD PTR [esi], xmm0
  00032	c7 46 08 00 00
	00 00		 mov	 DWORD PTR [esi+8], 0
  00039	88 1e		 mov	 BYTE PTR [esi], bl
  0003b	88 4e 01	 mov	 BYTE PTR [esi+1], cl
  0003e	88 46 02	 mov	 BYTE PTR [esi+2], al

; 4377 : 	n++;
; 4378 : 	buf[n] = 0;
; 4379 : 	buf[n] |= ((type& 0x100) >> 1);

  00041	8b c3		 mov	 eax, ebx
  00043	d1 f8		 sar	 eax, 1
  00045	24 80		 and	 al, 128			; 00000080H

; 4380 : 
; 4381 : 	if ( Option3 > 3 )

  00047	80 7d 18 03	 cmp	 BYTE PTR _Option3$[ebp], 3
  0004b	88 46 03	 mov	 BYTE PTR [esi+3], al
  0004e	76 05		 jbe	 SHORT $LN2@ItemByteCo

; 4382 : 	{
; 4383 : 		buf[n] |= 0x40;

  00050	0c 40		 or	 al, 64			; 00000040H
  00052	88 46 03	 mov	 BYTE PTR [esi+3], al
$LN2@ItemByteCo:

; 4384 : 	}
; 4385 : 
; 4386 : 	buf[n] |= Noption;

  00055	8a 45 24	 mov	 al, BYTE PTR _Noption$[ebp]
  00058	08 46 03	 or	 BYTE PTR [esi+3], al

; 4387 : 	n++;
; 4388 : 	buf[n] = SetOption;

  0005b	8a 45 28	 mov	 al, BYTE PTR _SetOption$[ebp]

; 4389 : 	n++;
; 4390 : 	buf[n] |= (type & 0x1E00 ) >> 5;
; 4391 : 
; 4392 : 	BYTE btItemEffectFor380 = 0;
; 4393 : 	btItemEffectFor380 = (ItemEffectEx  & 0x80 ) >> 4;
; 4394 : 	buf[n] |= btItemEffectFor380;
; 4395 : 
; 4396 : 	n++;
; 4397 : 	buf[n] = JewelOfHarmonyOption;
; 4398 : 	
; 4399 : 	if( SocketOption != NULL )

  0005e	8b 4d 34	 mov	 ecx, DWORD PTR _SocketOption$[ebp]
  00061	88 46 04	 mov	 BYTE PTR [esi+4], al
  00064	8a 45 30	 mov	 al, BYTE PTR _ItemEffectEx$[ebp]
  00067	c1 fb 05	 sar	 ebx, 5
  0006a	c0 e8 04	 shr	 al, 4
  0006d	80 e3 f0	 and	 bl, 240			; 000000f0H
  00070	24 08		 and	 al, 8
  00072	0a d8		 or	 bl, al
  00074	8a 45 2c	 mov	 al, BYTE PTR _JewelOfHarmonyOption$[ebp]
  00077	08 5e 05	 or	 BYTE PTR [esi+5], bl
  0007a	88 46 06	 mov	 BYTE PTR [esi+6], al
  0007d	85 c9		 test	 ecx, ecx
  0007f	74 2c		 je	 SHORT $LN3@ItemByteCo

; 4400 : 	{
; 4401 : 		buf[n] = SocketBonus;

  00081	8a 45 38	 mov	 al, BYTE PTR _SocketBonus$[ebp]
  00084	88 46 06	 mov	 BYTE PTR [esi+6], al

; 4402 : 		n++;
; 4403 : 		buf[n] = SocketOption[0];

  00087	0f b6 01	 movzx	 eax, BYTE PTR [ecx]
  0008a	88 46 07	 mov	 BYTE PTR [esi+7], al

; 4404 : 		n++;
; 4405 : 		buf[n] = SocketOption[1];

  0008d	0f b6 41 01	 movzx	 eax, BYTE PTR [ecx+1]
  00091	88 46 08	 mov	 BYTE PTR [esi+8], al

; 4406 : 		n++;
; 4407 : 		buf[n] = SocketOption[2];

  00094	0f b6 41 02	 movzx	 eax, BYTE PTR [ecx+2]
  00098	88 46 09	 mov	 BYTE PTR [esi+9], al

; 4408 : 		n++;
; 4409 : 		buf[n] = SocketOption[3];

  0009b	0f b6 41 03	 movzx	 eax, BYTE PTR [ecx+3]
  0009f	88 46 0a	 mov	 BYTE PTR [esi+10], al

; 4410 : 		n++;
; 4411 : 		buf[n] = SocketOption[4];

  000a2	0f b6 41 04	 movzx	 eax, BYTE PTR [ecx+4]
  000a6	88 46 0b	 mov	 BYTE PTR [esi+11], al
  000a9	5e		 pop	 esi
  000aa	5b		 pop	 ebx

; 4425 : 	}
; 4426 : }

  000ab	5d		 pop	 ebp
  000ac	c3		 ret	 0
$LN3@ItemByteCo:

; 4412 : 	}
; 4413 : 	else
; 4414 : 	{
; 4415 : 		n++;
; 4416 : 		buf[n] = 0xFF;

  000ad	c7 46 07 ff ff
	ff ff		 mov	 DWORD PTR [esi+7], -1

; 4417 : 		n++;
; 4418 : 		buf[n] = 0xFF;
; 4419 : 		n++;
; 4420 : 		buf[n] = 0xFF;
; 4421 : 		n++;
; 4422 : 		buf[n] = 0xFF;
; 4423 : 		n++;
; 4424 : 		buf[n] = 0xFF;

  000b4	c6 46 0b ff	 mov	 BYTE PTR [esi+11], 255	; 000000ffH
  000b8	5e		 pop	 esi
  000b9	5b		 pop	 ebx

; 4425 : 	}
; 4426 : }

  000ba	5d		 pop	 ebp
  000bb	c3		 ret	 0
?ItemByteConvert@@YAXPAEHEEEEEEEEE0E@Z ENDP		; ItemByteConvert
_TEXT	ENDS
; Function compile flags: /Ogtp
; File c:\users\michel\desktop\source\gameserver\common\zzzitem.cpp
;	COMDAT ?ItemByteConvert@@YAXPAEVCItem@@@Z
_TEXT	SEGMENT
_buf$ = 8						; size = 4
_item$ = 12						; size = 212
?ItemByteConvert@@YAXPAEVCItem@@@Z PROC			; ItemByteConvert, COMDAT

; 4285 : {

  00000	55		 push	 ebp
  00001	8b ec		 mov	 ebp, esp

; 4286 : 	int n=0;
; 4287 : 
; 4288 : 	memset(buf, 0, 12);
; 4289 : 	buf[n] = item.m_Type & 0xFF;
; 4290 : 	n++;
; 4291 : 	buf[n] = 0;
; 4292 : 	buf[n] |= item.m_Level * 8;
; 4293 : 	buf[n] |= item.m_Option1 * 128;

  00003	8a 85 9c 00 00
	00		 mov	 al, BYTE PTR _item$[ebp+144]
  00009	0f 57 c0	 xorps	 xmm0, xmm0
  0000c	8a 4d 14	 mov	 cl, BYTE PTR _item$[ebp+8]
  0000f	c0 e0 07	 shl	 al, 7
  00012	c0 e1 03	 shl	 cl, 3

; 4294 : 	buf[n] |= item.m_Option2 * 4;
; 4295 : 	buf[n] |= item.m_Option3 & 3;

  00015	0a c8		 or	 cl, al
  00017	8a 85 9e 00 00
	00		 mov	 al, BYTE PTR _item$[ebp+146]
  0001d	24 03		 and	 al, 3
  0001f	0a c8		 or	 cl, al
  00021	8a 85 9d 00 00
	00		 mov	 al, BYTE PTR _item$[ebp+145]
  00027	c0 e0 02	 shl	 al, 2
  0002a	0a c8		 or	 cl, al

; 4296 : 	n++;
; 4297 : 	buf[n] = item.m_Durability;

  0002c	f3 0f 2c 45 30	 cvttss2si eax, DWORD PTR _item$[ebp+36]
  00031	53		 push	 ebx
  00032	8b 5d 10	 mov	 ebx, DWORD PTR _item$[ebp+4]
  00035	56		 push	 esi
  00036	8b 75 08	 mov	 esi, DWORD PTR _buf$[ebp]
  00039	c1 eb 10	 shr	 ebx, 16			; 00000010H
  0003c	66 0f d6 06	 movq	 QWORD PTR [esi], xmm0
  00040	c7 46 08 00 00
	00 00		 mov	 DWORD PTR [esi+8], 0
  00047	88 1e		 mov	 BYTE PTR [esi], bl
  00049	88 4e 01	 mov	 BYTE PTR [esi+1], cl
  0004c	88 46 02	 mov	 BYTE PTR [esi+2], al

; 4298 : 	n++;
; 4299 : 	buf[n] = 0;
; 4300 : 	buf[n] |= ((item.m_Type & 0x100) >> 1);

  0004f	8b c3		 mov	 eax, ebx
  00051	d1 f8		 sar	 eax, 1
  00053	24 80		 and	 al, 128			; 00000080H

; 4301 : 
; 4302 : 	if ( item.m_Option3 > 3 )

  00055	80 bd 9e 00 00
	00 03		 cmp	 BYTE PTR _item$[ebp+146], 3
  0005c	88 46 03	 mov	 BYTE PTR [esi+3], al
  0005f	76 05		 jbe	 SHORT $LN2@ItemByteCo

; 4303 : 	{
; 4304 : 		buf[n] |= 0x40; // item +16 option

  00061	0c 40		 or	 al, 64			; 00000040H
  00063	88 46 03	 mov	 BYTE PTR [esi+3], al
$LN2@ItemByteCo:

; 4305 : 	}
; 4306 : 
; 4307 : 	buf[n] |= item.m_NewOption;

  00066	8a 85 9f 00 00
	00		 mov	 al, BYTE PTR _item$[ebp+147]
  0006c	08 46 03	 or	 BYTE PTR [esi+3], al

; 4308 : 	n++;
; 4309 : 	buf[n] = item.m_SetOption;
; 4310 : 
; 4311 : 
; 4312 : 	if( item.m_bLOCKED == TRUE )

  0006f	80 bd dd 00 00
	00 01		 cmp	 BYTE PTR _item$[ebp+209], 1
  00076	8a 85 b6 00 00
	00		 mov	 al, BYTE PTR _item$[ebp+170]
  0007c	88 46 04	 mov	 BYTE PTR [esi+4], al
  0007f	75 05		 jne	 SHORT $LN3@ItemByteCo

; 4313 : 	{
; 4314 : 		buf[n] |= 0xC0;

  00081	0c c0		 or	 al, 192			; 000000c0H
  00083	88 46 04	 mov	 BYTE PTR [esi+4], al
$LN3@ItemByteCo:

; 4315 : 	}
; 4316 : 
; 4317 : 
; 4318 : 	n++;
; 4319 : 	buf[n] |= (item.m_Type & 0x1E00 ) >> 5;
; 4320 : 
; 4321 : 	BYTE btItemEffectFor380 = 0;
; 4322 : 	btItemEffectFor380 = (item.m_ItemOptionEx & 0x80 ) >> 4;
; 4323 : 	buf[n] |= btItemEffectFor380;

  00086	8a 85 d2 00 00
	00		 mov	 al, BYTE PTR _item$[ebp+198]
  0008c	c1 fb 05	 sar	 ebx, 5
  0008f	c0 e8 04	 shr	 al, 4
  00092	80 e3 f0	 and	 bl, 240			; 000000f0H
  00095	24 08		 and	 al, 8
  00097	0a d8		 or	 bl, al
  00099	08 5e 05	 or	 BYTE PTR [esi+5], bl

; 4324 : 
; 4325 : 	if( item.m_bPeriodItem == 1)

  0009c	80 bd db 00 00
	00 01		 cmp	 BYTE PTR _item$[ebp+207], 1
  000a3	8a 4e 05	 mov	 cl, BYTE PTR [esi+5]
  000a6	75 10		 jne	 SHORT $LN4@ItemByteCo

; 4326 : 	{
; 4327 : 		buf[n] |= item.m_bPeriodItem << 1;
; 4328 : 		buf[n] |= item.m_bExpired << 2;

  000a8	8a 85 dc 00 00
	00		 mov	 al, BYTE PTR _item$[ebp+208]
  000ae	c0 e0 02	 shl	 al, 2
  000b1	0a c1		 or	 al, cl
  000b3	0c 02		 or	 al, 2
  000b5	88 46 05	 mov	 BYTE PTR [esi+5], al
$LN4@ItemByteCo:

; 4329 : 	}
; 4330 : 
; 4331 : 	n++;
; 4332 : 	buf[n] = item.m_JewelOfHarmonyOption;

  000b8	8a 85 cc 00 00
	00		 mov	 al, BYTE PTR _item$[ebp+192]

; 4333 : 
; 4334 : 	if (g_SocketItem.IsSocketItem(&item) || g_ElementalSystem.IsElementalItem(&item)) {

  000be	b9 00 00 00 00	 mov	 ecx, OFFSET ?g_SocketItem@@3VCSocketItems@@A ; g_SocketItem
  000c3	88 46 06	 mov	 BYTE PTR [esi+6], al
  000c6	8d 45 0c	 lea	 eax, DWORD PTR _item$[ebp]
  000c9	50		 push	 eax
  000ca	e8 00 00 00 00	 call	 ?IsSocketItem@CSocketItems@@QAE_NPAVCItem@@@Z ; CSocketItems::IsSocketItem
  000cf	84 c0		 test	 al, al
  000d1	75 12		 jne	 SHORT $LN6@ItemByteCo
  000d3	8d 45 0c	 lea	 eax, DWORD PTR _item$[ebp]
  000d6	b9 00 00 00 00	 mov	 ecx, OFFSET ?g_ElementalSystem@@3VCElementalSystem@@A ; g_ElementalSystem
  000db	50		 push	 eax
  000dc	e8 00 00 00 00	 call	 ?IsElementalItem@CElementalSystem@@QAEHPAVCItem@@@Z ; CElementalSystem::IsElementalItem
  000e1	85 c0		 test	 eax, eax
  000e3	74 09		 je	 SHORT $LN5@ItemByteCo
$LN6@ItemByteCo:

; 4335 : 		buf[n] = item.m_SocketBonus;

  000e5	8a 85 d3 00 00
	00		 mov	 al, BYTE PTR _item$[ebp+199]
  000eb	88 46 06	 mov	 BYTE PTR [esi+6], al
$LN5@ItemByteCo:

; 4336 : 	}
; 4337 : 
; 4338 : #if (ENABLETEST_MUUN == 1)
; 4339 : 	if (g_CMuunSystem.IsMuunItem(&item)) {
; 4340 : 		buf[n] = item.m_SocketBonus;
; 4341 : 	}
; 4342 : 	if (g_CMuunSystem.IsStoneofEvolution(&item)) { // T_T
; 4343 : 		buf[n] = 0;
; 4344 : 	}
; 4345 : #endif
; 4346 : 
; 4347 : 	n++;
; 4348 : 	buf[n] = item.m_SocketOption[0];

  000ee	8a 85 d4 00 00
	00		 mov	 al, BYTE PTR _item$[ebp+200]
  000f4	88 46 07	 mov	 BYTE PTR [esi+7], al

; 4349 : 	n++;
; 4350 : 	buf[n] = item.m_SocketOption[1];

  000f7	8a 85 d5 00 00
	00		 mov	 al, BYTE PTR _item$[ebp+201]
  000fd	88 46 08	 mov	 BYTE PTR [esi+8], al

; 4351 : 	n++;
; 4352 : 	buf[n] = item.m_SocketOption[2];

  00100	8a 85 d6 00 00
	00		 mov	 al, BYTE PTR _item$[ebp+202]
  00106	88 46 09	 mov	 BYTE PTR [esi+9], al

; 4353 : 	n++;
; 4354 : 	buf[n] = item.m_SocketOption[3];

  00109	8a 85 d7 00 00
	00		 mov	 al, BYTE PTR _item$[ebp+203]
  0010f	88 46 0a	 mov	 BYTE PTR [esi+10], al

; 4355 : 	n++;
; 4356 : 	buf[n] = item.m_SocketOption[4];

  00112	8a 85 d8 00 00
	00		 mov	 al, BYTE PTR _item$[ebp+204]
  00118	88 46 0b	 mov	 BYTE PTR [esi+11], al
  0011b	5e		 pop	 esi
  0011c	5b		 pop	 ebx

; 4357 : }

  0011d	5d		 pop	 ebp
  0011e	c3		 ret	 0
?ItemByteConvert@@YAXPAEVCItem@@@Z ENDP			; ItemByteConvert
_TEXT	ENDS
; Function compile flags: /Ogtp
; File c:\users\michel\desktop\source\gameserver\common\zzzitem.cpp
;	COMDAT ?ItemByteConvert16@@YAXPAEQAVCItem@@H@Z
_TEXT	SEGMENT
_buf$ = 8						; size = 4
_item$ = 12						; size = 4
_maxitem$ = 16						; size = 4
?ItemByteConvert16@@YAXPAEQAVCItem@@H@Z PROC		; ItemByteConvert16, COMDAT

; 4431 : {

  00000	55		 push	 ebp
  00001	8b ec		 mov	 ebp, esp
  00003	56		 push	 esi

; 4432 : 	int n=0;

  00004	33 f6		 xor	 esi, esi

; 4433 : 	WORD hiWord, loWord;
; 4434 : 
; 4435 : 	for (int index=0; index < maxitem ;index++)

  00006	39 75 10	 cmp	 DWORD PTR _maxitem$[ebp], esi
  00009	0f 8e f3 01 00
	00		 jle	 $LN3@ItemByteCo

; 4432 : 	int n=0;

  0000f	53		 push	 ebx
  00010	8b 5d 0c	 mov	 ebx, DWORD PTR _item$[ebp]
  00013	b8 13 1a 00 00	 mov	 eax, 6675		; 00001a13H
  00018	57		 push	 edi
  00019	8b 7d 08	 mov	 edi, DWORD PTR _buf$[ebp]
  0001c	83 c3 06	 add	 ebx, 6
  0001f	90		 npad	 1
$LL4@ItemByteCo:

; 4436 : 	{
; 4437 : 		if ( item[index].m_Type == ITEMGET(13,19) )

  00020	0f b7 0b	 movzx	 ecx, WORD PTR [ebx]
  00023	66 3b c8	 cmp	 cx, ax
  00026	75 3a		 jne	 SHORT $LN6@ItemByteCo

; 4438 : 		{
; 4439 : 			if ( CHECK_LIMIT(item[index].m_Level, 3) != FALSE )

  00028	0f b7 53 02	 movzx	 edx, WORD PTR [ebx+2]
  0002c	66 85 d2	 test	 dx, dx
  0002f	78 31		 js	 SHORT $LN6@ItemByteCo
  00031	33 c0		 xor	 eax, eax
  00033	66 83 fa 02	 cmp	 dx, 2
  00037	0f 9e c0	 setle	 al
  0003a	85 c0		 test	 eax, eax
  0003c	74 24		 je	 SHORT $LN6@ItemByteCo
$LN24@ItemByteCo:

; 4440 : 			{
; 4441 : 				buf[n+0]=-1;

  0003e	c7 04 3e ff ff
	ff ff		 mov	 DWORD PTR [esi+edi], -1

; 4442 : 				buf[n+1]=-1;
; 4443 : 				buf[n+2]=-1;
; 4444 : 				buf[n+3]=-1;
; 4445 : 				buf[n+4]=-1;

  00045	c7 44 3e 04 ff
	ff ff ff	 mov	 DWORD PTR [esi+edi+4], -1

; 4446 : 				buf[n+5]=-1;
; 4447 : 				buf[n+6]=-1;
; 4448 : 				buf[n+7]=-1;
; 4449 : 				buf[n+8]=-1;

  0004d	c7 44 3e 08 ff
	ff ff ff	 mov	 DWORD PTR [esi+edi+8], -1

; 4450 : 				buf[n+9]=-1;
; 4451 : 				buf[n+10]=-1;
; 4452 : 				buf[n+11]=-1;
; 4453 : 				buf[n+12]=-1;

  00055	c7 44 3e 0c ff
	ff ff ff	 mov	 DWORD PTR [esi+edi+12], -1

; 4454 : 				buf[n+13]=-1;
; 4455 : 				buf[n+14]=-1;
; 4456 : 				buf[n+15]=-1;
; 4457 : 				n+=16;
; 4458 : 
; 4459 : 				continue;

  0005d	e9 86 01 00 00	 jmp	 $LN23@ItemByteCo
$LN6@ItemByteCo:

; 4460 : 			}
; 4461 : 		}
; 4462 : 
; 4463 : 		if ( item[index].m_Type == ITEMGET(14,64) )

  00062	b8 40 1c 00 00	 mov	 eax, 7232		; 00001c40H
  00067	66 3b c8	 cmp	 cx, ax
  0006a	74 d2		 je	 SHORT $LN24@ItemByteCo

; 4464 : 		{
; 4465 : 			buf[n+0]=-1;
; 4466 : 			buf[n+1]=-1;
; 4467 : 			buf[n+2]=-1;
; 4468 : 			buf[n+3]=-1;
; 4469 : 			buf[n+4]=-1;
; 4470 : 			buf[n+5]=-1;
; 4471 : 			buf[n+6]=-1;
; 4472 : 			buf[n+7]=-1;
; 4473 : 			buf[n+8]=-1;
; 4474 : 			buf[n+9]=-1;
; 4475 : 			buf[n+10]=-1;
; 4476 : 			buf[n+11]=-1;
; 4477 : 			buf[n+12]=-1;
; 4478 : 			buf[n+13]=-1;
; 4479 : 			buf[n+14]=-1;
; 4480 : 			buf[n+15]=-1;
; 4481 : 			n+=16;
; 4482 : 
; 4483 : 			continue;
; 4484 : 		}
; 4485 : 
; 4486 : 		if ( item[index].m_Type < ITEMGET(0,0) )

  0006c	66 85 c9	 test	 cx, cx
  0006f	78 cd		 js	 SHORT $LN24@ItemByteCo

; 4487 : 		{
; 4488 : 			buf[n+0]=-1;
; 4489 : 			buf[n+1]=-1;
; 4490 : 			buf[n+2]=-1;
; 4491 : 			buf[n+3]=-1;
; 4492 : 			buf[n+4]=-1;
; 4493 : 			buf[n+5]=-1;
; 4494 : 			buf[n+6]=-1;
; 4495 : 			buf[n+7]=-1;
; 4496 : 			buf[n+8]=-1;
; 4497 : 			buf[n+9]=-1;
; 4498 : 			buf[n+10]=-1;
; 4499 : 			buf[n+11]=-1;
; 4500 : 			buf[n+12]=-1;
; 4501 : 			buf[n+13]=-1;
; 4502 : 			buf[n+14]=-1;
; 4503 : 			buf[n+15]=-1;
; 4504 : 			n+=16;
; 4505 : 		}
; 4506 : 		else
; 4507 : 		{
; 4508 : 			memset(buf+n, 0, 16);

  00071	0f 57 c0	 xorps	 xmm0, xmm0
  00074	0f 11 04 3e	 movups	 XMMWORD PTR [esi+edi], xmm0

; 4509 : 
; 4510 : 			buf[n] = (BYTE)item[index].m_Type % 256;

  00078	0f b6 03	 movzx	 eax, BYTE PTR [ebx]
  0007b	25 ff 00 00 80	 and	 eax, -2147483393	; 800000ffH
  00080	79 07		 jns	 SHORT $LN22@ItemByteCo
  00082	48		 dec	 eax
  00083	0d 00 ff ff ff	 or	 eax, -256		; ffffff00H
  00088	40		 inc	 eax
$LN22@ItemByteCo:
  00089	88 04 3e	 mov	 BYTE PTR [esi+edi], al

; 4511 : 			n++;
; 4512 : 			buf[n]=0;

  0008c	c6 44 3e 01 00	 mov	 BYTE PTR [esi+edi+1], 0

; 4513 : 			buf[n] |= item[index].m_Level * 8;

  00091	8a 43 02	 mov	 al, BYTE PTR [ebx+2]
  00094	c0 e0 03	 shl	 al, 3
  00097	88 44 3e 01	 mov	 BYTE PTR [esi+edi+1], al

; 4514 : 			buf[n] |= item[index].m_Option1 * 128;

  0009b	8a 8b 8a 00 00
	00		 mov	 cl, BYTE PTR [ebx+138]
  000a1	c0 e1 07	 shl	 cl, 7
  000a4	0a c8		 or	 cl, al
  000a6	88 4c 3e 01	 mov	 BYTE PTR [esi+edi+1], cl

; 4515 : 			buf[n] |= item[index].m_Option2 * 4;

  000aa	8a 93 8b 00 00
	00		 mov	 dl, BYTE PTR [ebx+139]
  000b0	c0 e2 02	 shl	 dl, 2
  000b3	0a d1		 or	 dl, cl
  000b5	88 54 3e 01	 mov	 BYTE PTR [esi+edi+1], dl

; 4516 : 			buf[n] |= item[index].m_Option3 & 3;

  000b9	8a 83 8c 00 00
	00		 mov	 al, BYTE PTR [ebx+140]
  000bf	24 03		 and	 al, 3
  000c1	0a c2		 or	 al, dl
  000c3	88 44 3e 01	 mov	 BYTE PTR [esi+edi+1], al

; 4517 : 			n++;
; 4518 : 			buf[n] = item[index].m_Durability;

  000c7	f3 0f 2c 43 1e	 cvttss2si eax, DWORD PTR [ebx+30]
  000cc	88 44 3e 02	 mov	 BYTE PTR [esi+edi+2], al

; 4519 : 			n++;
; 4520 : 			hiWord = item[index].m_Number >> 16;

  000d0	0f b7 4b fc	 movzx	 ecx, WORD PTR [ebx-4]

; 4521 : 			loWord = item[index].m_Number  & 0xFFFF;

  000d4	0f b7 53 fa	 movzx	 edx, WORD PTR [ebx-6]

; 4522 : 			buf[n] = SET_NUMBERH(hiWord);

  000d8	8b c1		 mov	 eax, ecx
  000da	c1 e8 08	 shr	 eax, 8
  000dd	88 44 3e 03	 mov	 BYTE PTR [esi+edi+3], al

; 4523 : 			n++;
; 4524 : 			buf[n] = SET_NUMBERL(hiWord);
; 4525 : 			n++;
; 4526 : 			buf[n] = SET_NUMBERH(loWord);

  000e1	8b c2		 mov	 eax, edx
  000e3	88 4c 3e 04	 mov	 BYTE PTR [esi+edi+4], cl
  000e7	c1 e8 08	 shr	 eax, 8
  000ea	88 44 3e 05	 mov	 BYTE PTR [esi+edi+5], al

; 4527 : 			n++;
; 4528 : 			buf[n] = SET_NUMBERL(loWord);

  000ee	88 54 3e 06	 mov	 BYTE PTR [esi+edi+6], dl

; 4529 : 			n++;
; 4530 : 			buf[n] = 0;

  000f2	c6 44 3e 07 00	 mov	 BYTE PTR [esi+edi+7], 0

; 4531 : 			BYTE btItemType=0;
; 4532 : 			btItemType |= (item[index].m_Type & 0x1E00 ) >> 5;

  000f7	0f b7 03	 movzx	 eax, WORD PTR [ebx]
  000fa	8b c8		 mov	 ecx, eax

; 4533 : 			buf[n] |= ((item[index].m_Type & 0x100) >> 1);

  000fc	d1 f8		 sar	 eax, 1
  000fe	c1 f9 05	 sar	 ecx, 5
  00101	24 80		 and	 al, 128			; 00000080H
  00103	80 e1 f0	 and	 cl, 240			; 000000f0H
  00106	88 44 3e 07	 mov	 BYTE PTR [esi+edi+7], al

; 4534 : 
; 4535 : 			if ( item[index].m_Option3 > 3 )

  0010a	80 bb 8c 00 00
	00 03		 cmp	 BYTE PTR [ebx+140], 3
  00111	76 06		 jbe	 SHORT $LN10@ItemByteCo

; 4536 : 			{
; 4537 : 				buf[n] |= 0x40; // item +16 option

  00113	0c 40		 or	 al, 64			; 00000040H
  00115	88 44 3e 07	 mov	 BYTE PTR [esi+edi+7], al
$LN10@ItemByteCo:

; 4538 : 			}
; 4539 : 
; 4540 : 			buf[n] |= item[index].m_NewOption;

  00119	8a 83 8d 00 00
	00		 mov	 al, BYTE PTR [ebx+141]
  0011f	08 44 3e 07	 or	 BYTE PTR [esi+edi+7], al

; 4541 : 			n++;
; 4542 : 			buf[n] = item[index].m_SetOption;

  00123	8a 83 a4 00 00
	00		 mov	 al, BYTE PTR [ebx+164]
  00129	88 44 3e 08	 mov	 BYTE PTR [esi+edi+8], al

; 4543 : 
; 4544 : 
; 4545 : 			if( item[index].m_bLOCKED == TRUE )

  0012d	80 bb cb 00 00
	00 01		 cmp	 BYTE PTR [ebx+203], 1
  00134	75 06		 jne	 SHORT $LN11@ItemByteCo

; 4546 : 			{
; 4547 : 				buf[n] |= 0xC0;

  00136	0c c0		 or	 al, 192			; 000000c0H
  00138	88 44 3e 08	 mov	 BYTE PTR [esi+edi+8], al
$LN11@ItemByteCo:

; 4548 : 			}
; 4549 : 
; 4550 : 			n++;
; 4551 : 			buf[n] = 0;
; 4552 : 			buf[n] |= btItemType;

  0013c	88 4c 3e 09	 mov	 BYTE PTR [esi+edi+9], cl

; 4553 : 			BYTE btItemEffectFor380 = 0;
; 4554 : 			btItemEffectFor380 = (item[index].m_ItemOptionEx & 0x80 ) >> 4;
; 4555 : 			buf[n] |= btItemEffectFor380;

  00140	8a 83 c0 00 00
	00		 mov	 al, BYTE PTR [ebx+192]
  00146	c0 e8 04	 shr	 al, 4
  00149	24 08		 and	 al, 8
  0014b	0a c1		 or	 al, cl
  0014d	88 44 3e 09	 mov	 BYTE PTR [esi+edi+9], al

; 4556 : 
; 4557 : 			buf[n] |= item[index].m_bPeriodItem<<1;

  00151	8a 8b c9 00 00
	00		 mov	 cl, BYTE PTR [ebx+201]
  00157	02 c9		 add	 cl, cl
  00159	0a c8		 or	 cl, al
  0015b	88 4c 3e 09	 mov	 BYTE PTR [esi+edi+9], cl

; 4558 : 			buf[n] |= item[index].m_bExpired<<2;

  0015f	8a 83 ca 00 00
	00		 mov	 al, BYTE PTR [ebx+202]
  00165	c0 e0 02	 shl	 al, 2
  00168	0a c1		 or	 al, cl
  0016a	88 44 3e 09	 mov	 BYTE PTR [esi+edi+9], al

; 4559 : 
; 4560 : 			n++;
; 4561 : 
; 4562 : 			if( item[index].m_JewelOfHarmonyOption == (BYTE)-1 )

  0016e	80 bb ba 00 00
	00 ff		 cmp	 BYTE PTR [ebx+186], 255	; 000000ffH
  00175	75 07		 jne	 SHORT $LN12@ItemByteCo

; 4563 : 			{
; 4564 : 				item[index].m_JewelOfHarmonyOption = 0;

  00177	c6 83 ba 00 00
	00 00		 mov	 BYTE PTR [ebx+186], 0
$LN12@ItemByteCo:

; 4565 : 			}
; 4566 : 
; 4567 : 			buf[n] = item[index].m_JewelOfHarmonyOption;

  0017e	8a 83 ba 00 00
	00		 mov	 al, BYTE PTR [ebx+186]

; 4568 : 
; 4569 : 			if (g_SocketItem.IsSocketItem(&item[index]) || g_ElementalSystem.IsElementalItem(&item[index])) {

  00184	b9 00 00 00 00	 mov	 ecx, OFFSET ?g_SocketItem@@3VCSocketItems@@A ; g_SocketItem
  00189	88 44 3e 0a	 mov	 BYTE PTR [esi+edi+10], al
  0018d	8d 43 fa	 lea	 eax, DWORD PTR [ebx-6]
  00190	50		 push	 eax
  00191	e8 00 00 00 00	 call	 ?IsSocketItem@CSocketItems@@QAE_NPAVCItem@@@Z ; CSocketItems::IsSocketItem
  00196	84 c0		 test	 al, al
  00198	75 12		 jne	 SHORT $LN14@ItemByteCo
  0019a	8d 43 fa	 lea	 eax, DWORD PTR [ebx-6]
  0019d	b9 00 00 00 00	 mov	 ecx, OFFSET ?g_ElementalSystem@@3VCElementalSystem@@A ; g_ElementalSystem
  001a2	50		 push	 eax
  001a3	e8 00 00 00 00	 call	 ?IsElementalItem@CElementalSystem@@QAEHPAVCItem@@@Z ; CElementalSystem::IsElementalItem
  001a8	85 c0		 test	 eax, eax
  001aa	74 0a		 je	 SHORT $LN13@ItemByteCo
$LN14@ItemByteCo:

; 4570 : 				buf[n] = item[index].m_SocketBonus;

  001ac	8a 83 c1 00 00
	00		 mov	 al, BYTE PTR [ebx+193]
  001b2	88 44 3e 0a	 mov	 BYTE PTR [esi+edi+10], al
$LN13@ItemByteCo:

; 4571 : 			}
; 4572 : 
; 4573 : #if (ENABLETEST_MUUN == 1)
; 4574 : 			if (g_CMuunSystem.IsMuunItem(&item[index])) {
; 4575 : 				buf[n] = item[index].m_SocketBonus;
; 4576 : 			}
; 4577 : #endif
; 4578 : 
; 4579 : 			n++;
; 4580 : 			buf[n] = item[index].m_SocketOption[0];

  001b6	8a 83 c2 00 00
	00		 mov	 al, BYTE PTR [ebx+194]
  001bc	88 44 3e 0b	 mov	 BYTE PTR [esi+edi+11], al

; 4581 : 			n++;
; 4582 : 			buf[n] = item[index].m_SocketOption[1];

  001c0	8a 83 c3 00 00
	00		 mov	 al, BYTE PTR [ebx+195]
  001c6	88 44 3e 0c	 mov	 BYTE PTR [esi+edi+12], al

; 4583 : 			n++;
; 4584 : 			buf[n] = item[index].m_SocketOption[2];

  001ca	8a 83 c4 00 00
	00		 mov	 al, BYTE PTR [ebx+196]
  001d0	88 44 3e 0d	 mov	 BYTE PTR [esi+edi+13], al

; 4585 : 			n++;
; 4586 : 			buf[n] = item[index].m_SocketOption[3];

  001d4	8a 83 c5 00 00
	00		 mov	 al, BYTE PTR [ebx+197]
  001da	88 44 3e 0e	 mov	 BYTE PTR [esi+edi+14], al

; 4587 : 			n++;
; 4588 : 			buf[n] = item[index].m_SocketOption[4];

  001de	8a 83 c6 00 00
	00		 mov	 al, BYTE PTR [ebx+198]
  001e4	88 44 3e 0f	 mov	 BYTE PTR [esi+edi+15], al
$LN23@ItemByteCo:

; 4589 : 			n++;

  001e8	83 c6 10	 add	 esi, 16			; 00000010H
  001eb	81 c3 d4 00 00
	00		 add	 ebx, 212		; 000000d4H
  001f1	83 6d 10 01	 sub	 DWORD PTR _maxitem$[ebp], 1
  001f5	b8 13 1a 00 00	 mov	 eax, 6675		; 00001a13H
  001fa	0f 85 20 fe ff
	ff		 jne	 $LL4@ItemByteCo
  00200	5f		 pop	 edi
  00201	5b		 pop	 ebx
$LN3@ItemByteCo:
  00202	5e		 pop	 esi

; 4590 : 		}
; 4591 : 	}
; 4592 : }

  00203	5d		 pop	 ebp
  00204	c3		 ret	 0
?ItemByteConvert16@@YAXPAEQAVCItem@@H@Z ENDP		; ItemByteConvert16
_TEXT	ENDS
; Function compile flags: /Ogtp
; File c:\users\michel\desktop\source\gameserver\common\zzzitem.cpp
;	COMDAT ?ItemByteConvert10@@YAXPAEQAVCItem@@H@Z
_TEXT	SEGMENT
_buf$ = 8						; size = 4
_item$ = 12						; size = 4
_maxitem$ = 16						; size = 4
?ItemByteConvert10@@YAXPAEQAVCItem@@H@Z PROC		; ItemByteConvert10, COMDAT

; 4196 : {

  00000	55		 push	 ebp
  00001	8b ec		 mov	 ebp, esp
  00003	56		 push	 esi

; 4197 : 	int n = 0;

  00004	33 f6		 xor	 esi, esi

; 4198 : 	WORD hiWord;
; 4199 : 	WORD loWord;
; 4200 : 	int index;
; 4201 : 
; 4202 : 	for (index = 0; index < maxitem ; index++ )

  00006	39 75 10	 cmp	 DWORD PTR _maxitem$[ebp], esi
  00009	0f 8e 20 01 00
	00		 jle	 $LN3@ItemByteCo

; 4197 : 	int n = 0;

  0000f	53		 push	 ebx
  00010	8b 5d 0c	 mov	 ebx, DWORD PTR _item$[ebp]
  00013	b8 13 1a 00 00	 mov	 eax, 6675		; 00001a13H
  00018	57		 push	 edi
  00019	8b 7d 08	 mov	 edi, DWORD PTR _buf$[ebp]
  0001c	83 c3 08	 add	 ebx, 8
  0001f	90		 npad	 1
$LL4@ItemByteCo:

; 4203 : 	{
; 4204 : 		if ( item[index].m_Type == ITEMGET(13,19) )

  00020	0f b7 4b fe	 movzx	 ecx, WORD PTR [ebx-2]
  00024	66 3b c8	 cmp	 cx, ax
  00027	75 33		 jne	 SHORT $LN6@ItemByteCo

; 4205 : 		{
; 4206 : 			if ( (item[index].m_Level < 0)? FALSE : ( item[index].m_Level > 2)? FALSE : TRUE  )

  00029	0f b7 13	 movzx	 edx, WORD PTR [ebx]
  0002c	66 85 d2	 test	 dx, dx
  0002f	78 2b		 js	 SHORT $LN6@ItemByteCo
  00031	33 c0		 xor	 eax, eax
  00033	66 83 fa 02	 cmp	 dx, 2
  00037	0f 9e c0	 setle	 al
  0003a	85 c0		 test	 eax, eax
  0003c	74 1e		 je	 SHORT $LN6@ItemByteCo
$LN19@ItemByteCo:

; 4207 : 			{
; 4208 : 				buf[n] = -1;

  0003e	c7 04 3e ff ff
	ff ff		 mov	 DWORD PTR [esi+edi], -1

; 4209 : 				buf[n+1] = -1;
; 4210 : 				buf[n+2] = -1;
; 4211 : 				buf[n+3] = -1;
; 4212 : 				buf[n+4] = -1;

  00045	c7 44 3e 04 ff
	ff ff ff	 mov	 DWORD PTR [esi+edi+4], -1

; 4213 : 				buf[n+5] = -1;
; 4214 : 				buf[n+6] = -1;
; 4215 : 				buf[n+7] = -1;
; 4216 : 				buf[n+8] = -1;

  0004d	66 c7 44 3e 08
	ff ff		 mov	 WORD PTR [esi+edi+8], 65535 ; 0000ffffH

; 4217 : 				buf[n+9] = -1;
; 4218 : 				n += 16;

  00054	83 c6 10	 add	 esi, 16			; 00000010H

; 4219 : 				continue;

  00057	e9 bc 00 00 00	 jmp	 $LN2@ItemByteCo
$LN6@ItemByteCo:

; 4220 : 			}
; 4221 : 		}
; 4222 : 		
; 4223 : 		if ( item[index].m_Type <  0 )

  0005c	66 85 c9	 test	 cx, cx
  0005f	78 dd		 js	 SHORT $LN19@ItemByteCo

; 4224 : 		{
; 4225 : 			buf[n] = -1;
; 4226 : 			buf[n+1] = -1;
; 4227 : 			buf[n+2] = -1;
; 4228 : 			buf[n+3] = -1;
; 4229 : 			buf[n+4] = -1;
; 4230 : 			buf[n+5] = -1;
; 4231 : 			buf[n+6] = -1;
; 4232 : 			buf[n+7] = -1;
; 4233 : 			buf[n+8] = -1;
; 4234 : 			buf[n+9] = -1;
; 4235 : 			n += 16;
; 4236 : 		}
; 4237 : 		else
; 4238 : 		{
; 4239 : 			buf[n] = (BYTE)item[index].m_Type % 256 ;

  00061	0f b6 43 fe	 movzx	 eax, BYTE PTR [ebx-2]
  00065	25 ff 00 00 80	 and	 eax, -2147483393	; 800000ffH
  0006a	79 07		 jns	 SHORT $LN18@ItemByteCo
  0006c	48		 dec	 eax
  0006d	0d 00 ff ff ff	 or	 eax, -256		; ffffff00H
  00072	40		 inc	 eax
$LN18@ItemByteCo:
  00073	88 04 3e	 mov	 BYTE PTR [esi+edi], al

; 4240 : 			n++;
; 4241 : 			buf[n] = 0;

  00076	c6 44 3e 01 00	 mov	 BYTE PTR [esi+edi+1], 0

; 4242 : 			buf[n] |= item[index].m_Level * 8;

  0007b	8a 03		 mov	 al, BYTE PTR [ebx]
  0007d	c0 e0 03	 shl	 al, 3
  00080	88 44 3e 01	 mov	 BYTE PTR [esi+edi+1], al

; 4243 : 			buf[n] |= item[index].m_Option1 * 128;

  00084	8a 8b 88 00 00
	00		 mov	 cl, BYTE PTR [ebx+136]
  0008a	c0 e1 07	 shl	 cl, 7
  0008d	0a c8		 or	 cl, al
  0008f	88 4c 3e 01	 mov	 BYTE PTR [esi+edi+1], cl

; 4244 : 			buf[n] |= item[index].m_Option2 * 4;

  00093	8a 93 89 00 00
	00		 mov	 dl, BYTE PTR [ebx+137]
  00099	c0 e2 02	 shl	 dl, 2
  0009c	0a d1		 or	 dl, cl
  0009e	88 54 3e 01	 mov	 BYTE PTR [esi+edi+1], dl

; 4245 : 			buf[n] |= item[index].m_Option3 & 3;

  000a2	0f b6 83 8a 00
	00 00		 movzx	 eax, BYTE PTR [ebx+138]
  000a9	24 03		 and	 al, 3
  000ab	0a c2		 or	 al, dl
  000ad	88 44 3e 01	 mov	 BYTE PTR [esi+edi+1], al

; 4246 : 			n++;
; 4247 : 			buf[n] = item[index].m_Durability;

  000b1	f3 0f 2c 43 1c	 cvttss2si eax, DWORD PTR [ebx+28]
  000b6	88 44 3e 02	 mov	 BYTE PTR [esi+edi+2], al

; 4248 : 			n++;
; 4249 : 			hiWord = item[index].m_Number >> 16;

  000ba	0f b7 4b fa	 movzx	 ecx, WORD PTR [ebx-6]

; 4250 : 			loWord = item[index].m_Number  & 0xFFFF;

  000be	0f b7 53 f8	 movzx	 edx, WORD PTR [ebx-8]

; 4251 : 			buf[n] = SET_NUMBERH(hiWord);

  000c2	8b c1		 mov	 eax, ecx
  000c4	c1 e8 08	 shr	 eax, 8
  000c7	88 44 3e 03	 mov	 BYTE PTR [esi+edi+3], al

; 4252 : 			n++;
; 4253 : 			buf[n] = SET_NUMBERL(hiWord);
; 4254 : 			n++;
; 4255 : 			buf[n] = SET_NUMBERH(loWord);

  000cb	8b c2		 mov	 eax, edx
  000cd	88 4c 3e 04	 mov	 BYTE PTR [esi+edi+4], cl
  000d1	c1 e8 08	 shr	 eax, 8
  000d4	88 44 3e 05	 mov	 BYTE PTR [esi+edi+5], al

; 4256 : 			n++;
; 4257 : 			buf[n] = SET_NUMBERL(loWord);
; 4258 : 			n++;
; 4259 : 			buf[n] = 0;
; 4260 : 
; 4261 : 			if ( item[index].m_Type > 255 )

  000d8	b8 ff 00 00 00	 mov	 eax, 255		; 000000ffH
  000dd	88 54 3e 06	 mov	 BYTE PTR [esi+edi+6], dl
  000e1	c6 44 3e 07 00	 mov	 BYTE PTR [esi+edi+7], 0
  000e6	66 39 43 fe	 cmp	 WORD PTR [ebx-2], ax
  000ea	7e 05		 jle	 SHORT $LN9@ItemByteCo

; 4262 : 			{
; 4263 : 				buf[n] = 0x80;	// Second Type of Item

  000ec	c6 44 3e 07 80	 mov	 BYTE PTR [esi+edi+7], 128 ; 00000080H
$LN9@ItemByteCo:

; 4264 : 			}
; 4265 : 
; 4266 : 			if ( item[index].m_Option3 > 3 )

  000f1	80 bb 8a 00 00
	00 03		 cmp	 BYTE PTR [ebx+138], 3
  000f8	76 05		 jbe	 SHORT $LN10@ItemByteCo

; 4267 : 			{
; 4268 : 				buf[n] |= 0x40;	// Duration ???

  000fa	80 4c 3e 07 40	 or	 BYTE PTR [esi+edi+7], 64 ; 00000040H
$LN10@ItemByteCo:

; 4269 : 			}
; 4270 : 
; 4271 : 			buf[n] |= item[index].m_NewOption;

  000ff	0f b6 83 8b 00
	00 00		 movzx	 eax, BYTE PTR [ebx+139]
  00106	08 44 3e 07	 or	 BYTE PTR [esi+edi+7], al

; 4272 : 			n++;
; 4273 : 			buf[n] = item[index].m_SetOption;

  0010a	0f b6 83 a2 00
	00 00		 movzx	 eax, BYTE PTR [ebx+162]
  00111	88 44 3e 08	 mov	 BYTE PTR [esi+edi+8], al

; 4274 : 			n++;
; 4275 : 			n++;

  00115	83 c6 0a	 add	 esi, 10			; 0000000aH
$LN2@ItemByteCo:

; 4198 : 	WORD hiWord;
; 4199 : 	WORD loWord;
; 4200 : 	int index;
; 4201 : 
; 4202 : 	for (index = 0; index < maxitem ; index++ )

  00118	81 c3 d4 00 00
	00		 add	 ebx, 212		; 000000d4H
  0011e	b8 13 1a 00 00	 mov	 eax, 6675		; 00001a13H
  00123	83 6d 10 01	 sub	 DWORD PTR _maxitem$[ebp], 1
  00127	0f 85 f3 fe ff
	ff		 jne	 $LL4@ItemByteCo
  0012d	5f		 pop	 edi
  0012e	5b		 pop	 ebx
$LN3@ItemByteCo:
  0012f	5e		 pop	 esi

; 4276 : 		}
; 4277 : 	}
; 4278 : }

  00130	5d		 pop	 ebp
  00131	c3		 ret	 0
?ItemByteConvert10@@YAXPAEQAVCItem@@H@Z ENDP		; ItemByteConvert10
_TEXT	ENDS
; Function compile flags: /Ogtp
; File c:\users\michel\desktop\source\gameserver\common\zzzitem.cpp
;	COMDAT ?ItemByteConvert7@@YAXPAEQAVCItem@@H@Z
_TEXT	SEGMENT
_buf$ = 8						; size = 4
_item$ = 12						; size = 4
_maxitem$ = 16						; size = 4
?ItemByteConvert7@@YAXPAEQAVCItem@@H@Z PROC		; ItemByteConvert7, COMDAT

; 4162 : {

  00000	55		 push	 ebp
  00001	8b ec		 mov	 ebp, esp
  00003	53		 push	 ebx

; 4164 : 	WORD hiWord;
; 4165 : 	WORD loWord;
; 4166 : 
; 4167 : 	for ( int index = 0; index < maxitem ; index++ )

  00004	8b 5d 10	 mov	 ebx, DWORD PTR _maxitem$[ebp]
  00007	85 db		 test	 ebx, ebx
  00009	0f 8e 86 00 00
	00		 jle	 $LN3@ItemByteCo

; 4163 : 	int n = 0;

  0000f	56		 push	 esi
  00010	8b 75 08	 mov	 esi, DWORD PTR _buf$[ebp]
  00013	57		 push	 edi
  00014	8b 7d 0c	 mov	 edi, DWORD PTR _item$[ebp]
  00017	83 c7 08	 add	 edi, 8
  0001a	66 0f 1f 44 00
	00		 npad	 6
$LL4@ItemByteCo:

; 4168 : 	{
; 4169 : 		buf[n] = item[index].m_Type;

  00020	0f b6 47 fe	 movzx	 eax, BYTE PTR [edi-2]

; 4170 : 		n++;
; 4171 : 		buf[n] = 0;
; 4172 : 		buf[n] |= item[index].m_Level * 8;
; 4173 : 		buf[n] |= item[index].m_Option1 * 128;
; 4174 : 		buf[n] |= item[index].m_Option2 * 4;
; 4175 : 		buf[n] |= item[index].m_Option3;
; 4176 : 		n++;
; 4177 : 		buf[n] = item[index].m_Durability;
; 4178 : 		n++;
; 4179 : 		hiWord = item[index].m_Number >> 16;
; 4180 : 		loWord = item[index].m_Number & 0xFFFF;
; 4181 : 		buf[n] = SET_NUMBERH(hiWord);
; 4182 : 		n++;
; 4183 : 		buf[n] = SET_NUMBERL(hiWord);
; 4184 : 		n++;
; 4185 : 		buf[n] = SET_NUMBERH(loWord);
; 4186 : 		n++;
; 4187 : 		buf[n] = SET_NUMBERL(loWord);
; 4188 : 		n++;

  00024	8d 76 07	 lea	 esi, DWORD PTR [esi+7]
  00027	88 46 f9	 mov	 BYTE PTR [esi-7], al
  0002a	8d bf d4 00 00
	00		 lea	 edi, DWORD PTR [edi+212]
  00030	c6 46 fa 00	 mov	 BYTE PTR [esi-6], 0
  00034	8a 87 2c ff ff
	ff		 mov	 al, BYTE PTR [edi-212]
  0003a	c0 e0 03	 shl	 al, 3
  0003d	88 46 fa	 mov	 BYTE PTR [esi-6], al
  00040	8a 57 b4	 mov	 dl, BYTE PTR [edi-76]
  00043	c0 e2 07	 shl	 dl, 7
  00046	0a d0		 or	 dl, al
  00048	88 56 fa	 mov	 BYTE PTR [esi-6], dl
  0004b	8a 4f b5	 mov	 cl, BYTE PTR [edi-75]
  0004e	c0 e1 02	 shl	 cl, 2
  00051	0a ca		 or	 cl, dl
  00053	88 4e fa	 mov	 BYTE PTR [esi-6], cl
  00056	0f b6 47 b6	 movzx	 eax, BYTE PTR [edi-74]
  0005a	0a c1		 or	 al, cl
  0005c	88 46 fa	 mov	 BYTE PTR [esi-6], al
  0005f	f3 0f 2c 87 48
	ff ff ff	 cvttss2si eax, DWORD PTR [edi-184]
  00067	88 46 fb	 mov	 BYTE PTR [esi-5], al
  0006a	0f b7 8f 26 ff
	ff ff		 movzx	 ecx, WORD PTR [edi-218]
  00071	0f b7 97 24 ff
	ff ff		 movzx	 edx, WORD PTR [edi-220]
  00078	8b c1		 mov	 eax, ecx
  0007a	c1 e8 08	 shr	 eax, 8
  0007d	88 46 fc	 mov	 BYTE PTR [esi-4], al
  00080	8b c2		 mov	 eax, edx
  00082	88 4e fd	 mov	 BYTE PTR [esi-3], cl
  00085	c1 e8 08	 shr	 eax, 8
  00088	88 46 fe	 mov	 BYTE PTR [esi-2], al
  0008b	88 56 ff	 mov	 BYTE PTR [esi-1], dl
  0008e	83 eb 01	 sub	 ebx, 1
  00091	75 8d		 jne	 SHORT $LL4@ItemByteCo
  00093	5f		 pop	 edi
  00094	5e		 pop	 esi
$LN3@ItemByteCo:
  00095	5b		 pop	 ebx

; 4189 : 	}
; 4190 : }

  00096	5d		 pop	 ebp
  00097	c3		 ret	 0
?ItemByteConvert7@@YAXPAEQAVCItem@@H@Z ENDP		; ItemByteConvert7
_TEXT	ENDS
; Function compile flags: /Ogtp
; File c:\users\michel\desktop\source\gameserver\common\zzzitem.cpp
;	COMDAT ?BufferItemtoConvert3@@YAXPAEAAHAAE2222@Z
_TEXT	SEGMENT
_buf$ = 8						; size = 4
_type$ = 12						; size = 4
_level$ = 16						; size = 4
_op1$ = 20						; size = 4
_op2$ = 24						; size = 4
_op3$ = 28						; size = 4
_dur$ = 32						; size = 4
?BufferItemtoConvert3@@YAXPAEAAHAAE2222@Z PROC		; BufferItemtoConvert3, COMDAT

; 4147 : {

  00000	55		 push	 ebp
  00001	8b ec		 mov	 ebp, esp
  00003	56		 push	 esi

; 4148 : 	type = buf[0] + ((buf[3]&0x80)*2)+((buf[5]&0xF0)<<5);

  00004	8b 75 08	 mov	 esi, DWORD PTR _buf$[ebp]

; 4149 : 	level = (buf[1]>>3) & 15;
; 4150 : 	op1 = (buf[1]>>7) & 1;
; 4151 : 	op2 = (buf[1]>>2) & 1;
; 4152 : 	op3 = (buf[1] & 3 );

  00007	8b 55 1c	 mov	 edx, DWORD PTR _op3$[ebp]
  0000a	0f b6 4e 05	 movzx	 ecx, BYTE PTR [esi+5]
  0000e	0f b6 46 03	 movzx	 eax, BYTE PTR [esi+3]
  00012	81 e1 f0 00 00
	00		 and	 ecx, 240		; 000000f0H
  00018	25 80 00 00 00	 and	 eax, 128		; 00000080H
  0001d	c1 e1 04	 shl	 ecx, 4
  00020	03 c8		 add	 ecx, eax
  00022	0f b6 06	 movzx	 eax, BYTE PTR [esi]
  00025	8d 0c 48	 lea	 ecx, DWORD PTR [eax+ecx*2]
  00028	8b 45 0c	 mov	 eax, DWORD PTR _type$[ebp]
  0002b	89 08		 mov	 DWORD PTR [eax], ecx
  0002d	0f b6 4e 01	 movzx	 ecx, BYTE PTR [esi+1]
  00031	8b 45 10	 mov	 eax, DWORD PTR _level$[ebp]
  00034	c0 e9 03	 shr	 cl, 3
  00037	80 e1 0f	 and	 cl, 15			; 0000000fH
  0003a	88 08		 mov	 BYTE PTR [eax], cl
  0003c	0f b6 4e 01	 movzx	 ecx, BYTE PTR [esi+1]
  00040	8b 45 14	 mov	 eax, DWORD PTR _op1$[ebp]
  00043	c0 e9 07	 shr	 cl, 7
  00046	88 08		 mov	 BYTE PTR [eax], cl
  00048	0f b6 4e 01	 movzx	 ecx, BYTE PTR [esi+1]
  0004c	8b 45 18	 mov	 eax, DWORD PTR _op2$[ebp]
  0004f	c0 e9 02	 shr	 cl, 2
  00052	80 e1 01	 and	 cl, 1
  00055	88 08		 mov	 BYTE PTR [eax], cl
  00057	0f b6 46 01	 movzx	 eax, BYTE PTR [esi+1]
  0005b	24 03		 and	 al, 3
  0005d	88 02		 mov	 BYTE PTR [edx], al

; 4153 : 	dur = buf[2];

  0005f	8b 45 20	 mov	 eax, DWORD PTR _dur$[ebp]
  00062	0f b6 4e 02	 movzx	 ecx, BYTE PTR [esi+2]
  00066	88 08		 mov	 BYTE PTR [eax], cl

; 4154 : 
; 4155 : 	op3 |= (buf[3] & 0x40) >> 4;

  00068	0f b6 46 03	 movzx	 eax, BYTE PTR [esi+3]
  0006c	c0 e8 04	 shr	 al, 4
  0006f	24 04		 and	 al, 4
  00071	08 02		 or	 BYTE PTR [edx], al
  00073	5e		 pop	 esi

; 4156 : }

  00074	5d		 pop	 ebp
  00075	c3		 ret	 0
?BufferItemtoConvert3@@YAXPAEAAHAAE2222@Z ENDP		; BufferItemtoConvert3
_TEXT	ENDS
; Function compile flags: /Ogtp
; File c:\users\michel\desktop\source\gameserver\common\zzzitem.h
;	COMDAT ??0CPetItemExp@@QAE@XZ
_TEXT	SEGMENT
??0CPetItemExp@@QAE@XZ PROC				; CPetItemExp::CPetItemExp, COMDAT
; _this$ = ecx

; 315  : 	CPetItemExp()

  00000	56		 push	 esi
  00001	8b f1		 mov	 esi, ecx

; 316  : 	{
; 317  : 		this->m_DarkSpiritExpTable[0] = 0;
; 318  : 		this->m_DarkSpiritExpTable[1] = 0;
; 319  : 
; 320  : 		for ( int i = 2 ; i < MAX_PET_LEVEL+2 ; i++ )

  00003	b8 02 00 00 00	 mov	 eax, 2
  00008	c7 06 00 00 00
	00		 mov	 DWORD PTR [esi], 0
  0000e	c7 46 04 00 00
	00 00		 mov	 DWORD PTR [esi+4], 0

; 321  : 		{
; 322  : 			this->m_DarkSpiritExpTable[i] = (i+10) * i * i * i * 100;

  00015	39 05 00 00 00
	00		 cmp	 DWORD PTR ___isa_available, eax
  0001b	0f 8c 8f 00 00
	00		 jl	 $LL34@CPetItemEx
  00021	0f 28 15 00 00
	00 00		 movaps	 xmm2, XMMWORD PTR __xmm@00000003000000020000000100000000
  00028	8d 56 08	 lea	 edx, DWORD PTR [esi+8]
  0002b	0f 28 1d 00 00
	00 00		 movaps	 xmm3, XMMWORD PTR __xmm@00000064000000640000006400000064
  00032	0f 28 25 00 00
	00 00		 movaps	 xmm4, XMMWORD PTR __xmm@0000000a0000000a0000000a0000000a
  00039	0f 1f 80 00 00
	00 00		 npad	 7
$LL4@CPetItemEx:
  00040	66 0f 6e c0	 movd	 xmm0, eax
  00044	8d 48 04	 lea	 ecx, DWORD PTR [eax+4]
  00047	66 0f 70 c8 00	 pshufd	 xmm1, xmm0, 0

; 316  : 	{
; 317  : 		this->m_DarkSpiritExpTable[0] = 0;
; 318  : 		this->m_DarkSpiritExpTable[1] = 0;
; 319  : 
; 320  : 		for ( int i = 2 ; i < MAX_PET_LEVEL+2 ; i++ )

  0004c	8d 52 20	 lea	 edx, DWORD PTR [edx+32]
  0004f	66 0f fe ca	 paddd	 xmm1, xmm2

; 321  : 		{
; 322  : 			this->m_DarkSpiritExpTable[i] = (i+10) * i * i * i * 100;

  00053	0f 28 c4	 movaps	 xmm0, xmm4
  00056	66 0f fe c1	 paddd	 xmm0, xmm1
  0005a	83 c0 08	 add	 eax, 8
  0005d	66 0f 38 40 c1	 pmulld	 xmm0, xmm1
  00062	66 0f 38 40 c1	 pmulld	 xmm0, xmm1
  00067	66 0f 38 40 c1	 pmulld	 xmm0, xmm1
  0006c	66 0f 38 40 c3	 pmulld	 xmm0, xmm3
  00071	0f 11 42 e0	 movups	 XMMWORD PTR [edx-32], xmm0
  00075	66 0f 6e c1	 movd	 xmm0, ecx
  00079	66 0f 70 c8 00	 pshufd	 xmm1, xmm0, 0
  0007e	66 0f fe ca	 paddd	 xmm1, xmm2
  00082	0f 28 c1	 movaps	 xmm0, xmm1
  00085	66 0f fe c4	 paddd	 xmm0, xmm4
  00089	66 0f 38 40 c1	 pmulld	 xmm0, xmm1
  0008e	66 0f 38 40 c1	 pmulld	 xmm0, xmm1
  00093	66 0f 38 40 c1	 pmulld	 xmm0, xmm1
  00098	66 0f 38 40 c3	 pmulld	 xmm0, xmm3
  0009d	0f 11 42 f0	 movups	 XMMWORD PTR [edx-16], xmm0
  000a1	83 f8 32	 cmp	 eax, 50			; 00000032H
  000a4	7c 9a		 jl	 SHORT $LL4@CPetItemEx

; 316  : 	{
; 317  : 		this->m_DarkSpiritExpTable[0] = 0;
; 318  : 		this->m_DarkSpiritExpTable[1] = 0;
; 319  : 
; 320  : 		for ( int i = 2 ; i < MAX_PET_LEVEL+2 ; i++ )

  000a6	83 f8 34	 cmp	 eax, 52			; 00000034H
  000a9	7d 1d		 jge	 SHORT $LN3@CPetItemEx
  000ab	0f 1f 44 00 00	 npad	 5
$LL34@CPetItemEx:

; 321  : 		{
; 322  : 			this->m_DarkSpiritExpTable[i] = (i+10) * i * i * i * 100;

  000b0	8d 48 0a	 lea	 ecx, DWORD PTR [eax+10]
  000b3	0f af c8	 imul	 ecx, eax
  000b6	0f af c8	 imul	 ecx, eax
  000b9	0f af c8	 imul	 ecx, eax
  000bc	6b c9 64	 imul	 ecx, ecx, 100
  000bf	89 0c 86	 mov	 DWORD PTR [esi+eax*4], ecx
  000c2	40		 inc	 eax
  000c3	83 f8 34	 cmp	 eax, 52			; 00000034H
  000c6	7c e8		 jl	 SHORT $LL34@CPetItemEx
$LN3@CPetItemEx:

; 323  : 		}
; 324  : 
; 325  : 		this->m_DarkHorseExpTable[0] = 0;

  000c8	c7 86 d0 00 00
	00 00 00 00 00	 mov	 DWORD PTR [esi+208], 0
  000d2	8d 96 d8 00 00
	00		 lea	 edx, DWORD PTR [esi+216]

; 326  : 		this->m_DarkHorseExpTable[1] = 0;

  000d8	c7 86 d4 00 00
	00 00 00 00 00	 mov	 DWORD PTR [esi+212], 0

; 327  : 
; 328  : 		for (int i = 2; i < MAX_PET_LEVEL + 2; i++)

  000e2	b9 02 00 00 00	 mov	 ecx, 2
$LL7@CPetItemEx:

; 329  : 		{
; 330  : 			this->m_DarkHorseExpTable[i] = (i+10) * i * i * i * 100;

  000e7	8d 41 0a	 lea	 eax, DWORD PTR [ecx+10]
  000ea	0f af c1	 imul	 eax, ecx
  000ed	8d 52 04	 lea	 edx, DWORD PTR [edx+4]
  000f0	0f af c1	 imul	 eax, ecx
  000f3	0f af c1	 imul	 eax, ecx
  000f6	41		 inc	 ecx
  000f7	6b c0 64	 imul	 eax, eax, 100
  000fa	89 42 fc	 mov	 DWORD PTR [edx-4], eax
  000fd	83 f9 34	 cmp	 ecx, 52			; 00000034H
  00100	7c e5		 jl	 SHORT $LL7@CPetItemEx

; 331  : 		}
; 332  : 	};

  00102	8b c6		 mov	 eax, esi
  00104	5e		 pop	 esi
  00105	c3		 ret	 0
??0CPetItemExp@@QAE@XZ ENDP				; CPetItemExp::CPetItemExp
_TEXT	ENDS
; Function compile flags: /Ogtp
; File c:\users\michel\desktop\source\gameserver\common\zzzitem.cpp
;	COMDAT ?GetDetailItemType@CItem@@QAEHXZ
_TEXT	SEGMENT
?GetDetailItemType@CItem@@QAEHXZ PROC			; CItem::GetDetailItemType, COMDAT
; _this$ = ecx

; 5891 : {

  00000	8b d1		 mov	 edx, ecx
  00002	56		 push	 esi
  00003	57		 push	 edi

; 5892 : 	ITEM_ATTRIBUTE *p; // [sp+54h] [bp-8h]@1
; 5893 : 	int nSum; // [sp+50h] [bp-Ch]@26
; 5894 : 	signed int i; // [sp+4Ch] [bp-10h]@26
; 5895 : 
; 5896 : 	p = &ItemAttribute[m_Type];

  00004	0f b7 42 06	 movzx	 eax, WORD PTR [edx+6]
  00008	0f bf f8	 movsx	 edi, ax
  0000b	6b f7 70	 imul	 esi, edi, 112
  0000e	81 c6 00 00 00
	00		 add	 esi, OFFSET ?ItemAttribute@@3PAUITEM_ATTRIBUTE@@A ; ItemAttribute

; 5897 : 
; 5898 : 	if ( this->m_Type < 0 )

  00014	66 85 c0	 test	 ax, ax
  00017	0f 88 85 01 00
	00		 js	 $LN5@GetDetailI

; 5899 : 		return -1;
; 5900 : 
; 5901 : 
; 5902 : 	if ( this->m_Type < ITEMGET(1,0) )

  0001d	b9 00 02 00 00	 mov	 ecx, 512		; 00000200H
  00022	66 3b c1	 cmp	 ax, cx
  00025	7d 27		 jge	 SHORT $LN8@GetDetailI

; 5903 : 	{
; 5904 : 		if(this->m_TwoHand == 1)

  00027	80 7a 0c 01	 cmp	 BYTE PTR [edx+12], 1
  0002b	75 05		 jne	 SHORT $LN10@GetDetailI
$LN65@GetDetailI:
  0002d	5f		 pop	 edi

; 5905 : 		{
; 5906 : 			return 0;

  0002e	33 c0		 xor	 eax, eax
  00030	5e		 pop	 esi

; 5993 : }

  00031	c3		 ret	 0
$LN10@GetDetailI:

; 5907 : 		}
; 5908 : 		else
; 5909 : 		{
; 5910 : 			if( this->m_Type >= ITEMGET(0,32) && this->m_Type <= ITEMGET(0,35) )

  00032	66 83 f8 20	 cmp	 ax, 32			; 00000020H
  00036	7c 0e		 jl	 SHORT $LN12@GetDetailI
  00038	66 83 f8 23	 cmp	 ax, 35			; 00000023H
  0003c	7f 08		 jg	 SHORT $LN12@GetDetailI

; 5911 : 				return 12;

  0003e	5f		 pop	 edi
  0003f	b8 0c 00 00 00	 mov	 eax, 12			; 0000000cH
  00044	5e		 pop	 esi

; 5993 : }

  00045	c3		 ret	 0
$LN12@GetDetailI:
  00046	5f		 pop	 edi

; 5912 : 			else
; 5913 : 				return 1;

  00047	b8 01 00 00 00	 mov	 eax, 1
  0004c	5e		 pop	 esi

; 5993 : }

  0004d	c3		 ret	 0
$LN8@GetDetailI:

; 5914 : 		}
; 5915 : 	}
; 5916 : 	else if( m_Type < ITEMGET(2,0) )

  0004e	b9 00 04 00 00	 mov	 ecx, 1024		; 00000400H
  00053	66 3b c1	 cmp	 ax, cx
  00056	0f 8c 04 01 00
	00		 jl	 $LN39@GetDetailI

; 5917 : 	{
; 5918 : 
; 5919 : 	}
; 5920 : 	else if( m_Type < ITEMGET(3,0) )

  0005c	b9 00 06 00 00	 mov	 ecx, 1536		; 00000600H
  00061	66 3b c1	 cmp	 ax, cx
  00064	7d 2c		 jge	 SHORT $LN16@GetDetailI

; 5921 : 	{
; 5922 : 
; 5923 : 		if ( this->m_Type == ITEMGET(2,5) )

  00066	b9 05 04 00 00	 mov	 ecx, 1029		; 00000405H
  0006b	66 3b c1	 cmp	 ax, cx
  0006e	74 bd		 je	 SHORT $LN65@GetDetailI

; 5924 : 			return 0;
; 5925 : 
; 5926 : 		if ( this->m_Type == ITEMGET(2,6) )

  00070	b9 06 04 00 00	 mov	 ecx, 1030		; 00000406H
  00075	66 3b c1	 cmp	 ax, cx
  00078	0f 84 24 01 00
	00		 je	 $LN5@GetDetailI

; 5927 : 			return -1;
; 5928 : 
; 5929 : 		// force wave skill
; 5930 : 		if ( p->SkillType == 66 )

  0007e	83 7e 68 42	 cmp	 DWORD PTR [esi+104], 66	; 00000042H
  00082	b8 02 00 00 00	 mov	 eax, 2
  00087	b9 0b 00 00 00	 mov	 ecx, 11			; 0000000bH
  0008c	5f		 pop	 edi
  0008d	0f 44 c1	 cmove	 eax, ecx
  00090	5e		 pop	 esi

; 5993 : }

  00091	c3		 ret	 0
$LN16@GetDetailI:

; 5931 : 			return 11;
; 5932 : 		else
; 5933 : 			return 2;
; 5934 : 	}
; 5935 : 	else if(m_Type < ITEMGET(4,0) )

  00092	b9 00 08 00 00	 mov	 ecx, 2048		; 00000800H
  00097	66 3b c1	 cmp	 ax, cx
  0009a	7d 08		 jge	 SHORT $LN22@GetDetailI

; 5936 : 	{
; 5937 : 		return 3;

  0009c	5f		 pop	 edi
  0009d	b8 03 00 00 00	 mov	 eax, 3
  000a2	5e		 pop	 esi

; 5993 : }

  000a3	c3		 ret	 0
$LN22@GetDetailI:

; 5938 : 	}
; 5939 : 	else if(m_Type < ITEMGET(5,0) )

  000a4	b9 00 0a 00 00	 mov	 ecx, 2560		; 00000a00H
  000a9	66 3b c1	 cmp	 ax, cx
  000ac	7d 17		 jge	 SHORT $LN24@GetDetailI

; 5940 : 	{
; 5941 : 		if ( m_TwoHand == 1 )

  000ae	80 7a 0c 01	 cmp	 BYTE PTR [edx+12], 1
  000b2	0f 85 a8 00 00
	00		 jne	 $LN39@GetDetailI

; 5942 : 		{
; 5943 : 			if ( p->ItemSlot == 0)

  000b8	8b 46 64	 mov	 eax, DWORD PTR [esi+100]
  000bb	f7 d8		 neg	 eax
  000bd	5f		 pop	 edi
  000be	1b c0		 sbb	 eax, eax
  000c0	83 c0 08	 add	 eax, 8
  000c3	5e		 pop	 esi

; 5993 : }

  000c4	c3		 ret	 0
$LN24@GetDetailI:

; 5944 : 				return 8;
; 5945 : 			else
; 5946 : 				return 7;
; 5947 : 		}
; 5948 : 	}
; 5949 : 	else if ( m_Type < ITEMGET(6,0) )

  000c5	b9 00 0c 00 00	 mov	 ecx, 3072		; 00000c00H
  000ca	66 3b c1	 cmp	 ax, cx
  000cd	7d 7f		 jge	 SHORT $LN29@GetDetailI

; 5950 : 	{
; 5951 : 		nSum = 0;

  000cf	33 c9		 xor	 ecx, ecx
  000d1	53		 push	 ebx

; 5952 : 		for ( i = 0; i < MAX_TYPE_PLAYER; ++i )
; 5953 : 		{
; 5954 : 			if ( this->m_RequireClass[i] > 0 )

  000d2	33 db		 xor	 ebx, ebx
  000d4	38 4a 60	 cmp	 BYTE PTR [edx+96], cl
  000d7	0f 47 cb	 cmova	 ecx, ebx
  000da	80 7a 61 00	 cmp	 BYTE PTR [edx+97], 0
  000de	bb 01 00 00 00	 mov	 ebx, 1
  000e3	0f 47 cb	 cmova	 ecx, ebx
  000e6	80 7a 62 00	 cmp	 BYTE PTR [edx+98], 0
  000ea	5b		 pop	 ebx
  000eb	76 03		 jbe	 SHORT $LN56@GetDetailI

; 5955 : 				nSum += i;

  000ed	83 c1 02	 add	 ecx, 2
$LN56@GetDetailI:

; 5952 : 		for ( i = 0; i < MAX_TYPE_PLAYER; ++i )
; 5953 : 		{
; 5954 : 			if ( this->m_RequireClass[i] > 0 )

  000f0	80 7a 63 00	 cmp	 BYTE PTR [edx+99], 0
  000f4	76 03		 jbe	 SHORT $LN58@GetDetailI

; 5955 : 				nSum += i;

  000f6	83 c1 03	 add	 ecx, 3
$LN58@GetDetailI:

; 5952 : 		for ( i = 0; i < MAX_TYPE_PLAYER; ++i )
; 5953 : 		{
; 5954 : 			if ( this->m_RequireClass[i] > 0 )

  000f9	80 7a 64 00	 cmp	 BYTE PTR [edx+100], 0
  000fd	76 03		 jbe	 SHORT $LN60@GetDetailI

; 5955 : 				nSum += i;

  000ff	83 c1 04	 add	 ecx, 4
$LN60@GetDetailI:

; 5952 : 		for ( i = 0; i < MAX_TYPE_PLAYER; ++i )
; 5953 : 		{
; 5954 : 			if ( this->m_RequireClass[i] > 0 )

  00102	80 7a 65 00	 cmp	 BYTE PTR [edx+101], 0
  00106	76 03		 jbe	 SHORT $LN62@GetDetailI

; 5955 : 				nSum += i;

  00108	83 c1 05	 add	 ecx, 5
$LN62@GetDetailI:

; 5952 : 		for ( i = 0; i < MAX_TYPE_PLAYER; ++i )
; 5953 : 		{
; 5954 : 			if ( this->m_RequireClass[i] > 0 )

  0010b	80 7a 66 00	 cmp	 BYTE PTR [edx+102], 0
  0010f	76 03		 jbe	 SHORT $LN64@GetDetailI

; 5955 : 				nSum += i;

  00111	83 c1 06	 add	 ecx, 6
$LN64@GetDetailI:

; 5956 : 		}
; 5957 : 
; 5958 : 		if ( nSum == 5 )

  00114	83 f9 05	 cmp	 ecx, 5
  00117	75 26		 jne	 SHORT $LN32@GetDetailI

; 5959 : 		{
; 5960 : 			if ( this->m_Type != ITEMGET(5,0) )

  00119	b9 00 0a 00 00	 mov	 ecx, 2560		; 00000a00H
  0011e	66 3b c1	 cmp	 ax, cx
  00121	74 3d		 je	 SHORT $LN39@GetDetailI

; 5961 : 			{
; 5962 : 				if ( p->ItemSlot == 0 )

  00123	8b 46 64	 mov	 eax, DWORD PTR [esi+100]
  00126	85 c0		 test	 eax, eax
  00128	75 08		 jne	 SHORT $LN35@GetDetailI

; 5963 : 					return 9;

  0012a	5f		 pop	 edi
  0012b	b8 09 00 00 00	 mov	 eax, 9
  00130	5e		 pop	 esi

; 5993 : }

  00131	c3		 ret	 0
$LN35@GetDetailI:

; 5964 : 
; 5965 : 				if ( p->ItemSlot == 1 )

  00132	83 f8 01	 cmp	 eax, 1
  00135	75 29		 jne	 SHORT $LN39@GetDetailI

; 5966 : 					return 10;

  00137	5f		 pop	 edi
  00138	b8 0a 00 00 00	 mov	 eax, 10			; 0000000aH
  0013d	5e		 pop	 esi

; 5993 : }

  0013e	c3		 ret	 0
$LN32@GetDetailI:

; 5967 : 			}
; 5968 : 		}
; 5969 : 		else
; 5970 : 		{
; 5971 : 			if ( this->m_TwoHand == 1 )

  0013f	33 c0		 xor	 eax, eax
  00141	80 7a 0c 01	 cmp	 BYTE PTR [edx+12], 1
  00145	5f		 pop	 edi
  00146	0f 94 c0	 sete	 al
  00149	83 c0 04	 add	 eax, 4
  0014c	5e		 pop	 esi

; 5993 : }

  0014d	c3		 ret	 0
$LN29@GetDetailI:

; 5972 : 				return 5;
; 5973 : 			else
; 5974 : 				return 4;
; 5975 : 		}
; 5976 : 	}
; 5977 : 	else if ( m_Type < ITEMGET(7,0) )

  0014e	b9 00 0e 00 00	 mov	 ecx, 3584		; 00000e00H
  00153	66 3b c1	 cmp	 ax, cx
  00156	7d 08		 jge	 SHORT $LN39@GetDetailI

; 5978 : 	{
; 5979 : 		return 6;

  00158	5f		 pop	 edi
  00159	b8 06 00 00 00	 mov	 eax, 6
  0015e	5e		 pop	 esi

; 5993 : }

  0015f	c3		 ret	 0
$LN39@GetDetailI:

; 5980 : 	}
; 5981 : 
; 5982 : 	switch( m_Type )

  00160	8d 87 dc e7 ff
	ff		 lea	 eax, DWORD PTR [edi-6180]
  00166	83 f8 07	 cmp	 eax, 7
  00169	77 37		 ja	 SHORT $LN5@GetDetailI
  0016b	ff 24 85 00 00
	00 00		 jmp	 DWORD PTR $LN67@GetDetailI[eax*4]
$LN40@GetDetailI:
  00172	5f		 pop	 edi

; 5983 : 	{
; 5984 : 	case ITEMGET(12,36):	return 20;

  00173	b8 14 00 00 00	 mov	 eax, 20			; 00000014H
  00178	5e		 pop	 esi

; 5993 : }

  00179	c3		 ret	 0
$LN41@GetDetailI:
  0017a	5f		 pop	 edi

; 5985 : 	case ITEMGET(12,37):	return 21;

  0017b	b8 15 00 00 00	 mov	 eax, 21			; 00000015H
  00180	5e		 pop	 esi

; 5993 : }

  00181	c3		 ret	 0
$LN42@GetDetailI:
  00182	5f		 pop	 edi

; 5986 : 	case ITEMGET(12,38):	return 22;

  00183	b8 16 00 00 00	 mov	 eax, 22			; 00000016H
  00188	5e		 pop	 esi

; 5993 : }

  00189	c3		 ret	 0
$LN43@GetDetailI:
  0018a	5f		 pop	 edi

; 5987 : 	case ITEMGET(12,39):	return 23;

  0018b	b8 17 00 00 00	 mov	 eax, 23			; 00000017H
  00190	5e		 pop	 esi

; 5993 : }

  00191	c3		 ret	 0
$LN44@GetDetailI:
  00192	5f		 pop	 edi

; 5988 : 	case ITEMGET(12,40):	return 24;

  00193	b8 18 00 00 00	 mov	 eax, 24			; 00000018H
  00198	5e		 pop	 esi

; 5993 : }

  00199	c3		 ret	 0
$LN45@GetDetailI:
  0019a	5f		 pop	 edi

; 5989 : 	case ITEMGET(12,43):	return 25;

  0019b	b8 19 00 00 00	 mov	 eax, 25			; 00000019H
  001a0	5e		 pop	 esi

; 5993 : }

  001a1	c3		 ret	 0
$LN5@GetDetailI:
  001a2	5f		 pop	 edi

; 5990 : 	}
; 5991 : 	
; 5992 : 	return -1;

  001a3	83 c8 ff	 or	 eax, -1
  001a6	5e		 pop	 esi

; 5993 : }

  001a7	c3		 ret	 0
$LN67@GetDetailI:
  001a8	00 00 00 00	 DD	 $LN40@GetDetailI
  001ac	00 00 00 00	 DD	 $LN41@GetDetailI
  001b0	00 00 00 00	 DD	 $LN42@GetDetailI
  001b4	00 00 00 00	 DD	 $LN43@GetDetailI
  001b8	00 00 00 00	 DD	 $LN44@GetDetailI
  001bc	00 00 00 00	 DD	 $LN5@GetDetailI
  001c0	00 00 00 00	 DD	 $LN5@GetDetailI
  001c4	00 00 00 00	 DD	 $LN45@GetDetailI
?GetDetailItemType@CItem@@QAEHXZ ENDP			; CItem::GetDetailItemType
_TEXT	ENDS
; Function compile flags: /Ogtp
; File c:\users\michel\desktop\source\gameserver\common\zzzitem.cpp
;	COMDAT ?IsFullExcellent@CItem@@QAE_NXZ
_TEXT	SEGMENT
?IsFullExcellent@CItem@@QAE_NXZ PROC			; CItem::IsFullExcellent, COMDAT
; _this$ = ecx

; 5874 : bool CItem::IsFullExcellent() {

  00000	53		 push	 ebx

; 5878 : 		if((m_NewOption >> i) & 1) {

  00001	8a 99 93 00 00
	00		 mov	 bl, BYTE PTR [ecx+147]
  00007	56		 push	 esi
  00008	33 f6		 xor	 esi, esi
  0000a	33 c0		 xor	 eax, eax
  0000c	0f 1f 40 00	 npad	 4
$LL4@IsFullExce:
  00010	8a d3		 mov	 dl, bl
  00012	8a c8		 mov	 cl, al
  00014	d2 ea		 shr	 dl, cl
  00016	f6 c2 01	 test	 dl, 1
  00019	74 01		 je	 SHORT $LN2@IsFullExce

; 5879 : 			ExcellentCount++;

  0001b	46		 inc	 esi
$LN2@IsFullExce:

; 5875 : 	int ExcellentCount = 0;
; 5876 : 
; 5877 : 	for (int i = 0; i < 6; i++) {

  0001c	40		 inc	 eax
  0001d	83 f8 06	 cmp	 eax, 6
  00020	7c ee		 jl	 SHORT $LL4@IsFullExce

; 5880 : 		}
; 5881 : 	}
; 5882 : 
; 5883 : 	if (ExcellentCount >= 5) {

  00022	83 fe 05	 cmp	 esi, 5
  00025	5e		 pop	 esi
  00026	0f 9d c0	 setge	 al
  00029	5b		 pop	 ebx

; 5884 : 		return true;
; 5885 : 	}
; 5886 : 
; 5887 : 	return false;
; 5888 : }

  0002a	c3		 ret	 0
?IsFullExcellent@CItem@@QAE_NXZ ENDP			; CItem::IsFullExcellent
_TEXT	ENDS
; Function compile flags: /Ogtp
; File c:\users\michel\desktop\source\gameserver\common\zzzitem.cpp
;	COMDAT ?IsFullAncient@CItem@@QAEHXZ
_TEXT	SEGMENT
?IsFullAncient@CItem@@QAEHXZ PROC			; CItem::IsFullAncient, COMDAT
; _this$ = ecx

; 5864 : 	if( m_SetOption & 3 )

  00000	f6 81 aa 00 00
	00 03		 test	 BYTE PTR [ecx+170], 3
  00007	74 16		 je	 SHORT $LN3@IsFullAnci

; 5865 : 	{
; 5866 : 		if( m_Level >= 15 && m_Option3 == 7 )

  00009	66 83 79 08 0f	 cmp	 WORD PTR [ecx+8], 15	; 0000000fH
  0000e	7c 0f		 jl	 SHORT $LN3@IsFullAnci
  00010	80 b9 92 00 00
	00 07		 cmp	 BYTE PTR [ecx+146], 7
  00017	75 06		 jne	 SHORT $LN3@IsFullAnci

; 5867 : 		{
; 5868 : 			return TRUE;

  00019	b8 01 00 00 00	 mov	 eax, 1

; 5872 : }

  0001e	c3		 ret	 0
$LN3@IsFullAnci:

; 5869 : 		}
; 5870 : 	}
; 5871 : return FALSE;

  0001f	33 c0		 xor	 eax, eax

; 5872 : }

  00021	c3		 ret	 0
?IsFullAncient@CItem@@QAEHXZ ENDP			; CItem::IsFullAncient
_TEXT	ENDS
; Function compile flags: /Ogtp
; File c:\users\michel\desktop\source\gameserver\common\zzzitem.cpp
;	COMDAT ?GetExcOptCount@CItem@@QAEHXZ
_TEXT	SEGMENT
?GetExcOptCount@CItem@@QAEHXZ PROC			; CItem::GetExcOptCount, COMDAT
; _this$ = ecx

; 5837 : {

  00000	8b c1		 mov	 eax, ecx

; 5838 : 	if( (m_NewOption & 0x7F) == 0 )

  00002	8a 88 93 00 00
	00		 mov	 cl, BYTE PTR [eax+147]
  00008	f6 c1 7f	 test	 cl, 127			; 0000007fH
  0000b	75 03		 jne	 SHORT $LN5@GetExcOptC

; 5839 : 		return 0;

  0000d	33 c0		 xor	 eax, eax

; 5857 : 		}
; 5858 : 	}
; 5859 : return count;
; 5860 : }

  0000f	c3		 ret	 0
$LN5@GetExcOptC:

; 5840 : 
; 5841 : 	int excop = m_NewOption;
; 5842 : 
; 5843 : 	if( m_Type >= ITEMGET(12,0) && m_Type <= ITEMGET(12,6) )

  00010	0f b7 40 06	 movzx	 eax, WORD PTR [eax+6]
  00014	ba 00 18 00 00	 mov	 edx, 6144		; 00001800H
  00019	0f b6 c9	 movzx	 ecx, cl
  0001c	66 3b c2	 cmp	 ax, dx
  0001f	7c 0d		 jl	 SHORT $LN6@GetExcOptC
  00021	ba 06 18 00 00	 mov	 edx, 6150		; 00001806H
  00026	66 3b c2	 cmp	 ax, dx
  00029	7f 03		 jg	 SHORT $LN6@GetExcOptC

; 5844 : 		excop &= 0x1F;

  0002b	83 e1 1f	 and	 ecx, 31			; 0000001fH
$LN6@GetExcOptC:

; 5845 : 
; 5846 : 	if( m_Type >= ITEMGET(12,36) && m_Type <= ITEMGET(12,40) )

  0002e	ba 24 18 00 00	 mov	 edx, 6180		; 00001824H
  00033	66 3b c2	 cmp	 ax, dx
  00036	7c 0d		 jl	 SHORT $LN7@GetExcOptC
  00038	ba 28 18 00 00	 mov	 edx, 6184		; 00001828H
  0003d	66 3b c2	 cmp	 ax, dx
  00040	7f 03		 jg	 SHORT $LN7@GetExcOptC

; 5847 : 		excop &= 0x0F;

  00042	83 e1 0f	 and	 ecx, 15			; 0000000fH
$LN7@GetExcOptC:

; 5848 : 
; 5849 : 	int count = 0;

  00045	33 c0		 xor	 eax, eax

; 5850 : 
; 5851 : 	for(int i = 0; i < 6; i++)
; 5852 : 	{
; 5853 : 		if(excop & (1 << i))

  00047	f6 c1 01	 test	 cl, 1
  0004a	74 06		 je	 SHORT $LN2@GetExcOptC

; 5854 : 		{
; 5855 : 			excop -= (1 << i);

  0004c	49		 dec	 ecx

; 5856 : 			count++;

  0004d	b8 01 00 00 00	 mov	 eax, 1
$LN2@GetExcOptC:

; 5850 : 
; 5851 : 	for(int i = 0; i < 6; i++)
; 5852 : 	{
; 5853 : 		if(excop & (1 << i))

  00052	f6 c1 02	 test	 cl, 2
  00055	74 04		 je	 SHORT $LN17@GetExcOptC

; 5854 : 		{
; 5855 : 			excop -= (1 << i);

  00057	83 e9 02	 sub	 ecx, 2

; 5856 : 			count++;

  0005a	40		 inc	 eax
$LN17@GetExcOptC:

; 5850 : 
; 5851 : 	for(int i = 0; i < 6; i++)
; 5852 : 	{
; 5853 : 		if(excop & (1 << i))

  0005b	f6 c1 04	 test	 cl, 4
  0005e	74 04		 je	 SHORT $LN19@GetExcOptC

; 5854 : 		{
; 5855 : 			excop -= (1 << i);

  00060	83 e9 04	 sub	 ecx, 4

; 5856 : 			count++;

  00063	40		 inc	 eax
$LN19@GetExcOptC:

; 5850 : 
; 5851 : 	for(int i = 0; i < 6; i++)
; 5852 : 	{
; 5853 : 		if(excop & (1 << i))

  00064	f6 c1 08	 test	 cl, 8
  00067	74 04		 je	 SHORT $LN21@GetExcOptC

; 5854 : 		{
; 5855 : 			excop -= (1 << i);

  00069	83 e9 08	 sub	 ecx, 8

; 5856 : 			count++;

  0006c	40		 inc	 eax
$LN21@GetExcOptC:

; 5850 : 
; 5851 : 	for(int i = 0; i < 6; i++)
; 5852 : 	{
; 5853 : 		if(excop & (1 << i))

  0006d	f6 c1 10	 test	 cl, 16			; 00000010H
  00070	74 04		 je	 SHORT $LN23@GetExcOptC

; 5854 : 		{
; 5855 : 			excop -= (1 << i);

  00072	83 e9 10	 sub	 ecx, 16			; 00000010H

; 5856 : 			count++;

  00075	40		 inc	 eax
$LN23@GetExcOptC:

; 5850 : 
; 5851 : 	for(int i = 0; i < 6; i++)
; 5852 : 	{
; 5853 : 		if(excop & (1 << i))

  00076	f6 c1 20	 test	 cl, 32			; 00000020H
  00079	74 01		 je	 SHORT $LN1@GetExcOptC

; 5856 : 			count++;

  0007b	40		 inc	 eax
$LN1@GetExcOptC:

; 5857 : 		}
; 5858 : 	}
; 5859 : return count;
; 5860 : }

  0007c	c3		 ret	 0
?GetExcOptCount@CItem@@QAEHXZ ENDP			; CItem::GetExcOptCount
_TEXT	ENDS
; Function compile flags: /Ogtp
; File c:\users\michel\desktop\source\gameserver\common\zzzitem.cpp
;	COMDAT ?InitSocketItem@CItem@@QAEXE@Z
_TEXT	SEGMENT
_btCount$ = 8						; size = 1
?InitSocketItem@CItem@@QAEXE@Z PROC			; CItem::InitSocketItem, COMDAT
; _this$ = ecx

; 4111 : {

  00000	55		 push	 ebp
  00001	8b ec		 mov	 ebp, esp
  00003	56		 push	 esi
  00004	8b f1		 mov	 esi, ecx

; 4112 : 	if( g_SocketItem.IsSocketItem(this) == FALSE )

  00006	b9 00 00 00 00	 mov	 ecx, OFFSET ?g_SocketItem@@3VCSocketItems@@A ; g_SocketItem
  0000b	56		 push	 esi
  0000c	e8 00 00 00 00	 call	 ?IsSocketItem@CSocketItems@@QAE_NPAVCItem@@@Z ; CSocketItems::IsSocketItem
  00011	84 c0		 test	 al, al
  00013	74 2a		 je	 SHORT $LN1@InitSocket

; 4113 : 	{
; 4114 : 		return;
; 4115 : 	}
; 4116 : 
; 4117 : 	for(int n = 0; n < btCount; n++)

  00015	0f b6 4d 08	 movzx	 ecx, BYTE PTR _btCount$[ebp]
  00019	85 c9		 test	 ecx, ecx
  0001b	7e 1b		 jle	 SHORT $LN4@InitSocket
  0001d	8b d1		 mov	 edx, ecx
  0001f	b8 fe fe fe fe	 mov	 eax, -16843010		; fefefefeH
  00024	57		 push	 edi
  00025	c1 e9 02	 shr	 ecx, 2
  00028	8d be c8 00 00
	00		 lea	 edi, DWORD PTR [esi+200]
  0002e	f3 ab		 rep stosd
  00030	8b ca		 mov	 ecx, edx
  00032	83 e1 03	 and	 ecx, 3
  00035	f3 aa		 rep stosb
  00037	5f		 pop	 edi
$LN4@InitSocket:

; 4118 : 	{
; 4119 : 		m_SocketOption[n] = 0xFE;
; 4120 : 	}
; 4121 : 
; 4122 : 	m_SocketBonus = 0xFF;

  00038	c6 86 c7 00 00
	00 ff		 mov	 BYTE PTR [esi+199], 255	; 000000ffH
$LN1@InitSocket:
  0003f	5e		 pop	 esi

; 4123 : }

  00040	5d		 pop	 ebp
  00041	c2 04 00	 ret	 4
?InitSocketItem@CItem@@QAEXE@Z ENDP			; CItem::InitSocketItem
_TEXT	ENDS
; Function compile flags: /Ogtp
; File c:\users\michel\desktop\source\gameserver\common\zzzitem.cpp
;	COMDAT ?CheckDurabilityState@CItem@@QAEHXZ
_TEXT	SEGMENT
?CheckDurabilityState@CItem@@QAEHXZ PROC		; CItem::CheckDurabilityState, COMDAT
; _this$ = ecx

; 4059 : 	if ( m_Durability == 0.0f )

  00000	f3 0f 10 49 24	 movss	 xmm1, DWORD PTR [ecx+36]
  00005	0f 57 d2	 xorps	 xmm2, xmm2
  00008	0f 2e ca	 ucomiss xmm1, xmm2
  0000b	9f		 lahf
  0000c	f6 c4 44	 test	 ah, 68			; 00000044H
  0000f	7a 6c		 jp	 SHORT $LN2@CheckDurab

; 4060 : 	{
; 4061 : 		if ( m_CurrentDurabilityState != 1.0f )

  00011	f3 0f 10 81 a4
	00 00 00	 movss	 xmm0, DWORD PTR [ecx+164]
  00019	0f 2e 05 00 00
	00 00		 ucomiss xmm0, DWORD PTR __real@3f800000
  00020	9f		 lahf
  00021	f6 c4 44	 test	 ah, 68			; 00000044H
  00024	0f 8b ff 00 00
	00		 jnp	 $LN14@CheckDurab

; 4062 : 		{
; 4063 : 			m_CurrentDurabilityState = 1.0f;

  0002a	c7 81 a4 00 00
	00 00 00 80 3f	 mov	 DWORD PTR [ecx+164], 1065353216 ; 3f800000H
$LN16@CheckDurab:

; 4064 : 			Convert(m_Type, m_Option1, m_Option2, m_Option3, m_NewOption,

  00034	0f b6 81 c6 00
	00 00		 movzx	 eax, BYTE PTR [ecx+198]
  0003b	6a 03		 push	 3
  0003d	68 ff 00 00 00	 push	 255			; 000000ffH
  00042	6a 00		 push	 0
  00044	50		 push	 eax
  00045	0f b6 81 aa 00
	00 00		 movzx	 eax, BYTE PTR [ecx+170]
  0004c	50		 push	 eax
  0004d	0f b6 81 93 00
	00 00		 movzx	 eax, BYTE PTR [ecx+147]
  00054	50		 push	 eax
  00055	0f b6 81 92 00
	00 00		 movzx	 eax, BYTE PTR [ecx+146]
  0005c	50		 push	 eax
  0005d	0f b6 81 91 00
	00 00		 movzx	 eax, BYTE PTR [ecx+145]
  00064	50		 push	 eax
  00065	0f b6 81 90 00
	00 00		 movzx	 eax, BYTE PTR [ecx+144]
  0006c	50		 push	 eax
  0006d	0f bf 41 06	 movsx	 eax, WORD PTR [ecx+6]
  00071	50		 push	 eax
  00072	e8 00 00 00 00	 call	 ?Convert@CItem@@QAEXHEEEEEEPAEEE@Z ; CItem::Convert

; 4065 : 				m_SetOption, m_ItemOptionEx, 0,-1,CURRENT_DB_VERSION);
; 4066 : 			return true;

  00077	b8 01 00 00 00	 mov	 eax, 1

; 4108 : }

  0007c	c3		 ret	 0
$LN2@CheckDurab:

; 4067 : 		}
; 4068 : 	}
; 4069 : 	else if ( m_Durability < m_DurabilityState[2] )

  0007d	f3 0f 10 81 9c
	00 00 00	 movss	 xmm0, DWORD PTR [ecx+156]
  00085	0f 2f c1	 comiss	 xmm0, xmm1
  00088	76 25		 jbe	 SHORT $LN5@CheckDurab

; 4070 : 	{
; 4071 : 		if ( m_CurrentDurabilityState != 0.5f )

  0008a	f3 0f 10 81 a4
	00 00 00	 movss	 xmm0, DWORD PTR [ecx+164]
  00092	0f 2e 05 00 00
	00 00		 ucomiss xmm0, DWORD PTR __real@3f000000
  00099	9f		 lahf
  0009a	f6 c4 44	 test	 ah, 68			; 00000044H
  0009d	0f 8b 86 00 00
	00		 jnp	 $LN14@CheckDurab

; 4072 : 		{
; 4073 : 			m_CurrentDurabilityState = 0.5f;

  000a3	c7 81 a4 00 00
	00 00 00 00 3f	 mov	 DWORD PTR [ecx+164], 1056964608 ; 3f000000H

; 4074 : 			Convert(m_Type, m_Option1, m_Option2, m_Option3, m_NewOption,
; 4075 : 				m_SetOption,m_ItemOptionEx, 0,-1,CURRENT_DB_VERSION);
; 4076 : 			return true;

  000ad	eb 85		 jmp	 SHORT $LN16@CheckDurab
$LN5@CheckDurab:

; 4077 : 		}
; 4078 : 	}
; 4079 : 	else if ( m_Durability < m_DurabilityState[1] )

  000af	f3 0f 10 81 98
	00 00 00	 movss	 xmm0, DWORD PTR [ecx+152]
  000b7	0f 2f c1	 comiss	 xmm0, xmm1
  000ba	76 24		 jbe	 SHORT $LN8@CheckDurab

; 4080 : 	{
; 4081 : 		if ( m_CurrentDurabilityState != 0.3f )

  000bc	f3 0f 10 81 a4
	00 00 00	 movss	 xmm0, DWORD PTR [ecx+164]
  000c4	0f 2e 05 00 00
	00 00		 ucomiss xmm0, DWORD PTR __real@3e99999a
  000cb	9f		 lahf
  000cc	f6 c4 44	 test	 ah, 68			; 00000044H
  000cf	7b 58		 jnp	 SHORT $LN14@CheckDurab

; 4082 : 		{
; 4083 : 			m_CurrentDurabilityState = 0.3f;

  000d1	c7 81 a4 00 00
	00 9a 99 99 3e	 mov	 DWORD PTR [ecx+164], 1050253722 ; 3e99999aH

; 4084 : 			Convert(m_Type, m_Option1, m_Option2, m_Option3, m_NewOption,
; 4085 : 				m_SetOption,m_ItemOptionEx, 0,-1,CURRENT_DB_VERSION);
; 4086 : 			return true;

  000db	e9 54 ff ff ff	 jmp	 $LN16@CheckDurab
$LN8@CheckDurab:

; 4087 : 		}
; 4088 : 	}
; 4089 : 	else if ( m_Durability < m_DurabilityState[0] )

  000e0	f3 0f 10 81 94
	00 00 00	 movss	 xmm0, DWORD PTR [ecx+148]
  000e8	0f 2f c1	 comiss	 xmm0, xmm1

; 4090 : 	{
; 4091 : 		if ( m_CurrentDurabilityState != 0.2f )

  000eb	f3 0f 10 81 a4
	00 00 00	 movss	 xmm0, DWORD PTR [ecx+164]
  000f3	76 1c		 jbe	 SHORT $LN11@CheckDurab
  000f5	0f 2e 05 00 00
	00 00		 ucomiss xmm0, DWORD PTR __real@3e4ccccd
  000fc	9f		 lahf
  000fd	f6 c4 44	 test	 ah, 68			; 00000044H
  00100	7b 27		 jnp	 SHORT $LN14@CheckDurab

; 4092 : 		{
; 4093 : 			m_CurrentDurabilityState = 0.2f;

  00102	c7 81 a4 00 00
	00 cd cc 4c 3e	 mov	 DWORD PTR [ecx+164], 1045220557 ; 3e4ccccdH

; 4094 : 			Convert(m_Type, m_Option1, m_Option2, m_Option3, m_NewOption,
; 4095 : 				m_SetOption,m_ItemOptionEx, 0,-1,CURRENT_DB_VERSION);
; 4096 : 			return true;

  0010c	e9 23 ff ff ff	 jmp	 $LN16@CheckDurab
$LN11@CheckDurab:

; 4097 : 		}
; 4098 : 	}
; 4099 : 	else if ( m_CurrentDurabilityState != 0.0f )

  00111	0f 2e c2	 ucomiss xmm0, xmm2
  00114	9f		 lahf
  00115	f6 c4 44	 test	 ah, 68			; 00000044H
  00118	7b 0f		 jnp	 SHORT $LN14@CheckDurab

; 4100 : 	{
; 4101 : 		m_CurrentDurabilityState = 0;

  0011a	c7 81 a4 00 00
	00 00 00 00 00	 mov	 DWORD PTR [ecx+164], 0

; 4102 : 		Convert(m_Type, m_Option1, m_Option2, m_Option3, m_NewOption,
; 4103 : 			m_SetOption,m_ItemOptionEx, 0,-1,CURRENT_DB_VERSION);
; 4104 : 		return true;

  00124	e9 0b ff ff ff	 jmp	 $LN16@CheckDurab
$LN14@CheckDurab:

; 4105 : 	}
; 4106 : 
; 4107 : 	return false;

  00129	33 c0		 xor	 eax, eax

; 4108 : }

  0012b	c3		 ret	 0
?CheckDurabilityState@CItem@@QAEHXZ ENDP		; CItem::CheckDurabilityState
_TEXT	ENDS
; Function compile flags: /Ogtp
; File c:\users\michel\desktop\source\gameserver\common\zzzitem.cpp
;	COMDAT ?ArmorDurabilityDown@CItem@@QAEHHH@Z
_TEXT	SEGMENT
tv161 = -8						; size = 4
_plusdef$ = -4						; size = 4
_DecreaseDur$ = 8					; size = 4
_damagemin$ = 8						; size = 4
_aIndex$ = 12						; size = 4
?ArmorDurabilityDown@CItem@@QAEHHH@Z PROC		; CItem::ArmorDurabilityDown, COMDAT
; _this$ = ecx

; 3961 : {

  00000	55		 push	 ebp
  00001	8b ec		 mov	 ebp, esp
  00003	83 ec 08	 sub	 esp, 8
  00006	56		 push	 esi
  00007	8b f1		 mov	 esi, ecx
  00009	0f 57 c9	 xorps	 xmm1, xmm1

; 3962 : 	if ( m_Durability <= 0 )

  0000c	f3 0f 10 56 24	 movss	 xmm2, DWORD PTR [esi+36]
  00011	0f 2f ca	 comiss	 xmm1, xmm2
  00014	f3 0f 11 55 f8	 movss	 DWORD PTR tv161[ebp], xmm2
  00019	72 09		 jb	 SHORT $LN2@ArmorDurab
$LN29@ArmorDurab:

; 3963 : 	{
; 3964 : 		return 0;

  0001b	33 c0		 xor	 eax, eax
  0001d	5e		 pop	 esi

; 4051 : }

  0001e	8b e5		 mov	 esp, ebp
  00020	5d		 pop	 ebp
  00021	c2 08 00	 ret	 8
$LN2@ArmorDurab:

; 3965 : 	}
; 3966 : 
; 3967 : 	if ( m_Type == -1 )

  00024	0f b7 46 06	 movzx	 eax, WORD PTR [esi+6]
  00028	66 83 f8 ff	 cmp	 ax, -1
  0002c	74 ed		 je	 SHORT $LN29@ArmorDurab

; 3968 : 	{
; 3969 : 		return 0;
; 3970 : 	}
; 3971 : 
; 3972 : 	int def = m_DefenseOrigin;

  0002e	57		 push	 edi
  0002f	0f b7 7e 1e	 movzx	 edi, WORD PTR [esi+30]

; 3973 : 	int plusdef = 0;

  00033	c7 45 fc 00 00
	00 00		 mov	 DWORD PTR _plusdef$[ebp], 0

; 3974 : 	int DecreaseDur;
; 3975 : 
; 3976 : 	if ( def == 0 )

  0003a	85 ff		 test	 edi, edi
  0003c	75 18		 jne	 SHORT $LN4@ArmorDurab

; 3977 : 	{
; 3978 : 		LogAdd("def 0");

  0003e	68 00 00 00 00	 push	 OFFSET ??_C@_0M@ELCONOFE@def?$MA?L?50?$MA?L?$LE?Y?$AA@
  00043	ff 15 00 00 00
	00		 call	 DWORD PTR ?LogAdd@@3P6AXPADZZA ; LogAdd
  00049	83 c4 04	 add	 esp, 4
$LN21@ArmorDurab:

; 4043 : 		{
; 4044 : 			return 2;
; 4045 : 		}
; 4046 : 		
; 4047 : 		return 1;
; 4048 : 		
; 4049 : 	}
; 4050 : 	return 0;

  0004c	5f		 pop	 edi
  0004d	33 c0		 xor	 eax, eax
  0004f	5e		 pop	 esi

; 4051 : }

  00050	8b e5		 mov	 esp, ebp
  00052	5d		 pop	 ebp
  00053	c2 08 00	 ret	 8
$LN4@ArmorDurab:

; 3979 : 		return 0;
; 3980 : 	}
; 3981 : 
; 3982 : 	if ( m_Type >= ITEMGET(6,0) && m_Type < ITEMGET(7,0) )

  00056	b9 00 0c 00 00	 mov	 ecx, 3072		; 00000c00H
  0005b	66 3b c1	 cmp	 ax, cx
  0005e	7c 2f		 jl	 SHORT $LN5@ArmorDurab
  00060	b9 00 0e 00 00	 mov	 ecx, 3584		; 00000e00H
  00065	66 3b c1	 cmp	 ax, cx
  00068	7d 25		 jge	 SHORT $LN5@ArmorDurab

; 3983 : 	{
; 3984 : 		PlusSpecial(&plusdef, 82);

  0006a	6a 52		 push	 82			; 00000052H
  0006c	8d 45 fc	 lea	 eax, DWORD PTR _plusdef$[ebp]
  0006f	8b ce		 mov	 ecx, esi
  00071	50		 push	 eax
  00072	e8 00 00 00 00	 call	 ?PlusSpecial@CItem@@QAEXPAHH@Z ; CItem::PlusSpecial

; 3985 : 		DecreaseDur = damagemin/(def * 5+ plusdef);

  00077	8b 45 fc	 mov	 eax, DWORD PTR _plusdef$[ebp]

; 4015 : 		DecreaseDur = damagemin/(def * 3 + plusdef);

  0007a	f3 0f 10 55 f8	 movss	 xmm2, DWORD PTR tv161[ebp]
  0007f	8d 0c b8	 lea	 ecx, DWORD PTR [eax+edi*4]
  00082	8b 45 08	 mov	 eax, DWORD PTR _damagemin$[ebp]
  00085	03 cf		 add	 ecx, edi
  00087	99		 cdq
  00088	f7 f9		 idiv	 ecx
  0008a	e9 c3 00 00 00	 jmp	 $LN19@ArmorDurab
$LN5@ArmorDurab:

; 3986 : 	}
; 3987 : 	else if ( m_RequireClass[0] != 0 )	// Dark Wize

  0008f	80 7e 60 00	 cmp	 BYTE PTR [esi+96], 0
  00093	0f 85 8e 00 00
	00		 jne	 $LN27@ArmorDurab

; 3988 : 	{
; 3989 : 		PlusSpecial(&plusdef, 83);
; 3990 : 		DecreaseDur = damagemin/(def * 3 + plusdef);
; 3991 : 	}
; 3992 : 	else if ( m_RequireClass[1] != 0 )	// Dark Knight

  00099	80 7e 61 00	 cmp	 BYTE PTR [esi+97], 0
  0009d	0f 85 84 00 00
	00		 jne	 $LN27@ArmorDurab

; 3993 : 	{
; 3994 : 		PlusSpecial(&plusdef, 83);
; 3995 : 		DecreaseDur = damagemin/(def * 3 + plusdef);
; 3996 : 	}
; 3997 : 	else if ( m_RequireClass[2] != 0 )	// Elf

  000a3	80 7e 62 00	 cmp	 BYTE PTR [esi+98], 0
  000a7	74 23		 je	 SHORT $LN11@ArmorDurab

; 3998 : 	{
; 3999 : 		PlusSpecial(&plusdef, 83);

  000a9	6a 53		 push	 83			; 00000053H
  000ab	8d 45 fc	 lea	 eax, DWORD PTR _plusdef$[ebp]
  000ae	8b ce		 mov	 ecx, esi
  000b0	50		 push	 eax
  000b1	e8 00 00 00 00	 call	 ?PlusSpecial@CItem@@QAEXPAHH@Z ; CItem::PlusSpecial

; 4000 : 		DecreaseDur = damagemin/(def * 2 + plusdef);

  000b6	8b 45 fc	 mov	 eax, DWORD PTR _plusdef$[ebp]
  000b9	f3 0f 10 55 f8	 movss	 xmm2, DWORD PTR tv161[ebp]
  000be	8d 0c 78	 lea	 ecx, DWORD PTR [eax+edi*2]
  000c1	8b 45 08	 mov	 eax, DWORD PTR _damagemin$[ebp]
  000c4	99		 cdq
  000c5	f7 f9		 idiv	 ecx
  000c7	e9 86 00 00 00	 jmp	 $LN19@ArmorDurab
$LN11@ArmorDurab:

; 4001 : 	}
; 4002 : 	else if ( m_RequireClass[3] != 0 )	// MAgic Gladiator ( aka Magunsa )

  000cc	80 7e 63 00	 cmp	 BYTE PTR [esi+99], 0
  000d0	74 26		 je	 SHORT $LN13@ArmorDurab

; 4003 : 	{
; 4004 : 		PlusSpecial(&plusdef, 83);

  000d2	6a 53		 push	 83			; 00000053H
  000d4	8d 45 fc	 lea	 eax, DWORD PTR _plusdef$[ebp]
  000d7	8b ce		 mov	 ecx, esi
  000d9	50		 push	 eax
  000da	e8 00 00 00 00	 call	 ?PlusSpecial@CItem@@QAEXPAHH@Z ; CItem::PlusSpecial

; 4005 : 		DecreaseDur = damagemin/(def * 7 + plusdef);

  000df	8b 45 08	 mov	 eax, DWORD PTR _damagemin$[ebp]
  000e2	8d 0c fd 00 00
	00 00		 lea	 ecx, DWORD PTR [edi*8]
  000e9	f3 0f 10 55 f8	 movss	 xmm2, DWORD PTR tv161[ebp]
  000ee	2b cf		 sub	 ecx, edi
  000f0	03 4d fc	 add	 ecx, DWORD PTR _plusdef$[ebp]
  000f3	99		 cdq
  000f4	f7 f9		 idiv	 ecx
  000f6	eb 5a		 jmp	 SHORT $LN19@ArmorDurab
$LN13@ArmorDurab:

; 4006 : 	}
; 4007 : 	else if ( m_RequireClass[4] != 0 )	// Dark Lord

  000f8	80 7e 64 00	 cmp	 BYTE PTR [esi+100], 0
  000fc	74 23		 je	 SHORT $LN15@ArmorDurab

; 4008 : 	{
; 4009 : 		PlusSpecial(&plusdef, 83);

  000fe	6a 53		 push	 83			; 00000053H
  00100	8d 45 fc	 lea	 eax, DWORD PTR _plusdef$[ebp]
  00103	8b ce		 mov	 ecx, esi
  00105	50		 push	 eax
  00106	e8 00 00 00 00	 call	 ?PlusSpecial@CItem@@QAEXPAHH@Z ; CItem::PlusSpecial

; 4010 : 		DecreaseDur = damagemin/(def * 6 + plusdef);

  0010b	8b 45 fc	 mov	 eax, DWORD PTR _plusdef$[ebp]
  0010e	8d 0c 7f	 lea	 ecx, DWORD PTR [edi+edi*2]
  00111	f3 0f 10 55 f8	 movss	 xmm2, DWORD PTR tv161[ebp]
  00116	8d 0c 48	 lea	 ecx, DWORD PTR [eax+ecx*2]
  00119	8b 45 08	 mov	 eax, DWORD PTR _damagemin$[ebp]
  0011c	99		 cdq
  0011d	f7 f9		 idiv	 ecx
  0011f	eb 31		 jmp	 SHORT $LN19@ArmorDurab
$LN15@ArmorDurab:

; 4011 : 	}
; 4012 : 	else if ( m_RequireClass[5] != 0 )

  00121	80 7e 65 00	 cmp	 BYTE PTR [esi+101], 0
  00125	74 22		 je	 SHORT $LN17@ArmorDurab
$LN27@ArmorDurab:

; 4013 : 	{
; 4014 : 		PlusSpecial(&plusdef, 83);

  00127	6a 53		 push	 83			; 00000053H
  00129	8d 45 fc	 lea	 eax, DWORD PTR _plusdef$[ebp]
  0012c	8b ce		 mov	 ecx, esi
  0012e	50		 push	 eax
  0012f	e8 00 00 00 00	 call	 ?PlusSpecial@CItem@@QAEXPAHH@Z ; CItem::PlusSpecial

; 4015 : 		DecreaseDur = damagemin/(def * 3 + plusdef);

  00134	8b 45 fc	 mov	 eax, DWORD PTR _plusdef$[ebp]
  00137	f3 0f 10 55 f8	 movss	 xmm2, DWORD PTR tv161[ebp]
  0013c	8d 0c 78	 lea	 ecx, DWORD PTR [eax+edi*2]
  0013f	8b 45 08	 mov	 eax, DWORD PTR _damagemin$[ebp]
  00142	03 cf		 add	 ecx, edi
  00144	99		 cdq
  00145	f7 f9		 idiv	 ecx
  00147	eb 09		 jmp	 SHORT $LN19@ArmorDurab
$LN17@ArmorDurab:

; 4016 : 	}
; 4017 : 	else if ( m_RequireClass[6] != 0 )

  00149	80 7e 66 00	 cmp	 BYTE PTR [esi+102], 0
  0014d	75 d8		 jne	 SHORT $LN27@ArmorDurab

; 4018 : 	{
; 4019 : 		PlusSpecial(&plusdef, 83);
; 4020 : 		DecreaseDur = damagemin/(def * 3 + plusdef);

  0014f	8b 45 08	 mov	 eax, DWORD PTR _DecreaseDur$[ebp]
$LN19@ArmorDurab:

; 4021 : 	}
; 4022 : 
; 4023 : 	m_DurabilitySmall += DecreaseDur;
; 4024 : 
; 4025 : 	int DurCheck = 69;
; 4026 : 
; 4027 : 	if ( gObj[aIndex].m_MPSkillOpt.MpsDownDur1 > 0.0f )

  00152	69 4d 0c 40 27
	00 00		 imul	 ecx, DWORD PTR _aIndex$[ebp], 10048
  00159	ba 45 00 00 00	 mov	 edx, 69			; 00000045H
  0015e	66 01 46 28	 add	 WORD PTR [esi+40], ax
  00162	a1 00 00 00 00	 mov	 eax, DWORD PTR ?gObj@@3PAUOBJECTSTRUCT@@A ; gObj
  00167	66 8b 7e 28	 mov	 di, WORD PTR [esi+40]
  0016b	f3 0f 10 8c 01
	c8 06 00 00	 movss	 xmm1, DWORD PTR [ecx+eax+1736]
  00174	0f 2f 0d 00 00
	00 00		 comiss	 xmm1, DWORD PTR __real@00000000
  0017b	76 1c		 jbe	 SHORT $LN20@ArmorDurab

; 4028 : 	{
; 4029 : 		DurCheck += DurCheck*gObj[aIndex].m_MPSkillOpt.MpsDownDur1/100.0f;

  0017d	f3 0f 59 0d 00
	00 00 00	 mulss	 xmm1, DWORD PTR __real@428a0000
  00185	f3 0f 5e 0d 00
	00 00 00	 divss	 xmm1, DWORD PTR __real@42c80000
  0018d	f3 0f 58 0d 00
	00 00 00	 addss	 xmm1, DWORD PTR __real@428a0000
  00195	f3 0f 2c d1	 cvttss2si edx, xmm1
$LN20@ArmorDurab:

; 4030 : 	}
; 4031 : 
; 4032 : 	if ( m_DurabilitySmall > DurCheck )

  00199	0f b7 c7	 movzx	 eax, di
  0019c	3b c2		 cmp	 eax, edx
  0019e	0f 8e a8 fe ff
	ff		 jle	 $LN21@ArmorDurab

; 4033 : 	{
; 4034 : 		m_DurabilitySmall = 0;
; 4035 : 		m_Durability -= 1.0f;

  001a4	f3 0f 5c 15 00
	00 00 00	 subss	 xmm2, DWORD PTR __real@3f800000
  001ac	33 c0		 xor	 eax, eax
  001ae	0f 57 c9	 xorps	 xmm1, xmm1
  001b1	66 89 46 28	 mov	 WORD PTR [esi+40], ax

; 4036 : 
; 4037 : 		if ( m_Durability < 0.0f )

  001b5	0f 2f ca	 comiss	 xmm1, xmm2
  001b8	f3 0f 11 56 24	 movss	 DWORD PTR [esi+36], xmm2
  001bd	76 03		 jbe	 SHORT $LN22@ArmorDurab

; 4038 : 		{
; 4039 : 			m_Durability = 0;

  001bf	89 46 24	 mov	 DWORD PTR [esi+36], eax
$LN22@ArmorDurab:

; 4040 : 		}
; 4041 : 		
; 4042 : 		if ( CheckDurabilityState() != 0 )

  001c2	8b ce		 mov	 ecx, esi
  001c4	e8 00 00 00 00	 call	 ?CheckDurabilityState@CItem@@QAEHXZ ; CItem::CheckDurabilityState
  001c9	f7 d8		 neg	 eax
  001cb	5f		 pop	 edi
  001cc	1b c0		 sbb	 eax, eax
  001ce	f7 d8		 neg	 eax
  001d0	40		 inc	 eax
  001d1	5e		 pop	 esi

; 4051 : }

  001d2	8b e5		 mov	 esp, ebp
  001d4	5d		 pop	 ebp
  001d5	c2 08 00	 ret	 8
?ArmorDurabilityDown@CItem@@QAEHHH@Z ENDP		; CItem::ArmorDurabilityDown
_TEXT	ENDS
; Function compile flags: /Ogtp
; File c:\users\michel\desktop\source\gameserver\common\zzzitem.cpp
;	COMDAT ?StaffWeaponDurabilityDown@CItem@@QAEHHH@Z
_TEXT	SEGMENT
tv193 = -8						; size = 4
_plusmagic$ = -4					; size = 4
_defence$ = 8						; size = 4
_aIndex$ = 12						; size = 4
?StaffWeaponDurabilityDown@CItem@@QAEHHH@Z PROC		; CItem::StaffWeaponDurabilityDown, COMDAT
; _this$ = ecx

; 3910 : {

  00000	55		 push	 ebp
  00001	8b ec		 mov	 ebp, esp
  00003	83 ec 08	 sub	 esp, 8
  00006	57		 push	 edi
  00007	8b f9		 mov	 edi, ecx
  00009	0f 57 c9	 xorps	 xmm1, xmm1

; 3911 : 	if ( m_Durability <= 0 )

  0000c	f3 0f 10 47 24	 movss	 xmm0, DWORD PTR [edi+36]
  00011	0f 2f c8	 comiss	 xmm1, xmm0
  00014	f3 0f 11 45 f8	 movss	 DWORD PTR tv193[ebp], xmm0
  00019	72 09		 jb	 SHORT $LN2@StaffWeapo

; 3912 : 	{
; 3913 : 		return 0;

  0001b	33 c0		 xor	 eax, eax
  0001d	5f		 pop	 edi

; 3955 : }

  0001e	8b e5		 mov	 esp, ebp
  00020	5d		 pop	 ebp
  00021	c2 08 00	 ret	 8
$LN2@StaffWeapo:

; 3914 : 	}
; 3915 : 
; 3916 : 	int magic = m_Magic/2 + m_Level*2;

  00024	0f b7 4f 20	 movzx	 ecx, WORD PTR [edi+32]
  00028	0f bf 47 08	 movsx	 eax, WORD PTR [edi+8]
  0002c	d1 e9		 shr	 ecx, 1
  0002e	56		 push	 esi

; 3917 : 	int plusmagic = 0;
; 3918 : 	PlusSpecial(&plusmagic, 81);

  0002f	6a 51		 push	 81			; 00000051H
  00031	c7 45 fc 00 00
	00 00		 mov	 DWORD PTR _plusmagic$[ebp], 0
  00038	8d 34 41	 lea	 esi, DWORD PTR [ecx+eax*2]
  0003b	8b cf		 mov	 ecx, edi
  0003d	8d 45 fc	 lea	 eax, DWORD PTR _plusmagic$[ebp]
  00040	50		 push	 eax
  00041	e8 00 00 00 00	 call	 ?PlusSpecial@CItem@@QAEXPAHH@Z ; CItem::PlusSpecial

; 3919 : 	int div = magic + magic/3 + plusmagic;

  00046	b8 56 55 55 55	 mov	 eax, 1431655766		; 55555556H
  0004b	f7 ee		 imul	 esi
  0004d	8b ca		 mov	 ecx, edx
  0004f	c1 e9 1f	 shr	 ecx, 31			; 0000001fH
  00052	03 ca		 add	 ecx, edx
  00054	03 4d fc	 add	 ecx, DWORD PTR _plusmagic$[ebp]
  00057	03 ce		 add	 ecx, esi

; 3920 : 
; 3921 : 	if ( div == 0 )

  00059	0f 84 a8 00 00
	00		 je	 $LN5@StaffWeapo

; 3922 : 	{
; 3923 : 		return 0;
; 3924 : 	}
; 3925 : 
; 3926 : 	int DecreaseDur = defence/div;

  0005f	8b 45 08	 mov	 eax, DWORD PTR _defence$[ebp]
  00062	0f 57 d2	 xorps	 xmm2, xmm2
  00065	99		 cdq
  00066	f7 f9		 idiv	 ecx

; 3927 : 	DecreaseDur -= DecreaseDur * m_BonusDurability / 100;

  00068	0f b6 8f cd 00
	00 00		 movzx	 ecx, BYTE PTR [edi+205]
  0006f	8b f0		 mov	 esi, eax
  00071	b8 1f 85 eb 51	 mov	 eax, 1374389535		; 51eb851fH
  00076	0f af ce	 imul	 ecx, esi
  00079	f7 e9		 imul	 ecx

; 3928 : 	m_DurabilitySmall += DecreaseDur;
; 3929 : 
; 3930 : 	int DurCheck = 1050;
; 3931 : 
; 3932 : 	if ( gObj[aIndex].m_MPSkillOpt.MpsDownDur1 > 0.0f )

  0007b	69 4d 0c 40 27
	00 00		 imul	 ecx, DWORD PTR _aIndex$[ebp], 10048
  00082	c1 fa 05	 sar	 edx, 5
  00085	8b c2		 mov	 eax, edx
  00087	c1 e8 1f	 shr	 eax, 31			; 0000001fH
  0008a	03 c2		 add	 eax, edx
  0008c	ba 1a 04 00 00	 mov	 edx, 1050		; 0000041aH
  00091	2b f0		 sub	 esi, eax
  00093	66 01 77 28	 add	 WORD PTR [edi+40], si
  00097	a1 00 00 00 00	 mov	 eax, DWORD PTR ?gObj@@3PAUOBJECTSTRUCT@@A ; gObj
  0009c	66 8b 77 28	 mov	 si, WORD PTR [edi+40]
  000a0	f3 0f 10 8c 01
	c8 06 00 00	 movss	 xmm1, DWORD PTR [ecx+eax+1736]
  000a9	0f 2f ca	 comiss	 xmm1, xmm2
  000ac	76 1c		 jbe	 SHORT $LN4@StaffWeapo

; 3933 : 	{
; 3934 : 		DurCheck += DurCheck*gObj[aIndex].m_MPSkillOpt.MpsDownDur1/100.0f;

  000ae	f3 0f 59 0d 00
	00 00 00	 mulss	 xmm1, DWORD PTR __real@44834000
  000b6	f3 0f 5e 0d 00
	00 00 00	 divss	 xmm1, DWORD PTR __real@42c80000
  000be	f3 0f 58 0d 00
	00 00 00	 addss	 xmm1, DWORD PTR __real@44834000
  000c6	f3 0f 2c d1	 cvttss2si edx, xmm1
$LN4@StaffWeapo:

; 3935 : 	}
; 3936 : 
; 3937 : 	if ( m_DurabilitySmall > DurCheck )

  000ca	0f b7 c6	 movzx	 eax, si
  000cd	3b c2		 cmp	 eax, edx
  000cf	7e 36		 jle	 SHORT $LN5@StaffWeapo

; 3938 : 	{
; 3939 : 		m_DurabilitySmall = 0;
; 3940 : 		m_Durability -= 1.0f;

  000d1	f3 0f 10 45 f8	 movss	 xmm0, DWORD PTR tv193[ebp]
  000d6	33 c0		 xor	 eax, eax
  000d8	f3 0f 5c 05 00
	00 00 00	 subss	 xmm0, DWORD PTR __real@3f800000
  000e0	66 89 47 28	 mov	 WORD PTR [edi+40], ax

; 3941 : 
; 3942 : 		if ( m_Durability < 0.0f )

  000e4	0f 2f d0	 comiss	 xmm2, xmm0
  000e7	f3 0f 11 47 24	 movss	 DWORD PTR [edi+36], xmm0
  000ec	76 03		 jbe	 SHORT $LN6@StaffWeapo

; 3943 : 		{
; 3944 : 			m_Durability = 0;

  000ee	89 47 24	 mov	 DWORD PTR [edi+36], eax
$LN6@StaffWeapo:

; 3945 : 		}
; 3946 : 		
; 3947 : 		if ( CheckDurabilityState() != 0 )

  000f1	8b cf		 mov	 ecx, edi
  000f3	e8 00 00 00 00	 call	 ?CheckDurabilityState@CItem@@QAEHXZ ; CItem::CheckDurabilityState
  000f8	f7 d8		 neg	 eax
  000fa	5e		 pop	 esi
  000fb	1b c0		 sbb	 eax, eax
  000fd	f7 d8		 neg	 eax
  000ff	40		 inc	 eax
  00100	5f		 pop	 edi

; 3955 : }

  00101	8b e5		 mov	 esp, ebp
  00103	5d		 pop	 ebp
  00104	c2 08 00	 ret	 8
$LN5@StaffWeapo:
  00107	5e		 pop	 esi

; 3948 : 		{
; 3949 : 			return 2;
; 3950 : 		}
; 3951 : 		return 1;
; 3952 : 		
; 3953 : 	}
; 3954 : 	return 0;

  00108	33 c0		 xor	 eax, eax
  0010a	5f		 pop	 edi

; 3955 : }

  0010b	8b e5		 mov	 esp, ebp
  0010d	5d		 pop	 ebp
  0010e	c2 08 00	 ret	 8
?StaffWeaponDurabilityDown@CItem@@QAEHHH@Z ENDP		; CItem::StaffWeaponDurabilityDown
_TEXT	ENDS
; Function compile flags: /Ogtp
; File c:\users\michel\desktop\source\gameserver\common\zzzitem.cpp
;	COMDAT ?BowWeaponDurabilityDown@CItem@@QAEHHH@Z
_TEXT	SEGMENT
tv198 = -8						; size = 4
_plusdamage$ = -4					; size = 4
_defense$ = 8						; size = 4
_aIndex$ = 12						; size = 4
?BowWeaponDurabilityDown@CItem@@QAEHHH@Z PROC		; CItem::BowWeaponDurabilityDown, COMDAT
; _this$ = ecx

; 3860 : {

  00000	55		 push	 ebp
  00001	8b ec		 mov	 ebp, esp
  00003	83 ec 08	 sub	 esp, 8
  00006	57		 push	 edi
  00007	8b f9		 mov	 edi, ecx
  00009	0f 57 c9	 xorps	 xmm1, xmm1

; 3861 : 	if ( m_Durability <= 0 )

  0000c	f3 0f 10 47 24	 movss	 xmm0, DWORD PTR [edi+36]
  00011	0f 2f c8	 comiss	 xmm1, xmm0
  00014	f3 0f 11 45 f8	 movss	 DWORD PTR tv198[ebp], xmm0
  00019	72 09		 jb	 SHORT $LN2@BowWeaponD

; 3862 : 	{
; 3863 : 		return 0;

  0001b	33 c0		 xor	 eax, eax
  0001d	5f		 pop	 edi

; 3907 : }

  0001e	8b e5		 mov	 esp, ebp
  00020	5d		 pop	 ebp
  00021	c2 08 00	 ret	 8
$LN2@BowWeaponD:
  00024	56		 push	 esi

; 3864 : 	}
; 3865 : 
; 3866 : 	int damagemin = m_DamageMinOrigin;

  00025	0f b7 77 1c	 movzx	 esi, WORD PTR [edi+28]

; 3867 : 	int plusdamage = 0;
; 3868 : 	PlusSpecial(&plusdamage, 80);

  00029	8d 45 fc	 lea	 eax, DWORD PTR _plusdamage$[ebp]
  0002c	6a 50		 push	 80			; 00000050H
  0002e	50		 push	 eax
  0002f	c7 45 fc 00 00
	00 00		 mov	 DWORD PTR _plusdamage$[ebp], 0
  00036	e8 00 00 00 00	 call	 ?PlusSpecial@CItem@@QAEXPAHH@Z ; CItem::PlusSpecial

; 3869 : 	
; 3870 : 	int div = damagemin + damagemin/2 + plusdamage;

  0003b	8b c6		 mov	 eax, esi
  0003d	99		 cdq
  0003e	2b c2		 sub	 eax, edx
  00040	8b c8		 mov	 ecx, eax
  00042	d1 f9		 sar	 ecx, 1
  00044	03 4d fc	 add	 ecx, DWORD PTR _plusdamage$[ebp]
  00047	03 ce		 add	 ecx, esi

; 3871 : 
; 3872 : 	if ( div == 0 )

  00049	0f 84 aa 00 00
	00		 je	 $LN5@BowWeaponD

; 3873 : 	{
; 3874 : 		return 0;
; 3875 : 	}
; 3876 : 
; 3877 : 	int DecreaseDur = (defense*2)/div;

  0004f	8b 45 08	 mov	 eax, DWORD PTR _defense$[ebp]
  00052	0f 57 d2	 xorps	 xmm2, xmm2
  00055	03 c0		 add	 eax, eax
  00057	99		 cdq
  00058	f7 f9		 idiv	 ecx

; 3878 : 	DecreaseDur -= DecreaseDur * m_BonusDurability / 100;

  0005a	0f b6 8f cd 00
	00 00		 movzx	 ecx, BYTE PTR [edi+205]
  00061	8b f0		 mov	 esi, eax
  00063	b8 1f 85 eb 51	 mov	 eax, 1374389535		; 51eb851fH
  00068	0f af ce	 imul	 ecx, esi
  0006b	f7 e9		 imul	 ecx

; 3879 : 	m_DurabilitySmall += DecreaseDur;
; 3880 : 
; 3881 : 	int DurCheck = 780;
; 3882 : 
; 3883 : 	if ( gObj[aIndex].m_MPSkillOpt.MpsDownDur1 > 0.0f )

  0006d	69 4d 0c 40 27
	00 00		 imul	 ecx, DWORD PTR _aIndex$[ebp], 10048
  00074	c1 fa 05	 sar	 edx, 5
  00077	8b c2		 mov	 eax, edx
  00079	c1 e8 1f	 shr	 eax, 31			; 0000001fH
  0007c	03 c2		 add	 eax, edx
  0007e	ba 0c 03 00 00	 mov	 edx, 780		; 0000030cH
  00083	2b f0		 sub	 esi, eax
  00085	66 01 77 28	 add	 WORD PTR [edi+40], si
  00089	a1 00 00 00 00	 mov	 eax, DWORD PTR ?gObj@@3PAUOBJECTSTRUCT@@A ; gObj
  0008e	66 8b 77 28	 mov	 si, WORD PTR [edi+40]
  00092	f3 0f 10 8c 01
	c8 06 00 00	 movss	 xmm1, DWORD PTR [ecx+eax+1736]
  0009b	0f 2f ca	 comiss	 xmm1, xmm2
  0009e	76 1c		 jbe	 SHORT $LN4@BowWeaponD

; 3884 : 	{
; 3885 : 		DurCheck += DurCheck*gObj[aIndex].m_MPSkillOpt.MpsDownDur1/100.0f;

  000a0	f3 0f 59 0d 00
	00 00 00	 mulss	 xmm1, DWORD PTR __real@44430000
  000a8	f3 0f 5e 0d 00
	00 00 00	 divss	 xmm1, DWORD PTR __real@42c80000
  000b0	f3 0f 58 0d 00
	00 00 00	 addss	 xmm1, DWORD PTR __real@44430000
  000b8	f3 0f 2c d1	 cvttss2si edx, xmm1
$LN4@BowWeaponD:

; 3886 : 	}
; 3887 : 
; 3888 : 	if ( m_DurabilitySmall > DurCheck )

  000bc	0f b7 c6	 movzx	 eax, si
  000bf	3b c2		 cmp	 eax, edx
  000c1	7e 36		 jle	 SHORT $LN5@BowWeaponD

; 3889 : 	{
; 3890 : 		m_DurabilitySmall = 0;
; 3891 : 		m_Durability -= 1.0f;

  000c3	f3 0f 10 45 f8	 movss	 xmm0, DWORD PTR tv198[ebp]
  000c8	33 c0		 xor	 eax, eax
  000ca	f3 0f 5c 05 00
	00 00 00	 subss	 xmm0, DWORD PTR __real@3f800000
