; Listing generated by Microsoft (R) Optimizing Compiler Version 19.00.23506.0 

	TITLE	C:\Users\Michel\Desktop\Source\GameServer\common\zzzitem.cpp
	.686P
	.XMM
	include listing.inc
	.model	flat

INCLUDELIB LIBCMT
INCLUDELIB OLDNAMES

PUBLIC	?g_MaxItemIndexOfEachItemType@@3PAHA		; g_MaxItemIndexOfEachItemType
PUBLIC	?ItemAttribute@@3PAUITEM_ATTRIBUTE@@A		; ItemAttribute
_BSS	SEGMENT
?g_MaxItemIndexOfEachItemType@@3PAHA DD 010H DUP (?)	; g_MaxItemIndexOfEachItemType
?ItemAttribute@@3PAUITEM_ATTRIBUTE@@A DB 0e0000H DUP (?) ; ItemAttribute
_BSS	ENDS
PUBLIC	?__empty_global_delete@@YAXPAX@Z		; __empty_global_delete
PUBLIC	?__empty_global_delete@@YAXPAXI@Z		; __empty_global_delete
PUBLIC	?pow@@YAMMH@Z					; pow
PUBLIC	??0CItem@@QAE@XZ				; CItem::CItem
PUBLIC	?Convert@CItem@@QAEXHEEEEEEPAEEE@Z		; CItem::Convert
PUBLIC	?Value@CItem@@QAEXXZ				; CItem::Value
PUBLIC	?OldValue@CItem@@QAEXXZ				; CItem::OldValue
PUBLIC	?GetSize@CItem@@QAEHAAH0@Z			; CItem::GetSize
PUBLIC	?Clear@CItem@@QAEXXZ				; CItem::Clear
PUBLIC	?IsItem@CItem@@QAEHXZ				; CItem::IsItem
PUBLIC	?IsSetItem@CItem@@QAEHXZ			; CItem::IsSetItem
PUBLIC	?GetAddStatType@CItem@@QAEHXZ			; CItem::GetAddStatType
PUBLIC	?SetPetItemInfo@CItem@@QAEXHH@Z			; CItem::SetPetItemInfo
PUBLIC	?AddPetItemExp@CItem@@QAEHH@Z			; CItem::AddPetItemExp
PUBLIC	?DecPetItemExp@CItem@@QAEHH@Z			; CItem::DecPetItemExp
PUBLIC	?PetValue@CItem@@QAEXXZ				; CItem::PetValue
PUBLIC	?PetItemLevelDown@CItem@@QAEHH@Z		; CItem::PetItemLevelDown
PUBLIC	?ItemDamageMin@CItem@@QAEHXZ			; CItem::ItemDamageMin
PUBLIC	?ItemDefense@CItem@@QAEHXZ			; CItem::ItemDefense
PUBLIC	?ItemCurseDamage@CItem@@QAEHXZ			; CItem::ItemCurseDamage
PUBLIC	?IsClass@CItem@@QAEHDHH@Z			; CItem::IsClass
PUBLIC	?GetName@CItem@@QAEPADXZ			; CItem::GetName
PUBLIC	?GetLevel@CItem@@QAEHXZ				; CItem::GetLevel
PUBLIC	?PlusSpecial@CItem@@QAEXPAHH@Z			; CItem::PlusSpecial
PUBLIC	?PlusSpecialPercent@CItem@@QAEXPAHHG@Z		; CItem::PlusSpecialPercent
PUBLIC	?PlusSpecialPercentEx@CItem@@QAEXPAHHH@Z	; CItem::PlusSpecialPercentEx
PUBLIC	?SetItemPlusSpecialStat@CItem@@QAEXPAGH@Z	; CItem::SetItemPlusSpecialStat
PUBLIC	?GetWeaponType@CItem@@QAEHXZ			; CItem::GetWeaponType
PUBLIC	?PlusSpecialSetRing@CItem@@QAEXPAE@Z		; CItem::PlusSpecialSetRing
PUBLIC	?GetNumber@CItem@@QAEKXZ			; CItem::GetNumber
PUBLIC	?IsExtItem@CItem@@QAEHXZ			; CItem::IsExtItem
PUBLIC	?IsExtLifeAdd@CItem@@QAEHXZ			; CItem::IsExtLifeAdd
PUBLIC	?IsExtManaAdd@CItem@@QAEHXZ			; CItem::IsExtManaAdd
PUBLIC	?IsExtDamageMinus@CItem@@QAEHXZ			; CItem::IsExtDamageMinus
PUBLIC	?IsExtDamageReflect@CItem@@QAEHXZ		; CItem::IsExtDamageReflect
PUBLIC	?IsExtDefenseSuccessfull@CItem@@QAEHXZ		; CItem::IsExtDefenseSuccessfull
PUBLIC	?IsExtMonsterMoney@CItem@@QAEHXZ		; CItem::IsExtMonsterMoney
PUBLIC	?IsExtExcellentDamage@CItem@@QAEHXZ		; CItem::IsExtExcellentDamage
PUBLIC	?IsExtAttackRate@CItem@@QAEHXZ			; CItem::IsExtAttackRate
PUBLIC	?IsExtAttackRate2@CItem@@QAEHXZ			; CItem::IsExtAttackRate2
PUBLIC	?IsExtAttackSpeed@CItem@@QAEHXZ			; CItem::IsExtAttackSpeed
PUBLIC	?IsExtMonsterDieLife@CItem@@QAEHXZ		; CItem::IsExtMonsterDieLife
PUBLIC	?IsExtMonsterDieMana@CItem@@QAEHXZ		; CItem::IsExtMonsterDieMana
PUBLIC	?IsWingOpGetOnePercentDamage@CItem@@QAEHXZ	; CItem::IsWingOpGetOnePercentDamage
PUBLIC	?Is3rdWingOpGetOnePercentDamage@CItem@@QAEHXZ	; CItem::Is3rdWingOpGetOnePercentDamage
PUBLIC	?Is25WingOpGetOnePercentDamage@CItem@@QAEHXZ	; CItem::Is25WingOpGetOnePercentDamage
PUBLIC	?Is3rdLevelWingReflect@CItem@@QAEHXZ		; CItem::Is3rdLevelWingReflect
PUBLIC	?Is3rdLevelWingHPRestore@CItem@@QAEHXZ		; CItem::Is3rdLevelWingHPRestore
PUBLIC	?Is25LevelWingHPRestore@CItem@@QAEHXZ		; CItem::Is25LevelWingHPRestore
PUBLIC	?Is3rdLevelWingMPRestore@CItem@@QAEHXZ		; CItem::Is3rdLevelWingMPRestore
PUBLIC	?IsWingOpGetManaToMoster@CItem@@QAEHXZ		; CItem::IsWingOpGetManaToMoster
PUBLIC	?IsDinorantReduceAttackDamaege@CItem@@QAEHXZ	; CItem::IsDinorantReduceAttackDamaege
PUBLIC	?IsFenrirIncLastAttackDamage@CItem@@QAEHXZ	; CItem::IsFenrirIncLastAttackDamage
PUBLIC	?IsFenrirDecLastAttackDamage@CItem@@QAEHXZ	; CItem::IsFenrirDecLastAttackDamage
PUBLIC	?IsFenrirSpecial@CItem@@QAEHXZ			; CItem::IsFenrirSpecial
PUBLIC	?SimpleDurabilityDown@CItem@@QAEHH@Z		; CItem::SimpleDurabilityDown
PUBLIC	?DurabilityDown@CItem@@QAEHHH@Z			; CItem::DurabilityDown
PUBLIC	?DurabilityDown2@CItem@@QAEHHH@Z		; CItem::DurabilityDown2
PUBLIC	?NormalWeaponDurabilityDown@CItem@@QAEHHH@Z	; CItem::NormalWeaponDurabilityDown
PUBLIC	?BowWeaponDurabilityDown@CItem@@QAEHHH@Z	; CItem::BowWeaponDurabilityDown
PUBLIC	?StaffWeaponDurabilityDown@CItem@@QAEHHH@Z	; CItem::StaffWeaponDurabilityDown
PUBLIC	?ArmorDurabilityDown@CItem@@QAEHHH@Z		; CItem::ArmorDurabilityDown
PUBLIC	?CheckDurabilityState@CItem@@QAEHXZ		; CItem::CheckDurabilityState
PUBLIC	?InitSocketItem@CItem@@QAEXE@Z			; CItem::InitSocketItem
PUBLIC	?GetExcOptCount@CItem@@QAEHXZ			; CItem::GetExcOptCount
PUBLIC	?IsFullAncient@CItem@@QAEHXZ			; CItem::IsFullAncient
PUBLIC	?IsFullExcellent@CItem@@QAE_NXZ			; CItem::IsFullExcellent
PUBLIC	?GetDetailItemType@CItem@@QAEHXZ		; CItem::GetDetailItemType
PUBLIC	??0CPetItemExp@@QAE@XZ				; CPetItemExp::CPetItemExp
PUBLIC	?BufferItemtoConvert3@@YAXPAEAAHAAE2222@Z	; BufferItemtoConvert3
PUBLIC	?ItemByteConvert7@@YAXPAEQAVCItem@@H@Z		; ItemByteConvert7
PUBLIC	?ItemByteConvert10@@YAXPAEQAVCItem@@H@Z		; ItemByteConvert10
PUBLIC	?ItemByteConvert16@@YAXPAEQAVCItem@@H@Z		; ItemByteConvert16
PUBLIC	?ItemByteConvert@@YAXPAEVCItem@@@Z		; ItemByteConvert
PUBLIC	?ItemByteConvert@@YAXPAEHEEEEEEEEE0E@Z		; ItemByteConvert
PUBLIC	?ItemGetNumberMake@@YAHHH@Z			; ItemGetNumberMake
PUBLIC	?ItemGetSize@@YAXHAAH0@Z			; ItemGetSize
PUBLIC	?HasItemDurability@@YAHH@Z			; HasItemDurability
PUBLIC	?ItemGetDurability@@YAHHHHH@Z			; ItemGetDurability
PUBLIC	?ItemGetAttackDurability@@YAHH@Z		; ItemGetAttackDurability
PUBLIC	?ItemGetDefenseDurability@@YAHH@Z		; ItemGetDefenseDurability
PUBLIC	?GetRepairItemRate@@YAMH@Z			; GetRepairItemRate
PUBLIC	?GetAllRepairItemRate@@YAMH@Z			; GetAllRepairItemRate
PUBLIC	?CalRepairRate@@YAXHHPAUITEM_ATTRIBUTE@@@Z	; CalRepairRate
PUBLIC	?OpenItemScript@@YAHPAD@Z			; OpenItemScript
PUBLIC	?OpenItemNameScript@@YAHPAD@Z			; OpenItemNameScript
PUBLIC	?OpenItemScript@@YAHPADH@Z			; OpenItemScript
PUBLIC	?OpenItemNameScript@@YAHPADH@Z			; OpenItemNameScript
PUBLIC	?zzzItemLevel@@YAHHHH@Z				; zzzItemLevel
PUBLIC	?GetLevelItem@@YAHHHH@Z				; GetLevelItem
PUBLIC	?GetSerialItem@@YAHH@Z				; GetSerialItem
PUBLIC	?IsItem@@YAHH@Z					; IsItem
PUBLIC	?GetItemAttr@@YAPAUITEM_ATTRIBUTE@@H@Z		; GetItemAttr
PUBLIC	??1OBJECTSTRUCT@@QAE@XZ				; OBJECTSTRUCT::~OBJECTSTRUCT
PUBLIC	??_EOBJECTSTRUCT@@QAEPAXI@Z			; OBJECTSTRUCT::`vector deleting destructor'
PUBLIC	?gPetItemExp@@3VCPetItemExp@@A			; gPetItemExp
PUBLIC	??_C@_0BO@NENAGJKH@error?9L1?5?3?5ItemIndex?5error?5?$CFd?$AA@ ; `string'
PUBLIC	??_C@_0BG@LGADFPBA@?4?4?2common?2zzzitem?4cpp?$AA@ ; `string'
PUBLIC	??_C@_0BJ@IGGPIOPD@?E?$KM?$LH?$KB?$LN?$LK?5?$LP?$KB?$LH?$KP?5?3?5?$CFd?5?$CI?$CFs?5?$CFd?$CJ?$AA@ ; `string'
PUBLIC	??_C@_0P@KKGPKIJI@damagemin?5?$DN?50?$CB?$AA@	; `string'
PUBLIC	??_C@_0M@ELCONOFE@def?$MA?L?50?$MA?L?$LE?Y?$AA@	; `string'
PUBLIC	??_C@_01KDCPPGHE@r?$AA@				; `string'
PUBLIC	??_C@_03JBJLGPFL@end?$AA@			; `string'
PUBLIC	??_C@_0DN@NLHNDLLL@Error?5?3?5Item?5Data?5fail?4?5?$CILoopCou@ ; `string'
PUBLIC	___isa_available_default
PUBLIC	__real@00000000
PUBLIC	__real@3e4ccccd
PUBLIC	__real@3e99999a
PUBLIC	__real@3f000000
PUBLIC	__real@3f4ccccd
PUBLIC	__real@3f800000
PUBLIC	__real@3ff8000000000000
PUBLIC	__real@4018000000000000
PUBLIC	__real@4024000000000000
PUBLIC	__real@402c000000000000
PUBLIC	__real@4030000000000000
PUBLIC	__real@4039000000000000
PUBLIC	__real@403c000000000000
PUBLIC	__real@40400000
PUBLIC	__real@404c000000000000
PUBLIC	__real@4059000000000000
PUBLIC	__real@40a00000
PUBLIC	__real@41200000
PUBLIC	__real@42480000
PUBLIC	__real@428a0000
PUBLIC	__real@42c80000
PUBLIC	__real@440d0000
PUBLIC	__real@44430000
PUBLIC	__real@447a0000
PUBLIC	__real@44834000
PUBLIC	__real@461c4000
PUBLIC	__xmm@00000003000000020000000100000000
PUBLIC	__xmm@0000000a0000000a0000000a0000000a
PUBLIC	__xmm@00000064000000640000006400000064
EXTRN	??_M@YGXPAXIIP6EX0@Z@Z:PROC			; `eh vector destructor iterator'
EXTRN	??3@YAXPAXI@Z:PROC				; operator delete
EXTRN	??_V@YAXPAXI@Z:PROC				; operator delete[]
EXTRN	_isalpha:PROC
EXTRN	_isdigit:PROC
EXTRN	_isspace:PROC
EXTRN	_isalnum:PROC
EXTRN	_fclose:PROC
EXTRN	_fgetc:PROC
EXTRN	_fopen:PROC
EXTRN	_getc:PROC
EXTRN	_ungetc:PROC
EXTRN	_rand:PROC
EXTRN	_atof:PROC
EXTRN	?IsSetItem@CSetItemOption@@QAEHH@Z:PROC		; CSetItemOption::IsSetItem
EXTRN	?MsgBox@@YAXPADZZ:PROC				; MsgBox
EXTRN	??0CWzMemScript@@QAE@XZ:PROC			; CWzMemScript::CWzMemScript
EXTRN	??1CWzMemScript@@UAE@XZ:PROC			; CWzMemScript::~CWzMemScript
EXTRN	?SetBuffer@CWzMemScript@@QAEHPADH@Z:PROC	; CWzMemScript::SetBuffer
EXTRN	?GetToken@CWzMemScript@@QAE?AW4SMDToken@@XZ:PROC ; CWzMemScript::GetToken
EXTRN	?GetNumber@CWzMemScript@@QAEHXZ:PROC		; CWzMemScript::GetNumber
EXTRN	?GetString@CWzMemScript@@QAEPADXZ:PROC		; CWzMemScript::GetString
EXTRN	?GetItemStrengthenOption@CJewelOfHarmonySystem@@QAEEPAVCItem@@@Z:PROC ; CJewelOfHarmonySystem::GetItemStrengthenOption
EXTRN	?IsActive@CJewelOfHarmonySystem@@QAEHPAVCItem@@@Z:PROC ; CJewelOfHarmonySystem::IsActive
EXTRN	?GetItemEffectValue@CJewelOfHarmonySystem@@QAEHPAVCItem@@H@Z:PROC ; CJewelOfHarmonySystem::GetItemEffectValue
EXTRN	?_GetItemType@CJewelOfHarmonySystem@@QAEHPAVCItem@@@Z:PROC ; CJewelOfHarmonySystem::_GetItemType
EXTRN	?Is380OptionItem@CItemSystemFor380@@QAEHPBVCItem@@@Z:PROC ; CItemSystemFor380::Is380OptionItem
EXTRN	??1CSkillDelay@@UAE@XZ:PROC			; CSkillDelay::~CSkillDelay
EXTRN	??1TMonsterAIAgro@@UAE@XZ:PROC			; TMonsterAIAgro::~TMonsterAIAgro
EXTRN	?IsSocketItem@CSocketItems@@QAE_NPAVCItem@@@Z:PROC ; CSocketItems::IsSocketItem
EXTRN	?CheckSocketOption@CSocketItems@@QAE_NPAVCItem@@@Z:PROC ; CSocketItems::CheckSocketOption
EXTRN	?SetSocketOption@CSocketItems@@QAEXPAVCItem@@@Z:PROC ; CSocketItems::SetSocketOption
EXTRN	?GetOptionValue@CSocketItems@@QAEKE@Z:PROC	; CSocketItems::GetOptionValue
EXTRN	?IsElementalItem@CElementalSystem@@QAEHPAVCItem@@@Z:PROC ; CElementalSystem::IsElementalItem
EXTRN	?IsPentagram@CElementalSystem@@QAEHH@Z:PROC	; CElementalSystem::IsPentagram
EXTRN	?IsErrtel@CElementalSystem@@QAEHH@Z:PROC	; CElementalSystem::IsErrtel
EXTRN	?GetSlotCount@CElementalSystem@@QAEEPAVCItem@@@Z:PROC ; CElementalSystem::GetSlotCount
EXTRN	?getOptionValue@ItemExcellentOption@@QAEHGE@Z:PROC ; ItemExcellentOption::getOptionValue
EXTRN	@__security_check_cookie@4:PROC
EXTRN	___CxxFrameHandler3:PROC
EXTRN	__alldiv:PROC
EXTRN	__allmul:PROC
EXTRN	__dtol3:PROC
EXTRN	__ftol3:PROC
EXTRN	__ftoui3:PROC
EXTRN	__libm_sse2_sqrt_precise:PROC
EXTRN	__ltod3:PROC
EXTRN	_memset:PROC
EXTRN	?gSetItemOption@@3VCSetItemOption@@A:BYTE	; gSetItemOption
EXTRN	?LogAdd@@3P6AXPADZZA:DWORD			; LogAdd
EXTRN	?LogAddC@@3P6AXEPADZZA:DWORD			; LogAddC
EXTRN	?g_kJewelOfHarmonySystem@@3VCJewelOfHarmonySystem@@A:BYTE ; g_kJewelOfHarmonySystem
EXTRN	?g_kItemSystemFor380@@3VCItemSystemFor380@@A:BYTE ; g_kItemSystemFor380
EXTRN	?g_SocketItem@@3VCSocketItems@@A:BYTE		; g_SocketItem
EXTRN	?gObj@@3PAUOBJECTSTRUCT@@A:DWORD		; gObj
EXTRN	?g_ElementalSystem@@3VCElementalSystem@@A:BYTE	; g_ElementalSystem
EXTRN	?g_ItemExcellentOption@@3VItemExcellentOption@@A:BYTE ; g_ItemExcellentOption
EXTRN	___isa_available:DWORD
EXTRN	___security_cookie:DWORD
EXTRN	__fltused:DWORD
_BSS	SEGMENT
?SMDFile@@3PAU_iobuf@@A DD 01H DUP (?)			; SMDFile
?TokenNumber@@3MA DD 01H DUP (?)			; TokenNumber
?TokenString@@3PADA DB 064H DUP (?)			; TokenString
?CurrentToken@@3W4SMDToken@@A DD 01H DUP (?)		; CurrentToken
?gPetItemExp@@3VCPetItemExp@@A DB 01a0H DUP (?)		; gPetItemExp
_BSS	ENDS
;	COMDAT ___isa_available_default
_BSS	SEGMENT
___isa_available_default DD 01H DUP (?)
_BSS	ENDS
CRT$XCU	SEGMENT
?gPetItemExp$initializer$@@3P6AXXZA DD FLAT:??__EgPetItemExp@@YAXXZ ; gPetItemExp$initializer$
CRT$XCU	ENDS
;	COMDAT __xmm@00000064000000640000006400000064
CONST	SEGMENT
__xmm@00000064000000640000006400000064 DB 'd', 00H, 00H, 00H, 'd', 00H, 00H
	DB	00H, 'd', 00H, 00H, 00H, 'd', 00H, 00H, 00H
CONST	ENDS
;	COMDAT __xmm@0000000a0000000a0000000a0000000a
CONST	SEGMENT
__xmm@0000000a0000000a0000000a0000000a DB 0aH, 00H, 00H, 00H, 0aH, 00H, 00H
	DB	00H, 0aH, 00H, 00H, 00H, 0aH, 00H, 00H, 00H
CONST	ENDS
;	COMDAT __xmm@00000003000000020000000100000000
CONST	SEGMENT
__xmm@00000003000000020000000100000000 DB 00H, 00H, 00H, 00H, 01H, 00H, 00H
	DB	00H, 02H, 00H, 00H, 00H, 03H, 00H, 00H, 00H
CONST	ENDS
;	COMDAT __real@461c4000
CONST	SEGMENT
__real@461c4000 DD 0461c4000r			; 10000
CONST	ENDS
;	COMDAT __real@44834000
CONST	SEGMENT
__real@44834000 DD 044834000r			; 1050
CONST	ENDS
;	COMDAT __real@447a0000
CONST	SEGMENT
__real@447a0000 DD 0447a0000r			; 1000
CONST	ENDS
;	COMDAT __real@44430000
CONST	SEGMENT
__real@44430000 DD 044430000r			; 780
CONST	ENDS
;	COMDAT __real@440d0000
CONST	SEGMENT
__real@440d0000 DD 0440d0000r			; 564
CONST	ENDS
;	COMDAT __real@42c80000
CONST	SEGMENT
__real@42c80000 DD 042c80000r			; 100
CONST	ENDS
;	COMDAT __real@428a0000
CONST	SEGMENT
__real@428a0000 DD 0428a0000r			; 69
CONST	ENDS
;	COMDAT __real@42480000
CONST	SEGMENT
__real@42480000 DD 042480000r			; 50
CONST	ENDS
;	COMDAT __real@41200000
CONST	SEGMENT
__real@41200000 DD 041200000r			; 10
CONST	ENDS
;	COMDAT __real@40a00000
CONST	SEGMENT
__real@40a00000 DD 040a00000r			; 5
CONST	ENDS
;	COMDAT __real@4059000000000000
CONST	SEGMENT
__real@4059000000000000 DQ 04059000000000000r	; 100
CONST	ENDS
;	COMDAT __real@404c000000000000
CONST	SEGMENT
__real@404c000000000000 DQ 0404c000000000000r	; 56
CONST	ENDS
;	COMDAT __real@40400000
CONST	SEGMENT
__real@40400000 DD 040400000r			; 3
CONST	ENDS
;	COMDAT __real@403c000000000000
CONST	SEGMENT
__real@403c000000000000 DQ 0403c000000000000r	; 28
CONST	ENDS
;	COMDAT __real@4039000000000000
CONST	SEGMENT
__real@4039000000000000 DQ 04039000000000000r	; 25
CONST	ENDS
;	COMDAT __real@4030000000000000
CONST	SEGMENT
__real@4030000000000000 DQ 04030000000000000r	; 16
CONST	ENDS
;	COMDAT __real@402c000000000000
CONST	SEGMENT
__real@402c000000000000 DQ 0402c000000000000r	; 14
CONST	ENDS
;	COMDAT __real@4024000000000000
CONST	SEGMENT
__real@4024000000000000 DQ 04024000000000000r	; 10
CONST	ENDS
;	COMDAT __real@4018000000000000
CONST	SEGMENT
__real@4018000000000000 DQ 04018000000000000r	; 6
CONST	ENDS
;	COMDAT __real@3ff8000000000000
CONST	SEGMENT
__real@3ff8000000000000 DQ 03ff8000000000000r	; 1.5
CONST	ENDS
;	COMDAT __real@3f800000
CONST	SEGMENT
__real@3f800000 DD 03f800000r			; 1
CONST	ENDS
;	COMDAT __real@3f4ccccd
CONST	SEGMENT
__real@3f4ccccd DD 03f4ccccdr			; 0.8
CONST	ENDS
;	COMDAT __real@3f000000
CONST	SEGMENT
__real@3f000000 DD 03f000000r			; 0.5
CONST	ENDS
;	COMDAT __real@3e99999a
CONST	SEGMENT
__real@3e99999a DD 03e99999ar			; 0.3
CONST	ENDS
;	COMDAT __real@3e4ccccd
CONST	SEGMENT
__real@3e4ccccd DD 03e4ccccdr			; 0.2
CONST	ENDS
;	COMDAT __real@00000000
CONST	SEGMENT
__real@00000000 DD 000000000r			; 0
CONST	ENDS
;	COMDAT ??_C@_0DN@NLHNDLLL@Error?5?3?5Item?5Data?5fail?4?5?$CILoopCou@
CONST	SEGMENT
??_C@_0DN@NLHNDLLL@Error?5?3?5Item?5Data?5fail?4?5?$CILoopCou@ DB 'Error '
	DB	': Item Data fail. (LoopCount:%d) Item Type:%d Index %d', 00H ; `string'
CONST	ENDS
;	COMDAT ??_C@_03JBJLGPFL@end?$AA@
CONST	SEGMENT
??_C@_03JBJLGPFL@end?$AA@ DB 'end', 00H			; `string'
CONST	ENDS
;	COMDAT ??_C@_01KDCPPGHE@r?$AA@
CONST	SEGMENT
??_C@_01KDCPPGHE@r?$AA@ DB 'r', 00H			; `string'
CONST	ENDS
;	COMDAT ??_C@_0M@ELCONOFE@def?$MA?L?50?$MA?L?$LE?Y?$AA@
CONST	SEGMENT
??_C@_0M@ELCONOFE@def?$MA?L?50?$MA?L?$LE?Y?$AA@ DB 'def', 0c0H, 0ccH, ' 0'
	DB	0c0H, 0ccH, 0b4H, 0d9H, 00H			; `string'
CONST	ENDS
;	COMDAT ??_C@_0P@KKGPKIJI@damagemin?5?$DN?50?$CB?$AA@
CONST	SEGMENT
??_C@_0P@KKGPKIJI@damagemin?5?$DN?50?$CB?$AA@ DB 'damagemin = 0!', 00H ; `string'
CONST	ENDS
;	COMDAT ??_C@_0BJ@IGGPIOPD@?E?$KM?$LH?$KB?$LN?$LK?5?$LP?$KB?$LH?$KP?5?3?5?$CFd?5?$CI?$CFs?5?$CFd?$CJ?$AA@
CONST	SEGMENT
??_C@_0BJ@IGGPIOPD@?E?$KM?$LH?$KB?$LN?$LK?5?$LP?$KB?$LH?$KP?5?3?5?$CFd?5?$CI?$CFs?5?$CFd?$CJ?$AA@ DB 0c5H
	DB	0acH, 0b7H, 0a1H, 0bdH, 0baH, ' ', 0bfH, 0a1H, 0b7H, 0afH, ' :'
	DB	' %d (%s %d)', 00H				; `string'
CONST	ENDS
;	COMDAT ??_C@_0BG@LGADFPBA@?4?4?2common?2zzzitem?4cpp?$AA@
CONST	SEGMENT
??_C@_0BG@LGADFPBA@?4?4?2common?2zzzitem?4cpp?$AA@ DB '..\common\zzzitem.'
	DB	'cpp', 00H					; `string'
CONST	ENDS
;	COMDAT ??_C@_0BO@NENAGJKH@error?9L1?5?3?5ItemIndex?5error?5?$CFd?$AA@
CONST	SEGMENT
??_C@_0BO@NENAGJKH@error?9L1?5?3?5ItemIndex?5error?5?$CFd?$AA@ DB 'error-'
	DB	'L1 : ItemIndex error %d', 00H		; `string'
CONST	ENDS
;	COMDAT xdata$x
xdata$x	SEGMENT
__ehfuncinfo$??_EOBJECTSTRUCT@@QAEPAXI@Z DD 019930522H
	DD	00H
	DD	00H
	DD	2 DUP(00H)
	DD	2 DUP(00H)
	DD	00H
	DD	05H
xdata$x	ENDS
;	COMDAT xdata$x
xdata$x	SEGMENT
__unwindtable$?OpenItemNameScript@@YAHPADH@Z DD 0ffffffffH
	DD	FLAT:__unwindfunclet$?OpenItemNameScript@@YAHPADH@Z$0
__ehfuncinfo$?OpenItemNameScript@@YAHPADH@Z DD 019930522H
	DD	01H
	DD	FLAT:__unwindtable$?OpenItemNameScript@@YAHPADH@Z
	DD	2 DUP(00H)
	DD	2 DUP(00H)
	DD	00H
	DD	01H
xdata$x	ENDS
;	COMDAT xdata$x
xdata$x	SEGMENT
__unwindtable$?OpenItemScript@@YAHPADH@Z DD 0ffffffffH
	DD	FLAT:__unwindfunclet$?OpenItemScript@@YAHPADH@Z$0
__ehfuncinfo$?OpenItemScript@@YAHPADH@Z DD 019930522H
	DD	01H
	DD	FLAT:__unwindtable$?OpenItemScript@@YAHPADH@Z
	DD	2 DUP(00H)
	DD	2 DUP(00H)
	DD	00H
	DD	01H
xdata$x	ENDS
; Function compile flags: /Ogtp
; File c:\users\michel\desktop\source\gameserver\common\zzzitem.cpp
;	COMDAT ??__EgPetItemExp@@YAXXZ
text$di	SEGMENT
??__EgPetItemExp@@YAXXZ PROC				; `dynamic initializer for 'gPetItemExp'', COMDAT

; 32   : CPetItemExp gPetItemExp;

  00000	b9 00 00 00 00	 mov	 ecx, OFFSET ?gPetItemExp@@3VCPetItemExp@@A ; gPetItemExp
  00005	e9 00 00 00 00	 jmp	 ??0CPetItemExp@@QAE@XZ	; CPetItemExp::CPetItemExp
??__EgPetItemExp@@YAXXZ ENDP				; `dynamic initializer for 'gPetItemExp''
text$di	ENDS
; Function compile flags: /Ogtp
;	COMDAT ??_EOBJECTSTRUCT@@QAEPAXI@Z
_TEXT	SEGMENT
__$EHRec$ = -12						; size = 12
___flags$ = 8						; size = 4
??_EOBJECTSTRUCT@@QAEPAXI@Z PROC			; OBJECTSTRUCT::`vector deleting destructor', COMDAT
; _this$ = ecx
  00000	55		 push	 ebp
  00001	8b ec		 mov	 ebp, esp
  00003	6a ff		 push	 -1
  00005	68 00 00 00 00	 push	 __ehhandler$??_EOBJECTSTRUCT@@QAEPAXI@Z
  0000a	64 a1 00 00 00
	00		 mov	 eax, DWORD PTR fs:0
  00010	50		 push	 eax
  00011	53		 push	 ebx
  00012	56		 push	 esi
  00013	57		 push	 edi
  00014	a1 00 00 00 00	 mov	 eax, DWORD PTR ___security_cookie
  00019	33 c5		 xor	 eax, ebp
  0001b	50		 push	 eax
  0001c	8d 45 f4	 lea	 eax, DWORD PTR __$EHRec$[ebp]
  0001f	64 a3 00 00 00
	00		 mov	 DWORD PTR fs:0, eax
  00025	8b f1		 mov	 esi, ecx
  00027	8b 5d 08	 mov	 ebx, DWORD PTR ___flags$[ebp]
  0002a	f6 c3 02	 test	 bl, 2
  0002d	74 44		 je	 SHORT $LN2@vector
  0002f	68 00 00 00 00	 push	 OFFSET ??1OBJECTSTRUCT@@QAE@XZ
  00034	ff 76 fc	 push	 DWORD PTR [esi-4]
  00037	8d 7e fc	 lea	 edi, DWORD PTR [esi-4]
  0003a	68 40 27 00 00	 push	 10048			; 00002740H
  0003f	56		 push	 esi
  00040	e8 00 00 00 00	 call	 ??_M@YGXPAXIIP6EX0@Z@Z
  00045	f6 c3 01	 test	 bl, 1
  00048	74 13		 je	 SHORT $LN3@vector
  0004a	69 0f 40 27 00
	00		 imul	 ecx, DWORD PTR [edi], 10048
  00050	83 c1 04	 add	 ecx, 4
  00053	51		 push	 ecx
  00054	57		 push	 edi
  00055	e8 00 00 00 00	 call	 ??_V@YAXPAXI@Z		; operator delete[]
  0005a	83 c4 08	 add	 esp, 8
$LN3@vector:
  0005d	8b c7		 mov	 eax, edi
  0005f	8b 4d f4	 mov	 ecx, DWORD PTR __$EHRec$[ebp]
  00062	64 89 0d 00 00
	00 00		 mov	 DWORD PTR fs:0, ecx
  00069	59		 pop	 ecx
  0006a	5f		 pop	 edi
  0006b	5e		 pop	 esi
  0006c	5b		 pop	 ebx
  0006d	8b e5		 mov	 esp, ebp
  0006f	5d		 pop	 ebp
  00070	c2 04 00	 ret	 4
$LN2@vector:
  00073	8d 8e ec 20 00
	00		 lea	 ecx, DWORD PTR [esi+8428]
  00079	e8 00 00 00 00	 call	 ??1TMonsterAIAgro@@UAE@XZ ; TMonsterAIAgro::~TMonsterAIAgro
  0007e	8d 8e 0c 16 00
	00		 lea	 ecx, DWORD PTR [esi+5644]
  00084	e8 00 00 00 00	 call	 ??1CSkillDelay@@UAE@XZ	; CSkillDelay::~CSkillDelay
  00089	f6 c3 01	 test	 bl, 1
  0008c	74 0e		 je	 SHORT $LN4@vector
  0008e	68 40 27 00 00	 push	 10048			; 00002740H
  00093	56		 push	 esi
  00094	e8 00 00 00 00	 call	 ??3@YAXPAXI@Z		; operator delete
  00099	83 c4 08	 add	 esp, 8
$LN4@vector:
  0009c	8b c6		 mov	 eax, esi
  0009e	8b 4d f4	 mov	 ecx, DWORD PTR __$EHRec$[ebp]
  000a1	64 89 0d 00 00
	00 00		 mov	 DWORD PTR fs:0, ecx
  000a8	59		 pop	 ecx
  000a9	5f		 pop	 edi
  000aa	5e		 pop	 esi
  000ab	5b		 pop	 ebx
  000ac	8b e5		 mov	 esp, ebp
  000ae	5d		 pop	 ebp
  000af	c2 04 00	 ret	 4
_TEXT	ENDS
;	COMDAT text$x
text$x	SEGMENT
__ehhandler$??_EOBJECTSTRUCT@@QAEPAXI@Z:
  00000	8b 54 24 08	 mov	 edx, DWORD PTR [esp+8]
  00004	8d 42 0c	 lea	 eax, DWORD PTR [edx+12]
  00007	8b 4a f0	 mov	 ecx, DWORD PTR [edx-16]
  0000a	33 c8		 xor	 ecx, eax
  0000c	e8 00 00 00 00	 call	 @__security_check_cookie@4
  00011	b8 00 00 00 00	 mov	 eax, OFFSET __ehfuncinfo$??_EOBJECTSTRUCT@@QAEPAXI@Z
  00016	e9 00 00 00 00	 jmp	 ___CxxFrameHandler3
text$x	ENDS
??_EOBJECTSTRUCT@@QAEPAXI@Z ENDP			; OBJECTSTRUCT::`vector deleting destructor'
; Function compile flags: /Ogtp
;	COMDAT ??1OBJECTSTRUCT@@QAE@XZ
_TEXT	SEGMENT
??1OBJECTSTRUCT@@QAE@XZ PROC				; OBJECTSTRUCT::~OBJECTSTRUCT, COMDAT
; _this$ = ecx
  00000	56		 push	 esi
  00001	8b f1		 mov	 esi, ecx
  00003	8d 8e ec 20 00
	00		 lea	 ecx, DWORD PTR [esi+8428]
  00009	e8 00 00 00 00	 call	 ??1TMonsterAIAgro@@UAE@XZ ; TMonsterAIAgro::~TMonsterAIAgro
  0000e	8d 8e 0c 16 00
	00		 lea	 ecx, DWORD PTR [esi+5644]
  00014	5e		 pop	 esi
  00015	e9 00 00 00 00	 jmp	 ??1CSkillDelay@@UAE@XZ	; CSkillDelay::~CSkillDelay
??1OBJECTSTRUCT@@QAE@XZ ENDP				; OBJECTSTRUCT::~OBJECTSTRUCT
_TEXT	ENDS
; Function compile flags: /Ogtp
; File c:\users\michel\desktop\source\gameserver\include\readscript.h
;	COMDAT ?GetToken@@YA?AW4SMDToken@@XZ
_TEXT	SEGMENT
_TempString$ = -104					; size = 100
__$ArrayPad$ = -4					; size = 4
?GetToken@@YA?AW4SMDToken@@XZ PROC			; GetToken, COMDAT

; 24   : {

  00000	55		 push	 ebp
  00001	8b ec		 mov	 ebp, esp
  00003	83 ec 68	 sub	 esp, 104		; 00000068H
  00006	a1 00 00 00 00	 mov	 eax, DWORD PTR ___security_cookie
  0000b	33 c5		 xor	 eax, ebp
  0000d	89 45 fc	 mov	 DWORD PTR __$ArrayPad$[ebp], eax

; 25   : 	int ch;
; 26   : 	char* p;
; 27   : 	char TempString[100];
; 28   : 
; 29   : 	TokenString[0]=0;

  00010	c6 05 00 00 00
	00 00		 mov	 BYTE PTR ?TokenString@@3PADA, 0
  00017	53		 push	 ebx
  00018	0f 1f 84 00 00
	00 00 00	 npad	 8
$LL4@GetToken:

; 30   : 
; 31   : 	do
; 32   : 	{
; 33   : 		if ((ch=fgetc(SMDFile)) == -1)

  00020	ff 35 00 00 00
	00		 push	 DWORD PTR ?SMDFile@@3PAU_iobuf@@A
  00026	e8 00 00 00 00	 call	 _fgetc
  0002b	8b d8		 mov	 ebx, eax
  0002d	83 c4 04	 add	 esp, 4
  00030	83 fb ff	 cmp	 ebx, -1
  00033	74 5d		 je	 SHORT $LN43@GetToken

; 34   : 		{
; 35   : 			return END;	// End of FILE (EOF)
; 36   : 		}
; 37   : 		else
; 38   : 		{	
; 39   : 			if (ch=='/')		// this is /

  00035	83 fb 2f	 cmp	 ebx, 47			; 0000002fH
  00038	75 30		 jne	 SHORT $LN2@GetToken

; 40   : 			{
; 41   : 				if((ch=fgetc(SMDFile)) == '/')

  0003a	ff 35 00 00 00
	00		 push	 DWORD PTR ?SMDFile@@3PAU_iobuf@@A
  00040	e8 00 00 00 00	 call	 _fgetc
  00045	8b d8		 mov	 ebx, eax
  00047	83 c4 04	 add	 esp, 4
  0004a	83 fb 2f	 cmp	 ebx, 47			; 0000002fH
  0004d	75 1b		 jne	 SHORT $LN2@GetToken
  0004f	90		 npad	 1
$LL5@GetToken:

; 42   : 				{
; 43   : 					while ((ch != '\n') && (ch != -1))	// End of Line (EOL)

  00050	83 fb ff	 cmp	 ebx, -1
  00053	74 3d		 je	 SHORT $LN43@GetToken

; 44   : 					{
; 45   : 						ch=fgetc(SMDFile);

  00055	ff 35 00 00 00
	00		 push	 DWORD PTR ?SMDFile@@3PAU_iobuf@@A
  0005b	e8 00 00 00 00	 call	 _fgetc
  00060	8b d8		 mov	 ebx, eax
  00062	83 c4 04	 add	 esp, 4
  00065	83 fb 0a	 cmp	 ebx, 10			; 0000000aH
  00068	75 e6		 jne	 SHORT $LL5@GetToken
$LN2@GetToken:

; 51   : 					}
; 52   : 				}
; 53   : 			}
; 54   : 		}
; 55   : 	}
; 56   : 	while (isspace(ch) != 0);

  0006a	53		 push	 ebx
  0006b	e8 00 00 00 00	 call	 _isspace
  00070	83 c4 04	 add	 esp, 4
  00073	85 c0		 test	 eax, eax
  00075	75 a9		 jne	 SHORT $LL4@GetToken

; 57   : 
; 58   : 	
; 59   : 	switch(ch)

  00077	8d 43 de	 lea	 eax, DWORD PTR [ebx-34]
  0007a	56		 push	 esi
  0007b	83 f8 5b	 cmp	 eax, 91			; 0000005bH
  0007e	0f 87 89 01 00
	00		 ja	 $LN29@GetToken
  00084	0f b6 80 00 00
	00 00		 movzx	 eax, BYTE PTR $LN58@GetToken[eax]
  0008b	ff 24 85 00 00
	00 00		 jmp	 DWORD PTR $LN64@GetToken[eax*4]
$LN43@GetToken:

; 46   : 					}
; 47   : 	
; 48   : 					if (ch == -1)
; 49   : 					{
; 50   : 						return END;	// End of FILE

  00092	b8 02 00 00 00	 mov	 eax, 2
  00097	5b		 pop	 ebx

; 143  : 		}
; 144  : 		else
; 145  : 		{
; 146  : 			return CurrentToken = SMD_ERROR; // '<'
; 147  : 		}
; 148  : 		break;
; 149  : 
; 150  : 	}
; 151  : 
; 152  : 	return NAME;
; 153  : }

  00098	8b 4d fc	 mov	 ecx, DWORD PTR __$ArrayPad$[ebp]
  0009b	33 cd		 xor	 ecx, ebp
  0009d	e8 00 00 00 00	 call	 @__security_check_cookie@4
  000a2	8b e5		 mov	 esp, ebp
  000a4	5d		 pop	 ebp
  000a5	c3		 ret	 0
$LN20@GetToken:
  000a6	5e		 pop	 esi

; 60   : 	{
; 61   : 
; 62   : 	case 0x23:	// #
; 63   : 		return CurrentToken=COMMAND;

  000a7	c7 05 00 00 00
	00 23 00 00 00	 mov	 DWORD PTR ?CurrentToken@@3W4SMDToken@@A, 35 ; 00000023H
  000b1	b8 23 00 00 00	 mov	 eax, 35			; 00000023H
  000b6	5b		 pop	 ebx

; 143  : 		}
; 144  : 		else
; 145  : 		{
; 146  : 			return CurrentToken = SMD_ERROR; // '<'
; 147  : 		}
; 148  : 		break;
; 149  : 
; 150  : 	}
; 151  : 
; 152  : 	return NAME;
; 153  : }

  000b7	8b 4d fc	 mov	 ecx, DWORD PTR __$ArrayPad$[ebp]
  000ba	33 cd		 xor	 ecx, ebp
  000bc	e8 00 00 00 00	 call	 @__security_check_cookie@4
  000c1	8b e5		 mov	 esp, ebp
  000c3	5d		 pop	 ebp
  000c4	c3		 ret	 0
$LN21@GetToken:
  000c5	5e		 pop	 esi

; 64   : 		break;
; 65   : 	
; 66   : 	case 0x3B:	// ;
; 67   : 		return CurrentToken=SEMICOLON;

  000c6	c7 05 00 00 00
	00 3b 00 00 00	 mov	 DWORD PTR ?CurrentToken@@3W4SMDToken@@A, 59 ; 0000003bH
  000d0	b8 3b 00 00 00	 mov	 eax, 59			; 0000003bH
  000d5	5b		 pop	 ebx

; 143  : 		}
; 144  : 		else
; 145  : 		{
; 146  : 			return CurrentToken = SMD_ERROR; // '<'
; 147  : 		}
; 148  : 		break;
; 149  : 
; 150  : 	}
; 151  : 
; 152  : 	return NAME;
; 153  : }

  000d6	8b 4d fc	 mov	 ecx, DWORD PTR __$ArrayPad$[ebp]
  000d9	33 cd		 xor	 ecx, ebp
  000db	e8 00 00 00 00	 call	 @__security_check_cookie@4
  000e0	8b e5		 mov	 esp, ebp
  000e2	5d		 pop	 ebp
  000e3	c3		 ret	 0
$LN22@GetToken:
  000e4	5e		 pop	 esi

; 68   : 		break;
; 69   : 	
; 70   : 	case 0x2C:	// ,
; 71   : 
; 72   : 		return CurrentToken=COMMA;

  000e5	c7 05 00 00 00
	00 2c 00 00 00	 mov	 DWORD PTR ?CurrentToken@@3W4SMDToken@@A, 44 ; 0000002cH
  000ef	b8 2c 00 00 00	 mov	 eax, 44			; 0000002cH
  000f4	5b		 pop	 ebx

; 143  : 		}
; 144  : 		else
; 145  : 		{
; 146  : 			return CurrentToken = SMD_ERROR; // '<'
; 147  : 		}
; 148  : 		break;
; 149  : 
; 150  : 	}
; 151  : 
; 152  : 	return NAME;
; 153  : }

  000f5	8b 4d fc	 mov	 ecx, DWORD PTR __$ArrayPad$[ebp]
  000f8	33 cd		 xor	 ecx, ebp
  000fa	e8 00 00 00 00	 call	 @__security_check_cookie@4
  000ff	8b e5		 mov	 esp, ebp
  00101	5d		 pop	 ebp
  00102	c3		 ret	 0
$LN23@GetToken:
  00103	5e		 pop	 esi

; 73   : 		break;
; 74   : 	
; 75   : 	case 0x7B:	// {
; 76   : 		return CurrentToken = LP;

  00104	c7 05 00 00 00
	00 7b 00 00 00	 mov	 DWORD PTR ?CurrentToken@@3W4SMDToken@@A, 123 ; 0000007bH
  0010e	b8 7b 00 00 00	 mov	 eax, 123		; 0000007bH
  00113	5b		 pop	 ebx

; 143  : 		}
; 144  : 		else
; 145  : 		{
; 146  : 			return CurrentToken = SMD_ERROR; // '<'
; 147  : 		}
; 148  : 		break;
; 149  : 
; 150  : 	}
; 151  : 
; 152  : 	return NAME;
; 153  : }

  00114	8b 4d fc	 mov	 ecx, DWORD PTR __$ArrayPad$[ebp]
  00117	33 cd		 xor	 ecx, ebp
  00119	e8 00 00 00 00	 call	 @__security_check_cookie@4
  0011e	8b e5		 mov	 esp, ebp
  00120	5d		 pop	 ebp
  00121	c3		 ret	 0
$LN24@GetToken:
  00122	5e		 pop	 esi

; 77   : 		break;
; 78   : 
; 79   : 	case 0x7D:	// }
; 80   : 		return CurrentToken = RP;

  00123	c7 05 00 00 00
	00 7d 00 00 00	 mov	 DWORD PTR ?CurrentToken@@3W4SMDToken@@A, 125 ; 0000007dH
  0012d	b8 7d 00 00 00	 mov	 eax, 125		; 0000007dH
  00132	5b		 pop	 ebx

; 143  : 		}
; 144  : 		else
; 145  : 		{
; 146  : 			return CurrentToken = SMD_ERROR; // '<'
; 147  : 		}
; 148  : 		break;
; 149  : 
; 150  : 	}
; 151  : 
; 152  : 	return NAME;
; 153  : }

  00133	8b 4d fc	 mov	 ecx, DWORD PTR __$ArrayPad$[ebp]
  00136	33 cd		 xor	 ecx, ebp
  00138	e8 00 00 00 00	 call	 @__security_check_cookie@4
  0013d	8b e5		 mov	 esp, ebp
  0013f	5d		 pop	 ebp
  00140	c3		 ret	 0
$LN25@GetToken:

; 81   : 		break;
; 82   : 	// Nice Index Table :)	by Deathway
; 83   : 	// Numbers Case
; 84   : 	case 0x2D:	//-
; 85   : 	case 0x2E:	//.
; 86   : 	case '0':	//0
; 87   : 	case '1':	//1
; 88   : 	case '2':	//2
; 89   : 	case '3':	//3
; 90   : 	case '4':	//4		
; 91   : 	case '5':	//5
; 92   : 	case '6':	//6
; 93   : 	case '7':	//7
; 94   : 	case '8':	//8
; 95   : 	case '9':	//9
; 96   : 		ungetc(ch, SMDFile);

  00141	ff 35 00 00 00
	00		 push	 DWORD PTR ?SMDFile@@3PAU_iobuf@@A
  00147	53		 push	 ebx
  00148	e8 00 00 00 00	 call	 _ungetc

; 97   : 		p = TempString;
; 98   : 		
; 99   : 		while (((ch=getc(SMDFile)) != -1) && ((ch == 0x2E) || (isdigit(ch) != 0) || (ch == 0x2D)))  // 2e '.'  2D '-'

  0014d	ff 35 00 00 00
	00		 push	 DWORD PTR ?SMDFile@@3PAU_iobuf@@A
  00153	8d 75 98	 lea	 esi, DWORD PTR _TempString$[ebp]
  00156	e8 00 00 00 00	 call	 _getc
  0015b	8b d8		 mov	 ebx, eax
  0015d	83 c4 0c	 add	 esp, 12			; 0000000cH
  00160	83 fb ff	 cmp	 ebx, -1
  00163	74 2f		 je	 SHORT $LN59@GetToken
$LL9@GetToken:
  00165	83 fb 2e	 cmp	 ebx, 46			; 0000002eH
  00168	74 12		 je	 SHORT $LN26@GetToken
  0016a	53		 push	 ebx
  0016b	e8 00 00 00 00	 call	 _isdigit
  00170	83 c4 04	 add	 esp, 4
  00173	85 c0		 test	 eax, eax
  00175	75 05		 jne	 SHORT $LN26@GetToken
  00177	83 fb 2d	 cmp	 ebx, 45			; 0000002dH
  0017a	75 18		 jne	 SHORT $LN59@GetToken
$LN26@GetToken:
  0017c	ff 35 00 00 00
	00		 push	 DWORD PTR ?SMDFile@@3PAU_iobuf@@A

; 100  : 		{
; 101  : 			*p = ch;	// Construct a String

  00182	88 1e		 mov	 BYTE PTR [esi], bl

; 102  : 			p++;

  00184	46		 inc	 esi
  00185	e8 00 00 00 00	 call	 _getc
  0018a	8b d8		 mov	 ebx, eax
  0018c	83 c4 04	 add	 esp, 4
  0018f	83 fb ff	 cmp	 ebx, -1
  00192	75 d1		 jne	 SHORT $LL9@GetToken
$LN59@GetToken:

; 103  : 		}		
; 104  : 		*p = 0;
; 105  : 		TokenNumber = (float)atof( TempString);	// Select the first Byte as Main ID

  00194	8d 45 98	 lea	 eax, DWORD PTR _TempString$[ebp]
  00197	c6 06 00	 mov	 BYTE PTR [esi], 0
  0019a	50		 push	 eax
  0019b	e8 00 00 00 00	 call	 _atof
  001a0	83 c4 04	 add	 esp, 4

; 106  : 		return CurrentToken  = NUMBER ;

  001a3	c7 05 00 00 00
	00 01 00 00 00	 mov	 DWORD PTR ?CurrentToken@@3W4SMDToken@@A, 1
  001ad	d9 1d 00 00 00
	00		 fstp	 DWORD PTR ?TokenNumber@@3MA
  001b3	b8 01 00 00 00	 mov	 eax, 1
  001b8	5e		 pop	 esi
  001b9	5b		 pop	 ebx

; 143  : 		}
; 144  : 		else
; 145  : 		{
; 146  : 			return CurrentToken = SMD_ERROR; // '<'
; 147  : 		}
; 148  : 		break;
; 149  : 
; 150  : 	}
; 151  : 
; 152  : 	return NAME;
; 153  : }

  001ba	8b 4d fc	 mov	 ecx, DWORD PTR __$ArrayPad$[ebp]
  001bd	33 cd		 xor	 ecx, ebp
  001bf	e8 00 00 00 00	 call	 @__security_check_cookie@4
  001c4	8b e5		 mov	 esp, ebp
  001c6	5d		 pop	 ebp
  001c7	c3		 ret	 0
$LN27@GetToken:

; 107  : 		break;
; 108  : 
; 109  : 	case '\"':	// "	String Case
; 110  : 		p=&TokenString[0];
; 111  : 		
; 112  : 		while (((ch=getc(SMDFile)) != -1 ) && (ch != 0x22))	// nice

  001c8	ff 35 00 00 00
	00		 push	 DWORD PTR ?SMDFile@@3PAU_iobuf@@A
  001ce	be 00 00 00 00	 mov	 esi, OFFSET ?TokenString@@3PADA
  001d3	e8 00 00 00 00	 call	 _getc
  001d8	83 c4 04	 add	 esp, 4
  001db	83 f8 ff	 cmp	 eax, -1
  001de	74 1f		 je	 SHORT $LN12@GetToken
$LL11@GetToken:
  001e0	83 f8 22	 cmp	 eax, 34			; 00000022H
  001e3	0f 84 95 00 00
	00		 je	 $LN28@GetToken
  001e9	ff 35 00 00 00
	00		 push	 DWORD PTR ?SMDFile@@3PAU_iobuf@@A

; 113  : 		{
; 114  : 			*p = ch;

  001ef	88 06		 mov	 BYTE PTR [esi], al

; 115  : 			p++;

  001f1	46		 inc	 esi
  001f2	e8 00 00 00 00	 call	 _getc
  001f7	83 c4 04	 add	 esp, 4
  001fa	83 f8 ff	 cmp	 eax, -1
  001fd	75 e1		 jne	 SHORT $LL11@GetToken
$LN12@GetToken:

; 116  : 		}
; 117  : 		if (ch != 0x22 )

  001ff	83 f8 22	 cmp	 eax, 34			; 00000022H
  00202	74 7a		 je	 SHORT $LN28@GetToken

; 118  : 		{
; 119  : 			ungetc(ch, SMDFile);

  00204	ff 35 00 00 00
	00		 push	 DWORD PTR ?SMDFile@@3PAU_iobuf@@A
  0020a	50		 push	 eax

; 120  : 		}
; 121  : 		*p = 0;
; 122  : 		return CurrentToken = NAME;

  0020b	eb 69		 jmp	 SHORT $LN62@GetToken
$LN29@GetToken:

; 123  : 		break;
; 124  : 
; 125  : 	default:	// Others
; 126  : 		if (isalpha(ch))

  0020d	53		 push	 ebx
  0020e	e8 00 00 00 00	 call	 _isalpha
  00213	83 c4 04	 add	 esp, 4
  00216	85 c0		 test	 eax, eax
  00218	0f 84 7f 00 00
	00		 je	 $LN30@GetToken

; 127  : 		{
; 128  : 			p=&TokenString[0];
; 129  : 			*p=ch;
; 130  : 			p++;
; 131  : 
; 132  : 			while ( ((ch=getc(SMDFile)) != -1) && ( (ch == 0x2E) || (ch == 0x5F) || (isalnum(ch) != 0) ) )

  0021e	ff 35 00 00 00
	00		 push	 DWORD PTR ?SMDFile@@3PAU_iobuf@@A
  00224	88 1d 00 00 00
	00		 mov	 BYTE PTR ?TokenString@@3PADA, bl
  0022a	be 01 00 00 00	 mov	 esi, OFFSET ?TokenString@@3PADA+1
  0022f	e8 00 00 00 00	 call	 _getc
  00234	8b d8		 mov	 ebx, eax
  00236	83 c4 04	 add	 esp, 4
  00239	83 fb ff	 cmp	 ebx, -1
  0023c	74 31		 je	 SHORT $LN60@GetToken
  0023e	66 90		 npad	 2
$LL13@GetToken:
  00240	83 fb 2e	 cmp	 ebx, 46			; 0000002eH
  00243	74 12		 je	 SHORT $LN32@GetToken
  00245	83 fb 5f	 cmp	 ebx, 95			; 0000005fH
  00248	74 0d		 je	 SHORT $LN32@GetToken
  0024a	53		 push	 ebx
  0024b	e8 00 00 00 00	 call	 _isalnum
  00250	83 c4 04	 add	 esp, 4
  00253	85 c0		 test	 eax, eax
  00255	74 18		 je	 SHORT $LN60@GetToken
$LN32@GetToken:
  00257	ff 35 00 00 00
	00		 push	 DWORD PTR ?SMDFile@@3PAU_iobuf@@A

; 133  : 			{
; 134  : 				*p=ch;

  0025d	88 1e		 mov	 BYTE PTR [esi], bl

; 135  : 				p++;

  0025f	46		 inc	 esi
  00260	e8 00 00 00 00	 call	 _getc
  00265	8b d8		 mov	 ebx, eax
  00267	83 c4 04	 add	 esp, 4
  0026a	83 fb ff	 cmp	 ebx, -1
  0026d	75 d1		 jne	 SHORT $LL13@GetToken
$LN60@GetToken:

; 136  : 				
; 137  : 			}
; 138  : 
; 139  : 			ungetc(ch, SMDFile);

  0026f	ff 35 00 00 00
	00		 push	 DWORD PTR ?SMDFile@@3PAU_iobuf@@A
  00275	53		 push	 ebx
$LN62@GetToken:
  00276	e8 00 00 00 00	 call	 _ungetc
  0027b	83 c4 08	 add	 esp, 8
$LN28@GetToken:

; 140  : 			*p=0;

  0027e	c6 06 00	 mov	 BYTE PTR [esi], 0

; 141  : 			CurrentToken=NAME;
; 142  : 			return CurrentToken;

  00281	33 c0		 xor	 eax, eax
  00283	5e		 pop	 esi
  00284	c7 05 00 00 00
	00 00 00 00 00	 mov	 DWORD PTR ?CurrentToken@@3W4SMDToken@@A, 0
  0028e	5b		 pop	 ebx

; 143  : 		}
; 144  : 		else
; 145  : 		{
; 146  : 			return CurrentToken = SMD_ERROR; // '<'
; 147  : 		}
; 148  : 		break;
; 149  : 
; 150  : 	}
; 151  : 
; 152  : 	return NAME;
; 153  : }

  0028f	8b 4d fc	 mov	 ecx, DWORD PTR __$ArrayPad$[ebp]
  00292	33 cd		 xor	 ecx, ebp
  00294	e8 00 00 00 00	 call	 @__security_check_cookie@4
  00299	8b e5		 mov	 esp, ebp
  0029b	5d		 pop	 ebp
  0029c	c3		 ret	 0
$LN30@GetToken:
  0029d	8b 4d fc	 mov	 ecx, DWORD PTR __$ArrayPad$[ebp]
  002a0	b8 3c 00 00 00	 mov	 eax, 60			; 0000003cH
  002a5	5e		 pop	 esi
  002a6	33 cd		 xor	 ecx, ebp
  002a8	c7 05 00 00 00
	00 3c 00 00 00	 mov	 DWORD PTR ?CurrentToken@@3W4SMDToken@@A, 60 ; 0000003cH
  002b2	5b		 pop	 ebx
  002b3	e8 00 00 00 00	 call	 @__security_check_cookie@4
  002b8	8b e5		 mov	 esp, ebp
  002ba	5d		 pop	 ebp
  002bb	c3		 ret	 0
$LN64@GetToken:
  002bc	00 00 00 00	 DD	 $LN27@GetToken
  002c0	00 00 00 00	 DD	 $LN20@GetToken
  002c4	00 00 00 00	 DD	 $LN22@GetToken
  002c8	00 00 00 00	 DD	 $LN25@GetToken
  002cc	00 00 00 00	 DD	 $LN21@GetToken
  002d0	00 00 00 00	 DD	 $LN23@GetToken
  002d4	00 00 00 00	 DD	 $LN24@GetToken
  002d8	00 00 00 00	 DD	 $LN29@GetToken
$LN58@GetToken:
  002dc	00		 DB	 0
  002dd	01		 DB	 1
  002de	07		 DB	 7
  002df	07		 DB	 7
  002e0	07		 DB	 7
  002e1	07		 DB	 7
  002e2	07		 DB	 7
  002e3	07		 DB	 7
  002e4	07		 DB	 7
  002e5	07		 DB	 7
  002e6	02		 DB	 2
  002e7	03		 DB	 3
  002e8	03		 DB	 3
  002e9	07		 DB	 7
  002ea	03		 DB	 3
  002eb	03		 DB	 3
  002ec	03		 DB	 3
  002ed	03		 DB	 3
  002ee	03		 DB	 3
  002ef	03		 DB	 3
  002f0	03		 DB	 3
  002f1	03		 DB	 3
  002f2	03		 DB	 3
  002f3	03		 DB	 3
  002f4	07		 DB	 7
  002f5	04		 DB	 4
  002f6	07		 DB	 7
  002f7	07		 DB	 7
  002f8	07		 DB	 7
  002f9	07		 DB	 7
  002fa	07		 DB	 7
  002fb	07		 DB	 7
  002fc	07		 DB	 7
  002fd	07		 DB	 7
  002fe	07		 DB	 7
  002ff	07		 DB	 7
  00300	07		 DB	 7
  00301	07		 DB	 7
  00302	07		 DB	 7
  00303	07		 DB	 7
  00304	07		 DB	 7
  00305	07		 DB	 7
  00306	07		 DB	 7
  00307	07		 DB	 7
  00308	07		 DB	 7
  00309	07		 DB	 7
  0030a	07		 DB	 7
  0030b	07		 DB	 7
  0030c	07		 DB	 7
  0030d	07		 DB	 7
  0030e	07		 DB	 7
  0030f	07		 DB	 7
  00310	07		 DB	 7
  00311	07		 DB	 7
  00312	07		 DB	 7
  00313	07		 DB	 7
  00314	07		 DB	 7
  00315	07		 DB	 7
  00316	07		 DB	 7
  00317	07		 DB	 7
  00318	07		 DB	 7
  00319	07		 DB	 7
  0031a	07		 DB	 7
  0031b	07		 DB	 7
  0031c	07		 DB	 7
  0031d	07		 DB	 7
  0031e	07		 DB	 7
  0031f	07		 DB	 7
  00320	07		 DB	 7
  00321	07		 DB	 7
  00322	07		 DB	 7
  00323	07		 DB	 7
  00324	07		 DB	 7
  00325	07		 DB	 7
  00326	07		 DB	 7
  00327	07		 DB	 7
  00328	07		 DB	 7
  00329	07		 DB	 7
  0032a	07		 DB	 7
  0032b	07		 DB	 7
  0032c	07		 DB	 7
  0032d	07		 DB	 7
  0032e	07		 DB	 7
  0032f	07		 DB	 7
  00330	07		 DB	 7
  00331	07		 DB	 7
  00332	07		 DB	 7
  00333	07		 DB	 7
  00334	07		 DB	 7
  00335	05		 DB	 5
  00336	07		 DB	 7
  00337	06		 DB	 6
?GetToken@@YA?AW4SMDToken@@XZ ENDP			; GetToken
_TEXT	ENDS
; Function compile flags: /Ogtp
; File c:\users\michel\desktop\source\gameserver\common\zzzitem.cpp
;	COMDAT ?GetItemAttr@@YAPAUITEM_ATTRIBUTE@@H@Z
_TEXT	SEGMENT
_item_num$ = 8						; size = 4
?GetItemAttr@@YAPAUITEM_ATTRIBUTE@@H@Z PROC		; GetItemAttr, COMDAT

; 5767 : {

  00000	55		 push	 ebp
  00001	8b ec		 mov	 ebp, esp

; 5768 : 	if ( item_num < 0 || item_num >= MAX_ITEMS )

  00003	8b 45 08	 mov	 eax, DWORD PTR _item_num$[ebp]
  00006	3d ff 1f 00 00	 cmp	 eax, 8191		; 00001fffH
  0000b	77 0a		 ja	 SHORT $LN3@GetItemAtt

; 5771 : 	}
; 5772 : 
; 5773 : 	return &ItemAttribute[item_num];

  0000d	6b c0 70	 imul	 eax, eax, 112
  00010	05 00 00 00 00	 add	 eax, OFFSET ?ItemAttribute@@3PAUITEM_ATTRIBUTE@@A ; ItemAttribute

; 5774 : }

  00015	5d		 pop	 ebp
  00016	c3		 ret	 0
$LN3@GetItemAtt:

; 5769 : 	{
; 5770 : 		return NULL;

  00017	33 c0		 xor	 eax, eax

; 5774 : }

  00019	5d		 pop	 ebp
  0001a	c3		 ret	 0
?GetItemAttr@@YAPAUITEM_ATTRIBUTE@@H@Z ENDP		; GetItemAttr
_TEXT	ENDS
; Function compile flags: /Ogtp
; File c:\users\michel\desktop\source\gameserver\common\zzzitem.cpp
;	COMDAT ?IsItem@@YAHH@Z
_TEXT	SEGMENT
_item_num$ = 8						; size = 4
?IsItem@@YAHH@Z PROC					; IsItem, COMDAT

; 5754 : {

  00000	55		 push	 ebp
  00001	8b ec		 mov	 ebp, esp

; 5755 : 	if ( item_num < 0 || item_num >= MAX_ITEMS )

  00003	8b 45 08	 mov	 eax, DWORD PTR _item_num$[ebp]
  00006	3d ff 1f 00 00	 cmp	 eax, 8191		; 00001fffH
  0000b	77 0c		 ja	 SHORT $LN3@IsItem

; 5758 : 	}
; 5759 : 
; 5760 : 	return ItemAttribute[item_num].HaveItemInfo;

  0000d	6b c0 70	 imul	 eax, eax, 112
  00010	0f b6 80 20 00
	00 00		 movzx	 eax, BYTE PTR ?ItemAttribute@@3PAUITEM_ATTRIBUTE@@A[eax+32]

; 5761 : }

  00017	5d		 pop	 ebp
  00018	c3		 ret	 0
$LN3@IsItem:

; 5756 : 	{
; 5757 : 		return 0;

  00019	33 c0		 xor	 eax, eax

; 5761 : }

  0001b	5d		 pop	 ebp
  0001c	c3		 ret	 0
?IsItem@@YAHH@Z ENDP					; IsItem
_TEXT	ENDS
; Function compile flags: /Ogtp
; File c:\users\michel\desktop\source\gameserver\common\zzzitem.cpp
;	COMDAT ?GetSerialItem@@YAHH@Z
_TEXT	SEGMENT
_type$ = 8						; size = 4
?GetSerialItem@@YAHH@Z PROC				; GetSerialItem, COMDAT

; 5736 : {

  00000	55		 push	 ebp
  00001	8b ec		 mov	 ebp, esp

; 5737 : 	int item_num = type;
; 5738 : 
; 5739 : 	if ( ItemAttribute[item_num].Level == 0xFF )

  00003	6b 4d 08 70	 imul	 ecx, DWORD PTR _type$[ebp], 112
  00007	80 b9 22 00 00
	00 ff		 cmp	 BYTE PTR ?ItemAttribute@@3PAUITEM_ATTRIBUTE@@A[ecx+34], 255 ; 000000ffH
  0000e	75 05		 jne	 SHORT $LN2@GetSerialI

; 5740 : 	{
; 5741 : 		return -1;

  00010	83 c8 ff	 or	 eax, -1

; 5744 : 	{
; 5745 : 		return 0;
; 5746 : 	}
; 5747 : 	return 1;
; 5748 : }

  00013	5d		 pop	 ebp
  00014	c3		 ret	 0
$LN2@GetSerialI:

; 5742 : 	}
; 5743 : 	if ( ItemAttribute[item_num].Serial  == 0 )

  00015	33 c0		 xor	 eax, eax
  00017	38 81 25 00 00
	00		 cmp	 BYTE PTR ?ItemAttribute@@3PAUITEM_ATTRIBUTE@@A[ecx+37], al
  0001d	0f 95 c0	 setne	 al

; 5744 : 	{
; 5745 : 		return 0;
; 5746 : 	}
; 5747 : 	return 1;
; 5748 : }

  00020	5d		 pop	 ebp
  00021	c3		 ret	 0
?GetSerialItem@@YAHH@Z ENDP				; GetSerialItem
_TEXT	ENDS
; Function compile flags: /Ogtp
; File c:\users\michel\desktop\source\gameserver\common\zzzitem.cpp
;	COMDAT ?GetLevelItem@@YAHHHH@Z
_TEXT	SEGMENT
_type$ = 8						; size = 4
_index$ = 12						; size = 4
_level$ = 16						; size = 4
?GetLevelItem@@YAHHHH@Z PROC				; GetLevelItem, COMDAT

; 5598 : {

  00000	55		 push	 ebp
  00001	8b ec		 mov	 ebp, esp

; 5599 : 	int item_num;
; 5600 : 	int itemlevel;
; 5601 : 
; 5602 : 	if ( level < 0 )
; 5603 : 	{
; 5604 : 		level = 0;
; 5605 : 	}
; 5606 : 
; 5607 : 	item_num = (type * MAX_SUBTYPE_ITEMS) + index;

  00003	8b 4d 0c	 mov	 ecx, DWORD PTR _index$[ebp]
  00006	33 c0		 xor	 eax, eax
  00008	56		 push	 esi
  00009	8b 75 10	 mov	 esi, DWORD PTR _level$[ebp]
  0000c	85 f6		 test	 esi, esi
  0000e	57		 push	 edi
  0000f	8b 7d 08	 mov	 edi, DWORD PTR _type$[ebp]
  00012	0f 48 f0	 cmovs	 esi, eax
  00015	8b c7		 mov	 eax, edi
  00017	c1 e0 09	 shl	 eax, 9
  0001a	03 c1		 add	 eax, ecx

; 5608 : 
; 5609 : 	if (ItemAttribute[item_num].MondownFlag  == 0)

  0001c	6b c0 70	 imul	 eax, eax, 112
  0001f	80 b8 27 00 00
	00 00		 cmp	 BYTE PTR ?ItemAttribute@@3PAUITEM_ATTRIBUTE@@A[eax+39], 0
  00026	0f 84 52 01 00
	00		 je	 $LN20@GetLevelIt

; 5610 : 	{
; 5611 : 		return -1;
; 5612 : 	}
; 5613 : 
; 5614 : 	if ( ItemAttribute[item_num].Level == 0xFF )

  0002c	8a 80 22 00 00
	00		 mov	 al, BYTE PTR ?ItemAttribute@@3PAUITEM_ATTRIBUTE@@A[eax+34]
  00032	3c ff		 cmp	 al, 255			; 000000ffH
  00034	0f 84 44 01 00
	00		 je	 $LN20@GetLevelIt

; 5615 : 	{
; 5616 : 		return -1;
; 5617 : 	}
; 5618 : 
; 5619 : 	if ( ItemAttribute[item_num].Level == 0 )

  0003a	84 c0		 test	 al, al
  0003c	0f 84 3c 01 00
	00		 je	 $LN20@GetLevelIt

; 5620 : 	{
; 5621 : 		return -1;
; 5622 : 	}
; 5623 : 
; 5624 : 	if ( type == 14 )

  00042	83 ff 0e	 cmp	 edi, 14			; 0000000eH
  00045	75 25		 jne	 SHORT $LN6@GetLevelIt

; 5625 : 	{
; 5626 : 		itemlevel = ItemAttribute[item_num].Level;

  00047	0f b6 d0	 movzx	 edx, al

; 5627 : 
; 5628 : 		if ( index == 15 )

  0004a	83 f9 0f	 cmp	 ecx, 15			; 0000000fH
  0004d	0f 84 2b 01 00
	00		 je	 $LN20@GetLevelIt

; 5629 : 		{
; 5630 : 			return -1;
; 5631 : 		}
; 5632 : 
; 5633 : 		if ( itemlevel >= (level-8) )

  00053	8d 46 f8	 lea	 eax, DWORD PTR [esi-8]
  00056	3b d0		 cmp	 edx, eax
  00058	0f 8c 20 01 00
	00		 jl	 $LN20@GetLevelIt

; 5634 : 		{
; 5635 : 			if ( itemlevel <= level )

  0005e	3b d6		 cmp	 edx, esi
  00060	0f 8f 18 01 00
	00		 jg	 $LN20@GetLevelIt
$LN28@GetLevelIt:
  00066	5f		 pop	 edi

; 5636 : 			{
; 5637 : 				return 0;

  00067	33 c0		 xor	 eax, eax
  00069	5e		 pop	 esi

; 5732 : }

  0006a	5d		 pop	 ebp
  0006b	c3		 ret	 0
$LN6@GetLevelIt:

; 5638 : 			}
; 5639 : 		}
; 5640 : 
; 5641 : 		return -1;
; 5642 : 	}
; 5643 : 
; 5644 : 	if ( type == 13 && index == 10  )

  0006c	83 ff 0d	 cmp	 edi, 13			; 0000000dH
  0006f	75 49		 jne	 SHORT $LN10@GetLevelIt
  00071	83 f9 0a	 cmp	 ecx, 10			; 0000000aH
  00074	0f 85 8a 00 00
	00		 jne	 $LN15@GetLevelIt

; 5645 : 	{
; 5646 : 		int ilevel;
; 5647 : 
; 5648 : 		if ( (rand()%10) == 0 )

  0007a	e8 00 00 00 00	 call	 _rand
  0007f	99		 cdq
  00080	b9 0a 00 00 00	 mov	 ecx, 10			; 0000000aH
  00085	f7 f9		 idiv	 ecx
  00087	85 d2		 test	 edx, edx
  00089	0f 85 ef 00 00
	00		 jne	 $LN20@GetLevelIt

; 5649 : 		{
; 5650 : 			ilevel = 0;
; 5651 : 
; 5652 : 			if ( level < 0 )

  0008f	33 c0		 xor	 eax, eax
  00091	85 f6		 test	 esi, esi
  00093	0f 48 f0	 cmovs	 esi, eax

; 5653 : 			{
; 5654 : 				level = 0;
; 5655 : 			}
; 5656 : 
; 5657 : 			ilevel= level/10;

  00096	b8 67 66 66 66	 mov	 eax, 1717986919		; 66666667H
  0009b	f7 ee		 imul	 esi
  0009d	c1 fa 02	 sar	 edx, 2
  000a0	8b c2		 mov	 eax, edx
  000a2	c1 e8 1f	 shr	 eax, 31			; 0000001fH
  000a5	03 c2		 add	 eax, edx

; 5658 : 
; 5659 : 			if ( ilevel > 0 )

  000a7	85 c0		 test	 eax, eax
  000a9	7e 01		 jle	 SHORT $LN13@GetLevelIt

; 5660 : 			{
; 5661 : 				ilevel--;

  000ab	48		 dec	 eax
$LN13@GetLevelIt:

; 5662 : 			}
; 5663 : 
; 5664 : 			if ( ilevel > 5)

  000ac	b9 05 00 00 00	 mov	 ecx, 5
  000b1	3b c1		 cmp	 eax, ecx
  000b3	5f		 pop	 edi

; 5720 : 			{
; 5721 : 				if ( itemlevel > 4 )

  000b4	0f 4f c1	 cmovg	 eax, ecx
  000b7	5e		 pop	 esi

; 5732 : }

  000b8	5d		 pop	 ebp
  000b9	c3		 ret	 0
$LN10@GetLevelIt:

; 5665 : 			{
; 5666 : 				ilevel = 5;
; 5667 : 			}
; 5668 : 
; 5669 : 			return ilevel;
; 5670 : 		}
; 5671 : 
; 5672 : 		return -1;
; 5673 : 	}
; 5674 : 
; 5675 : 	if ( type == 12 && index ==  11 )

  000ba	83 ff 0c	 cmp	 edi, 12			; 0000000cH
  000bd	75 45		 jne	 SHORT $LN15@GetLevelIt
  000bf	83 f9 0b	 cmp	 ecx, 11			; 0000000bH
  000c2	75 40		 jne	 SHORT $LN15@GetLevelIt

; 5676 : 	{
; 5677 : 		int ilevel;
; 5678 : 
; 5679 : 		if ( (rand()%10) == 0 )

  000c4	e8 00 00 00 00	 call	 _rand
  000c9	99		 cdq
  000ca	b9 0a 00 00 00	 mov	 ecx, 10			; 0000000aH
  000cf	f7 f9		 idiv	 ecx
  000d1	85 d2		 test	 edx, edx
  000d3	0f 85 a5 00 00
	00		 jne	 $LN20@GetLevelIt

; 5680 : 		{
; 5681 : 			ilevel = 0;
; 5682 : 
; 5683 : 			if ( level < 0 )

  000d9	33 c0		 xor	 eax, eax
  000db	85 f6		 test	 esi, esi
  000dd	0f 48 f0	 cmovs	 esi, eax

; 5684 : 			{
; 5685 : 				level = 0;
; 5686 : 			}
; 5687 : 
; 5688 : 			ilevel= level/10;

  000e0	b8 67 66 66 66	 mov	 eax, 1717986919		; 66666667H
  000e5	f7 ee		 imul	 esi
  000e7	c1 fa 02	 sar	 edx, 2
  000ea	8b c2		 mov	 eax, edx
  000ec	c1 e8 1f	 shr	 eax, 31			; 0000001fH
  000ef	03 c2		 add	 eax, edx

; 5689 : 
; 5690 : 			if ( ilevel > 0 )

  000f1	85 c0		 test	 eax, eax
  000f3	7e 01		 jle	 SHORT $LN18@GetLevelIt

; 5691 : 			{
; 5692 : 				ilevel--;

  000f5	48		 dec	 eax
$LN18@GetLevelIt:

; 5693 : 			}
; 5694 : 
; 5695 : 			if ( ilevel > 6)

  000f6	b9 06 00 00 00	 mov	 ecx, 6
  000fb	3b c1		 cmp	 eax, ecx
  000fd	5f		 pop	 edi

; 5720 : 			{
; 5721 : 				if ( itemlevel > 4 )

  000fe	0f 4f c1	 cmovg	 eax, ecx
  00101	5e		 pop	 esi

; 5732 : }

  00102	5d		 pop	 ebp
  00103	c3		 ret	 0
$LN15@GetLevelIt:

; 5696 : 			{
; 5697 : 				ilevel = 6;
; 5698 : 			}
; 5699 : 
; 5700 : 			return ilevel;
; 5701 : 		}
; 5702 : 
; 5703 : 		return -1;
; 5704 : 	}	
; 5705 : 
; 5706 : 	itemlevel = ItemAttribute[item_num].Level;

  00104	0f b6 d0	 movzx	 edx, al

; 5707 : 	
; 5708 : 	if ( itemlevel >= level - 18 && itemlevel <= level)

  00107	8d 46 ee	 lea	 eax, DWORD PTR [esi-18]
  0010a	3b d0		 cmp	 edx, eax
  0010c	7c 70		 jl	 SHORT $LN20@GetLevelIt
  0010e	3b d6		 cmp	 edx, esi
  00110	7f 6c		 jg	 SHORT $LN20@GetLevelIt

; 5709 : 	{
; 5710 : 		if ( type == 15 )

  00112	83 ff 0f	 cmp	 edi, 15			; 0000000fH
  00115	0f 84 4b ff ff
	ff		 je	 $LN28@GetLevelIt

; 5711 : 		{
; 5712 : 			return 0;
; 5713 : 		}
; 5714 : 
; 5715 : 		itemlevel = (level - itemlevel)/3;

  0011b	2b f2		 sub	 esi, edx
  0011d	b8 56 55 55 55	 mov	 eax, 1431655766		; 55555556H
  00122	f7 ee		 imul	 esi
  00124	8b c2		 mov	 eax, edx
  00126	c1 e8 1f	 shr	 eax, 31			; 0000001fH
  00129	03 c2		 add	 eax, edx

; 5716 : 
; 5717 : 		if ( type == 13 )

  0012b	83 ff 0d	 cmp	 edi, 13			; 0000000dH
  0012e	75 51		 jne	 SHORT $LN1@GetLevelIt

; 5718 : 		{
; 5719 : 			if ( index == 8 || index == 9 || index == 12 || index == 13 || index == 20 || index == 21 || index == 22 || index == 23 || index == 24 || index == 25 || index == 26 || index == 27 || index == 28 )

  00130	83 f9 08	 cmp	 ecx, 8
  00133	74 3b		 je	 SHORT $LN24@GetLevelIt
  00135	83 f9 09	 cmp	 ecx, 9
  00138	74 36		 je	 SHORT $LN24@GetLevelIt
  0013a	83 f9 0c	 cmp	 ecx, 12			; 0000000cH
  0013d	74 31		 je	 SHORT $LN24@GetLevelIt
  0013f	3b cf		 cmp	 ecx, edi
  00141	74 2d		 je	 SHORT $LN24@GetLevelIt
  00143	83 f9 14	 cmp	 ecx, 20			; 00000014H
  00146	74 28		 je	 SHORT $LN24@GetLevelIt
  00148	83 f9 15	 cmp	 ecx, 21			; 00000015H
  0014b	74 23		 je	 SHORT $LN24@GetLevelIt
  0014d	83 f9 16	 cmp	 ecx, 22			; 00000016H
  00150	74 1e		 je	 SHORT $LN24@GetLevelIt
  00152	83 f9 17	 cmp	 ecx, 23			; 00000017H
  00155	74 19		 je	 SHORT $LN24@GetLevelIt
  00157	83 f9 18	 cmp	 ecx, 24			; 00000018H
  0015a	74 14		 je	 SHORT $LN24@GetLevelIt
  0015c	83 f9 19	 cmp	 ecx, 25			; 00000019H
  0015f	74 0f		 je	 SHORT $LN24@GetLevelIt
  00161	83 f9 1a	 cmp	 ecx, 26			; 0000001aH
  00164	74 0a		 je	 SHORT $LN24@GetLevelIt
  00166	83 f9 1b	 cmp	 ecx, 27			; 0000001bH
  00169	74 05		 je	 SHORT $LN24@GetLevelIt
  0016b	83 f9 1c	 cmp	 ecx, 28			; 0000001cH
  0016e	75 11		 jne	 SHORT $LN1@GetLevelIt
$LN24@GetLevelIt:

; 5720 : 			{
; 5721 : 				if ( itemlevel > 4 )

  00170	b9 04 00 00 00	 mov	 ecx, 4
  00175	3b c1		 cmp	 eax, ecx
  00177	5f		 pop	 edi
  00178	0f 4f c1	 cmovg	 eax, ecx
  0017b	5e		 pop	 esi

; 5732 : }

  0017c	5d		 pop	 ebp
  0017d	c3		 ret	 0
$LN20@GetLevelIt:

; 5722 : 				{
; 5723 : 					itemlevel=4;
; 5724 : 				}
; 5725 : 			}
; 5726 : 		}
; 5727 : 
; 5728 : 		return itemlevel;
; 5729 : 		
; 5730 : 	}
; 5731 : 	return -1;

  0017e	83 c8 ff	 or	 eax, -1
$LN1@GetLevelIt:
  00181	5f		 pop	 edi
  00182	5e		 pop	 esi

; 5732 : }

  00183	5d		 pop	 ebp
  00184	c3		 ret	 0
?GetLevelItem@@YAHHHH@Z ENDP				; GetLevelItem
_TEXT	ENDS
; Function compile flags: /Ogtp
; File c:\users\michel\desktop\source\gameserver\common\zzzitem.cpp
;	COMDAT ?zzzItemLevel@@YAHHHH@Z
_TEXT	SEGMENT
_type$ = 8						; size = 4
_index$ = 12						; size = 4
_level$ = 16						; size = 4
?zzzItemLevel@@YAHHHH@Z PROC				; zzzItemLevel, COMDAT

; 5567 : {

  00000	55		 push	 ebp
  00001	8b ec		 mov	 ebp, esp

; 5568 : 	int item_num = (type*MAX_SUBTYPE_ITEMS)+index ;

  00003	8b 45 08	 mov	 eax, DWORD PTR _type$[ebp]

; 5569 : 
; 5570 : 	if (level < 0 )

  00006	33 c9		 xor	 ecx, ecx
  00008	8b 55 10	 mov	 edx, DWORD PTR _level$[ebp]
  0000b	c1 e0 09	 shl	 eax, 9
  0000e	03 45 0c	 add	 eax, DWORD PTR _index$[ebp]
  00011	85 d2		 test	 edx, edx
  00013	0f 48 d1	 cmovs	 edx, ecx

; 5571 : 	{
; 5572 : 		level = 0;
; 5573 : 	}
; 5574 : 	
; 5575 : 	if ( ItemAttribute[item_num].Level == (BYTE)-1 )

  00016	6b c0 70	 imul	 eax, eax, 112
  00019	8a 80 22 00 00
	00		 mov	 al, BYTE PTR ?ItemAttribute@@3PAUITEM_ATTRIBUTE@@A[eax+34]
  0001f	3c ff		 cmp	 al, 255			; 000000ffH
  00021	75 04		 jne	 SHORT $LN3@zzzItemLev
$LN7@zzzItemLev:

; 5576 : 	{
; 5577 : 		return 0;

  00023	33 c0		 xor	 eax, eax

; 5586 : 	{
; 5587 : 		return 1;
; 5588 : 	}
; 5589 : 
; 5590 : 	return 0;
; 5591 : }

  00025	5d		 pop	 ebp
  00026	c3		 ret	 0
$LN3@zzzItemLev:

; 5578 : 	}
; 5579 : 
; 5580 : 	if ( ItemAttribute[item_num].Level == 0 )

  00027	84 c0		 test	 al, al
  00029	74 f8		 je	 SHORT $LN7@zzzItemLev

; 5581 : 	{
; 5582 : 		return 0;
; 5583 : 	}
; 5584 : 
; 5585 : 	if ( ItemAttribute[item_num].Level < level )

  0002b	0f b6 c8	 movzx	 ecx, al
  0002e	33 c0		 xor	 eax, eax
  00030	3b ca		 cmp	 ecx, edx
  00032	0f 9c c0	 setl	 al

; 5586 : 	{
; 5587 : 		return 1;
; 5588 : 	}
; 5589 : 
; 5590 : 	return 0;
; 5591 : }

  00035	5d		 pop	 ebp
  00036	c3		 ret	 0
?zzzItemLevel@@YAHHHH@Z ENDP				; zzzItemLevel
_TEXT	ENDS
; Function compile flags: /Ogtp
; File c:\users\michel\desktop\source\gameserver\common\zzzitem.cpp
;	COMDAT ?OpenItemNameScript@@YAHPADH@Z
_TEXT	SEGMENT
_WzMemScript$ = -148					; size = 132
__$ArrayPad$ = -16					; size = 4
__$EHRec$ = -12						; size = 12
_Buffer$ = 8						; size = 4
_iSize$ = 12						; size = 4
?OpenItemNameScript@@YAHPADH@Z PROC			; OpenItemNameScript, COMDAT

; 5515 : {

  00000	55		 push	 ebp
  00001	8b ec		 mov	 ebp, esp
  00003	6a ff		 push	 -1
  00005	68 00 00 00 00	 push	 __ehhandler$?OpenItemNameScript@@YAHPADH@Z
  0000a	64 a1 00 00 00
	00		 mov	 eax, DWORD PTR fs:0
  00010	50		 push	 eax
  00011	81 ec 88 00 00
	00		 sub	 esp, 136		; 00000088H
  00017	a1 00 00 00 00	 mov	 eax, DWORD PTR ___security_cookie
  0001c	33 c5		 xor	 eax, ebp
  0001e	89 45 f0	 mov	 DWORD PTR __$ArrayPad$[ebp], eax
  00021	53		 push	 ebx
  00022	56		 push	 esi
  00023	57		 push	 edi
  00024	50		 push	 eax
  00025	8d 45 f4	 lea	 eax, DWORD PTR __$EHRec$[ebp]
  00028	64 a3 00 00 00
	00		 mov	 DWORD PTR fs:0, eax
  0002e	8b 75 08	 mov	 esi, DWORD PTR _Buffer$[ebp]

; 5516 : 	CWzMemScript WzMemScript;

  00031	8d 8d 6c ff ff
	ff		 lea	 ecx, DWORD PTR _WzMemScript$[ebp]
  00037	e8 00 00 00 00	 call	 ??0CWzMemScript@@QAE@XZ	; CWzMemScript::CWzMemScript

; 5517 : 	int Token;
; 5518 : 
; 5519 : 	WzMemScript.SetBuffer(Buffer, iSize);

  0003c	ff 75 0c	 push	 DWORD PTR _iSize$[ebp]
  0003f	8d 8d 6c ff ff
	ff		 lea	 ecx, DWORD PTR _WzMemScript$[ebp]
  00045	c7 45 fc 00 00
	00 00		 mov	 DWORD PTR __$EHRec$[ebp+8], 0
  0004c	56		 push	 esi
  0004d	e8 00 00 00 00	 call	 ?SetBuffer@CWzMemScript@@QAEHPADH@Z ; CWzMemScript::SetBuffer

; 5520 : 
; 5521 : 	while ( true )
; 5522 : 	{
; 5523 : 		Token = WzMemScript.GetToken();

  00052	8d 8d 6c ff ff
	ff		 lea	 ecx, DWORD PTR _WzMemScript$[ebp]
  00058	e8 00 00 00 00	 call	 ?GetToken@CWzMemScript@@QAE?AW4SMDToken@@XZ ; CWzMemScript::GetToken

; 5524 : 
; 5525 : 		if ( Token == 2 )

  0005d	83 f8 02	 cmp	 eax, 2
  00060	0f 84 c1 00 00
	00		 je	 $LN18@OpenItemNa
$LL2@OpenItemNa:

; 5526 : 		{
; 5527 : 			break;
; 5528 : 		}
; 5529 : 
; 5530 : 		if ( Token == 1 )

  00066	83 f8 01	 cmp	 eax, 1
  00069	0f 85 a4 00 00
	00		 jne	 $LN17@OpenItemNa

; 5531 : 		{
; 5532 : 			int ItemType;
; 5533 : 
; 5534 : 			ItemType = WzMemScript.GetNumber();

  0006f	8d 8d 6c ff ff
	ff		 lea	 ecx, DWORD PTR _WzMemScript$[ebp]
  00075	e8 00 00 00 00	 call	 ?GetNumber@CWzMemScript@@QAEHXZ ; CWzMemScript::GetNumber
  0007a	8b d8		 mov	 ebx, eax
  0007c	0f 1f 40 00	 npad	 4
$LL4@OpenItemNa:

; 5535 : 
; 5536 : 			while ( true )
; 5537 : 			{
; 5538 : 				int ItemSubType;
; 5539 : 				LPITEM_ATTRIBUTE p;
; 5540 : 
; 5541 : 				Token = WzMemScript.GetToken();

  00080	8d 8d 6c ff ff
	ff		 lea	 ecx, DWORD PTR _WzMemScript$[ebp]
  00086	e8 00 00 00 00	 call	 ?GetToken@CWzMemScript@@QAE?AW4SMDToken@@XZ ; CWzMemScript::GetToken

; 5542 : 				ItemSubType = WzMemScript.GetNumber();

  0008b	8d 8d 6c ff ff
	ff		 lea	 ecx, DWORD PTR _WzMemScript$[ebp]
  00091	8b f0		 mov	 esi, eax
  00093	e8 00 00 00 00	 call	 ?GetNumber@CWzMemScript@@QAEHXZ ; CWzMemScript::GetNumber
  00098	8b f8		 mov	 edi, eax

; 5543 : 				
; 5544 : 				if ( Token == 0 )

  0009a	85 f6		 test	 esi, esi
  0009c	75 3b		 jne	 SHORT $LN9@OpenItemNa

; 5545 : 				{
; 5546 : 					if ( strcmp("end", WzMemScript.GetString() ) == 0 )

  0009e	8d 8d 6c ff ff
	ff		 lea	 ecx, DWORD PTR _WzMemScript$[ebp]
  000a4	e8 00 00 00 00	 call	 ?GetString@CWzMemScript@@QAEPADXZ ; CWzMemScript::GetString
  000a9	b9 00 00 00 00	 mov	 ecx, OFFSET ??_C@_03JBJLGPFL@end?$AA@
  000ae	66 90		 npad	 2
$LL25@OpenItemNa:
  000b0	8a 11		 mov	 dl, BYTE PTR [ecx]
  000b2	3a 10		 cmp	 dl, BYTE PTR [eax]
  000b4	75 1a		 jne	 SHORT $LN26@OpenItemNa
  000b6	84 d2		 test	 dl, dl
  000b8	74 12		 je	 SHORT $LN27@OpenItemNa
  000ba	8a 51 01	 mov	 dl, BYTE PTR [ecx+1]
  000bd	3a 50 01	 cmp	 dl, BYTE PTR [eax+1]
  000c0	75 0e		 jne	 SHORT $LN26@OpenItemNa
  000c2	83 c1 02	 add	 ecx, 2
  000c5	83 c0 02	 add	 eax, 2
  000c8	84 d2		 test	 dl, dl
  000ca	75 e4		 jne	 SHORT $LL25@OpenItemNa
$LN27@OpenItemNa:
  000cc	33 c0		 xor	 eax, eax
  000ce	eb 05		 jmp	 SHORT $LN28@OpenItemNa
$LN26@OpenItemNa:
  000d0	1b c0		 sbb	 eax, eax
  000d2	83 c8 01	 or	 eax, 1
$LN28@OpenItemNa:
  000d5	85 c0		 test	 eax, eax
  000d7	74 3a		 je	 SHORT $LN17@OpenItemNa
$LN9@OpenItemNa:

; 5547 : 					{
; 5548 : 						break;
; 5549 : 					}
; 5550 : 				}
; 5551 : 					
; 5552 : 				p = &ItemAttribute[ItemType*MAX_SUBTYPE_ITEMS + ItemSubType];
; 5553 : 
; 5554 : 				Token = WzMemScript.GetToken();

  000d9	8d 8d 6c ff ff
	ff		 lea	 ecx, DWORD PTR _WzMemScript$[ebp]
  000df	e8 00 00 00 00	 call	 ?GetToken@CWzMemScript@@QAE?AW4SMDToken@@XZ ; CWzMemScript::GetToken

; 5555 : 				strcpy(&p->Name[0], WzMemScript.GetString() );

  000e4	8d 8d 6c ff ff
	ff		 lea	 ecx, DWORD PTR _WzMemScript$[ebp]
  000ea	e8 00 00 00 00	 call	 ?GetString@CWzMemScript@@QAEPADXZ ; CWzMemScript::GetString
  000ef	8b cb		 mov	 ecx, ebx
  000f1	c1 e1 09	 shl	 ecx, 9
  000f4	03 cf		 add	 ecx, edi
  000f6	6b c9 70	 imul	 ecx, ecx, 112
  000f9	2b c8		 sub	 ecx, eax
  000fb	8d 91 00 00 00
	00		 lea	 edx, DWORD PTR ?ItemAttribute@@3PAUITEM_ATTRIBUTE@@A[ecx]
$LL11@OpenItemNa:
  00101	8a 08		 mov	 cl, BYTE PTR [eax]
  00103	8d 40 01	 lea	 eax, DWORD PTR [eax+1]
  00106	88 4c 02 ff	 mov	 BYTE PTR [edx+eax-1], cl
  0010a	84 c9		 test	 cl, cl
  0010c	75 f3		 jne	 SHORT $LL11@OpenItemNa

; 5556 : 
; 5557 : 				
; 5558 : 			}

  0010e	e9 6d ff ff ff	 jmp	 $LL4@OpenItemNa
$LN17@OpenItemNa:

; 5520 : 
; 5521 : 	while ( true )
; 5522 : 	{
; 5523 : 		Token = WzMemScript.GetToken();

  00113	8d 8d 6c ff ff
	ff		 lea	 ecx, DWORD PTR _WzMemScript$[ebp]
  00119	e8 00 00 00 00	 call	 ?GetToken@CWzMemScript@@QAE?AW4SMDToken@@XZ ; CWzMemScript::GetToken

; 5524 : 
; 5525 : 		if ( Token == 2 )

  0011e	83 f8 02	 cmp	 eax, 2
  00121	0f 85 3f ff ff
	ff		 jne	 $LL2@OpenItemNa
$LN18@OpenItemNa:

; 5559 : 		}
; 5560 : 	}
; 5561 : 	return TRUE;

  00127	8d 8d 6c ff ff
	ff		 lea	 ecx, DWORD PTR _WzMemScript$[ebp]
  0012d	e8 00 00 00 00	 call	 ??1CWzMemScript@@UAE@XZ	; CWzMemScript::~CWzMemScript
  00132	b8 01 00 00 00	 mov	 eax, 1

; 5562 : }

  00137	8b 4d f4	 mov	 ecx, DWORD PTR __$EHRec$[ebp]
  0013a	64 89 0d 00 00
	00 00		 mov	 DWORD PTR fs:0, ecx
  00141	59		 pop	 ecx
  00142	5f		 pop	 edi
  00143	5e		 pop	 esi
  00144	5b		 pop	 ebx
  00145	8b 4d f0	 mov	 ecx, DWORD PTR __$ArrayPad$[ebp]
  00148	33 cd		 xor	 ecx, ebp
  0014a	e8 00 00 00 00	 call	 @__security_check_cookie@4
  0014f	8b e5		 mov	 esp, ebp
  00151	5d		 pop	 ebp
  00152	c3		 ret	 0
_TEXT	ENDS
;	COMDAT text$x
text$x	SEGMENT
__unwindfunclet$?OpenItemNameScript@@YAHPADH@Z$0:
  00000	8d 8d 6c ff ff
	ff		 lea	 ecx, DWORD PTR _WzMemScript$[ebp]
  00006	e9 00 00 00 00	 jmp	 ??1CWzMemScript@@UAE@XZ	; CWzMemScript::~CWzMemScript
__ehhandler$?OpenItemNameScript@@YAHPADH@Z:
  0000b	8b 54 24 08	 mov	 edx, DWORD PTR [esp+8]
  0000f	8d 42 0c	 lea	 eax, DWORD PTR [edx+12]
  00012	8b 8a 68 ff ff
	ff		 mov	 ecx, DWORD PTR [edx-152]
  00018	33 c8		 xor	 ecx, eax
  0001a	e8 00 00 00 00	 call	 @__security_check_cookie@4
  0001f	8b 4a fc	 mov	 ecx, DWORD PTR [edx-4]
  00022	33 c8		 xor	 ecx, eax
  00024	e8 00 00 00 00	 call	 @__security_check_cookie@4
  00029	b8 00 00 00 00	 mov	 eax, OFFSET __ehfuncinfo$?OpenItemNameScript@@YAHPADH@Z
  0002e	e9 00 00 00 00	 jmp	 ___CxxFrameHandler3
text$x	ENDS
?OpenItemNameScript@@YAHPADH@Z ENDP			; OpenItemNameScript
; Function compile flags: /Ogtp
; File c:\users\michel\desktop\source\gameserver\common\zzzitem.cpp
;	COMDAT ?OpenItemScript@@YAHPADH@Z
_TEXT	SEGMENT
_loop_count$1$ = -152					; size = 4
_WzMemScript$ = -148					; size = 132
__$ArrayPad$ = -16					; size = 4
__$EHRec$ = -12						; size = 12
_Buffer$ = 8						; size = 4
_iSize$ = 12						; size = 4
?OpenItemScript@@YAHPADH@Z PROC				; OpenItemScript, COMDAT

; 5167 : {

  00000	55		 push	 ebp
  00001	8b ec		 mov	 ebp, esp
  00003	6a ff		 push	 -1
  00005	68 00 00 00 00	 push	 __ehhandler$?OpenItemScript@@YAHPADH@Z
  0000a	64 a1 00 00 00
	00		 mov	 eax, DWORD PTR fs:0
  00010	50		 push	 eax
  00011	81 ec 8c 00 00
	00		 sub	 esp, 140		; 0000008cH
  00017	a1 00 00 00 00	 mov	 eax, DWORD PTR ___security_cookie
  0001c	33 c5		 xor	 eax, ebp
  0001e	89 45 f0	 mov	 DWORD PTR __$ArrayPad$[ebp], eax
  00021	53		 push	 ebx
  00022	56		 push	 esi
  00023	57		 push	 edi
  00024	50		 push	 eax
  00025	8d 45 f4	 lea	 eax, DWORD PTR __$EHRec$[ebp]
  00028	64 a3 00 00 00
	00		 mov	 DWORD PTR fs:0, eax
  0002e	8b 75 08	 mov	 esi, DWORD PTR _Buffer$[ebp]

; 5168 : 	CWzMemScript WzMemScript;

  00031	8d 8d 6c ff ff
	ff		 lea	 ecx, DWORD PTR _WzMemScript$[ebp]
  00037	e8 00 00 00 00	 call	 ??0CWzMemScript@@QAE@XZ	; CWzMemScript::CWzMemScript

; 5169 : 	int n;
; 5170 : 	int loop_count;
; 5171 : 
; 5172 : 	int Token;
; 5173 : 
; 5174 : 	WzMemScript.SetBuffer(Buffer, iSize);

  0003c	ff 75 0c	 push	 DWORD PTR _iSize$[ebp]
  0003f	8d 8d 6c ff ff
	ff		 lea	 ecx, DWORD PTR _WzMemScript$[ebp]
  00045	c7 45 fc 00 00
	00 00		 mov	 DWORD PTR __$EHRec$[ebp+8], 0
  0004c	56		 push	 esi
  0004d	e8 00 00 00 00	 call	 ?SetBuffer@CWzMemScript@@QAEHPADH@Z ; CWzMemScript::SetBuffer

; 5175 : 
; 5176 : 	memset ( ItemAttribute, 0, sizeof(ItemAttribute) );

  00052	68 00 00 0e 00	 push	 917504			; 000e0000H
  00057	6a 00		 push	 0
  00059	68 00 00 00 00	 push	 OFFSET ?ItemAttribute@@3PAUITEM_ATTRIBUTE@@A
  0005e	e8 00 00 00 00	 call	 _memset
  00063	83 c4 0c	 add	 esp, 12			; 0000000cH
  00066	b8 58 00 00 00	 mov	 eax, OFFSET ?ItemAttribute@@3PAUITEM_ATTRIBUTE@@A+88
  0006b	0f 1f 44 00 00	 npad	 5
$LL4@OpenItemSc:

; 5177 : 	
; 5178 : 	for ( n=0;n<MAX_ITEMS;n++)
; 5179 : 	{
; 5180 : 		ItemAttribute[n].Level = -1;

  00070	c6 40 ca ff	 mov	 BYTE PTR [eax-54], 255	; 000000ffH

; 5181 : 		ItemAttribute[n].RepaireMoneyRate  = 0;

  00074	c7 00 00 00 00
	00		 mov	 DWORD PTR [eax], 0

; 5182 : 		ItemAttribute[n].AllRepaireMoneyRate  = 0;

  0007a	c7 40 04 00 00
	00 00		 mov	 DWORD PTR [eax+4], 0
  00081	83 c0 70	 add	 eax, 112		; 00000070H
  00084	3d 58 00 0e 00	 cmp	 eax, OFFSET ?ItemAttribute@@3PAUITEM_ATTRIBUTE@@A+917592
  00089	7c e5		 jl	 SHORT $LL4@OpenItemSc

; 5183 : 	}
; 5184 : 
; 5185 : 	while ( true )
; 5186 : 	{
; 5187 : 		Token = WzMemScript.GetToken();

  0008b	8d 8d 6c ff ff
	ff		 lea	 ecx, DWORD PTR _WzMemScript$[ebp]
  00091	e8 00 00 00 00	 call	 ?GetToken@CWzMemScript@@QAE?AW4SMDToken@@XZ ; CWzMemScript::GetToken

; 5188 : 
; 5189 : 		if ( Token == 2 )

  00096	83 f8 02	 cmp	 eax, 2
  00099	0f 84 4f 08 00
	00		 je	 $LN49@OpenItemSc
  0009f	90		 npad	 1
$LL5@OpenItemSc:

; 5190 : 		{
; 5191 : 			break;
; 5192 : 		}
; 5193 : 		
; 5194 : 		if ( Token == 1 )

  000a0	83 f8 01	 cmp	 eax, 1
  000a3	0f 85 31 08 00
	00		 jne	 $LN8@OpenItemSc

; 5195 : 		{
; 5196 : 			int ItemType;
; 5197 : 
; 5198 : 			ItemType = WzMemScript.GetNumber();

  000a9	8d 8d 6c ff ff
	ff		 lea	 ecx, DWORD PTR _WzMemScript$[ebp]
  000af	e8 00 00 00 00	 call	 ?GetNumber@CWzMemScript@@QAEHXZ ; CWzMemScript::GetNumber
  000b4	8b f8		 mov	 edi, eax

; 5199 : 			loop_count = 0;

  000b6	c7 85 68 ff ff
	ff 00 00 00 00	 mov	 DWORD PTR _loop_count$1$[ebp], 0
$LL7@OpenItemSc:

; 5200 : 			while ( true )
; 5201 : 			{
; 5202 : 				int ItemSubType;
; 5203 : 				LPITEM_ATTRIBUTE p;
; 5204 : 
; 5205 : 				
; 5206 : 				Token = WzMemScript.GetToken();

  000c0	8d 8d 6c ff ff
	ff		 lea	 ecx, DWORD PTR _WzMemScript$[ebp]
  000c6	e8 00 00 00 00	 call	 ?GetToken@CWzMemScript@@QAE?AW4SMDToken@@XZ ; CWzMemScript::GetToken

; 5207 : 				ItemSubType = WzMemScript.GetNumber();

  000cb	8d 8d 6c ff ff
	ff		 lea	 ecx, DWORD PTR _WzMemScript$[ebp]
  000d1	8b f0		 mov	 esi, eax
  000d3	e8 00 00 00 00	 call	 ?GetNumber@CWzMemScript@@QAEHXZ ; CWzMemScript::GetNumber
  000d8	8b d8		 mov	 ebx, eax

; 5208 : 
; 5209 : 				if ( ItemType >= 0 && ItemType < MAX_TYPE_ITEMS )

  000da	83 ff 0f	 cmp	 edi, 15			; 0000000fH
  000dd	77 10		 ja	 SHORT $LN15@OpenItemSc

; 5210 : 				{
; 5211 : 					if ( g_MaxItemIndexOfEachItemType[ItemType] <= ItemSubType )

  000df	39 1c bd 00 00
	00 00		 cmp	 DWORD PTR ?g_MaxItemIndexOfEachItemType@@3PAHA[edi*4], ebx
  000e6	7f 07		 jg	 SHORT $LN15@OpenItemSc

; 5212 : 					{
; 5213 : 						g_MaxItemIndexOfEachItemType[ItemType] = ItemSubType;

  000e8	89 1c bd 00 00
	00 00		 mov	 DWORD PTR ?g_MaxItemIndexOfEachItemType@@3PAHA[edi*4], ebx
$LN15@OpenItemSc:

; 5214 : 					}
; 5215 : 				}
; 5216 : 				
; 5217 : 				if ( Token == 0 )

  000ef	85 f6		 test	 esi, esi
  000f1	75 3d		 jne	 SHORT $LN17@OpenItemSc

; 5218 : 				{
; 5219 : 					if ( strcmp("end", WzMemScript.GetString() ) == 0 )

  000f3	8d 8d 6c ff ff
	ff		 lea	 ecx, DWORD PTR _WzMemScript$[ebp]
  000f9	e8 00 00 00 00	 call	 ?GetString@CWzMemScript@@QAEPADXZ ; CWzMemScript::GetString
  000fe	b9 00 00 00 00	 mov	 ecx, OFFSET ??_C@_03JBJLGPFL@end?$AA@
$LL63@OpenItemSc:
  00103	8a 11		 mov	 dl, BYTE PTR [ecx]
  00105	3a 10		 cmp	 dl, BYTE PTR [eax]
  00107	75 1a		 jne	 SHORT $LN64@OpenItemSc
  00109	84 d2		 test	 dl, dl
  0010b	74 12		 je	 SHORT $LN65@OpenItemSc
  0010d	8a 51 01	 mov	 dl, BYTE PTR [ecx+1]
  00110	3a 50 01	 cmp	 dl, BYTE PTR [eax+1]
  00113	75 0e		 jne	 SHORT $LN64@OpenItemSc
  00115	83 c1 02	 add	 ecx, 2
  00118	83 c0 02	 add	 eax, 2
  0011b	84 d2		 test	 dl, dl
  0011d	75 e4		 jne	 SHORT $LL63@OpenItemSc
$LN65@OpenItemSc:
  0011f	33 c0		 xor	 eax, eax
  00121	eb 05		 jmp	 SHORT $LN66@OpenItemSc
$LN64@OpenItemSc:
  00123	1b c0		 sbb	 eax, eax
  00125	83 c8 01	 or	 eax, 1
$LN66@OpenItemSc:
  00128	85 c0		 test	 eax, eax
  0012a	0f 84 aa 07 00
	00		 je	 $LN8@OpenItemSc
$LN17@OpenItemSc:

; 5220 : 					{
; 5221 : 						break;
; 5222 : 					}
; 5223 : 				}
; 5224 : 					
; 5225 : 				p = &ItemAttribute[ItemType*MAX_SUBTYPE_ITEMS + ItemSubType];

  00130	8b c7		 mov	 eax, edi

; 5226 : 
; 5227 : 				Token = WzMemScript.GetToken();

  00132	8d 8d 6c ff ff
	ff		 lea	 ecx, DWORD PTR _WzMemScript$[ebp]
  00138	c1 e0 09	 shl	 eax, 9
  0013b	03 c3		 add	 eax, ebx
  0013d	6b f0 70	 imul	 esi, eax, 112
  00140	81 c6 00 00 00
	00		 add	 esi, OFFSET ?ItemAttribute@@3PAUITEM_ATTRIBUTE@@A
  00146	e8 00 00 00 00	 call	 ?GetToken@CWzMemScript@@QAE?AW4SMDToken@@XZ ; CWzMemScript::GetToken

; 5228 : 				p->ItemSlot = WzMemScript.GetNumber();

  0014b	8d 8d 6c ff ff
	ff		 lea	 ecx, DWORD PTR _WzMemScript$[ebp]
  00151	e8 00 00 00 00	 call	 ?GetNumber@CWzMemScript@@QAEHXZ ; CWzMemScript::GetNumber

; 5229 : 
; 5230 : 				Token = WzMemScript.GetToken();

  00156	8d 8d 6c ff ff
	ff		 lea	 ecx, DWORD PTR _WzMemScript$[ebp]
  0015c	89 46 64	 mov	 DWORD PTR [esi+100], eax
  0015f	e8 00 00 00 00	 call	 ?GetToken@CWzMemScript@@QAE?AW4SMDToken@@XZ ; CWzMemScript::GetToken

; 5231 : 				p->SkillType = WzMemScript.GetNumber();

  00164	8d 8d 6c ff ff
	ff		 lea	 ecx, DWORD PTR _WzMemScript$[ebp]
  0016a	e8 00 00 00 00	 call	 ?GetNumber@CWzMemScript@@QAEHXZ ; CWzMemScript::GetNumber

; 5232 : 
; 5233 : 				Token = WzMemScript.GetToken();

  0016f	8d 8d 6c ff ff
	ff		 lea	 ecx, DWORD PTR _WzMemScript$[ebp]
  00175	89 46 68	 mov	 DWORD PTR [esi+104], eax
  00178	e8 00 00 00 00	 call	 ?GetToken@CWzMemScript@@QAE?AW4SMDToken@@XZ ; CWzMemScript::GetToken

; 5234 : 				p->Width  = WzMemScript.GetNumber();

  0017d	8d 8d 6c ff ff
	ff		 lea	 ecx, DWORD PTR _WzMemScript$[ebp]
  00183	e8 00 00 00 00	 call	 ?GetNumber@CWzMemScript@@QAEHXZ ; CWzMemScript::GetNumber

; 5235 : 
; 5236 : 				Token = WzMemScript.GetToken();

  00188	8d 8d 6c ff ff
	ff		 lea	 ecx, DWORD PTR _WzMemScript$[ebp]
  0018e	88 46 23	 mov	 BYTE PTR [esi+35], al
  00191	e8 00 00 00 00	 call	 ?GetToken@CWzMemScript@@QAE?AW4SMDToken@@XZ ; CWzMemScript::GetToken

; 5237 : 				p->Height  = WzMemScript.GetNumber();

  00196	8d 8d 6c ff ff
	ff		 lea	 ecx, DWORD PTR _WzMemScript$[ebp]
  0019c	e8 00 00 00 00	 call	 ?GetNumber@CWzMemScript@@QAEHXZ ; CWzMemScript::GetNumber

; 5238 : 
; 5239 : 				Token = WzMemScript.GetToken();

  001a1	8d 8d 6c ff ff
	ff		 lea	 ecx, DWORD PTR _WzMemScript$[ebp]
  001a7	88 46 24	 mov	 BYTE PTR [esi+36], al
  001aa	e8 00 00 00 00	 call	 ?GetToken@CWzMemScript@@QAE?AW4SMDToken@@XZ ; CWzMemScript::GetToken

; 5240 : 				p->Serial = WzMemScript.GetNumber();

  001af	8d 8d 6c ff ff
	ff		 lea	 ecx, DWORD PTR _WzMemScript$[ebp]
  001b5	e8 00 00 00 00	 call	 ?GetNumber@CWzMemScript@@QAEHXZ ; CWzMemScript::GetNumber

; 5241 : 
; 5242 : 				Token = WzMemScript.GetToken();

  001ba	8d 8d 6c ff ff
	ff		 lea	 ecx, DWORD PTR _WzMemScript$[ebp]
  001c0	88 46 25	 mov	 BYTE PTR [esi+37], al
  001c3	e8 00 00 00 00	 call	 ?GetToken@CWzMemScript@@QAE?AW4SMDToken@@XZ ; CWzMemScript::GetToken

; 5243 : 				p->OptionFlag = WzMemScript.GetNumber();

  001c8	8d 8d 6c ff ff
	ff		 lea	 ecx, DWORD PTR _WzMemScript$[ebp]
  001ce	e8 00 00 00 00	 call	 ?GetNumber@CWzMemScript@@QAEHXZ ; CWzMemScript::GetNumber

; 5244 : 
; 5245 : 				Token = WzMemScript.GetToken();

  001d3	8d 8d 6c ff ff
	ff		 lea	 ecx, DWORD PTR _WzMemScript$[ebp]
  001d9	88 46 26	 mov	 BYTE PTR [esi+38], al
  001dc	e8 00 00 00 00	 call	 ?GetToken@CWzMemScript@@QAE?AW4SMDToken@@XZ ; CWzMemScript::GetToken

; 5246 : 				p->MondownFlag = WzMemScript.GetNumber();

  001e1	8d 8d 6c ff ff
	ff		 lea	 ecx, DWORD PTR _WzMemScript$[ebp]
  001e7	e8 00 00 00 00	 call	 ?GetNumber@CWzMemScript@@QAEHXZ ; CWzMemScript::GetNumber

; 5247 : 
; 5248 : 				Token = WzMemScript.GetToken();

  001ec	8d 8d 6c ff ff
	ff		 lea	 ecx, DWORD PTR _WzMemScript$[ebp]
  001f2	88 46 27	 mov	 BYTE PTR [esi+39], al
  001f5	e8 00 00 00 00	 call	 ?GetToken@CWzMemScript@@QAE?AW4SMDToken@@XZ ; CWzMemScript::GetToken

; 5249 : 				strcpy(&p->Name[0], WzMemScript.GetString() );

  001fa	8d 8d 6c ff ff
	ff		 lea	 ecx, DWORD PTR _WzMemScript$[ebp]
  00200	e8 00 00 00 00	 call	 ?GetString@CWzMemScript@@QAEPADXZ ; CWzMemScript::GetString
  00205	8b d6		 mov	 edx, esi
  00207	2b d0		 sub	 edx, eax
  00209	0f 1f 80 00 00
	00 00		 npad	 7
$LL39@OpenItemSc:
  00210	8a 08		 mov	 cl, BYTE PTR [eax]
  00212	8d 40 01	 lea	 eax, DWORD PTR [eax+1]
  00215	88 4c 10 ff	 mov	 BYTE PTR [eax+edx-1], cl
  00219	84 c9		 test	 cl, cl
  0021b	75 f3		 jne	 SHORT $LL39@OpenItemSc

; 5250 : 
; 5251 : 				if ( ItemType >= 0 && ItemType <= 5 )

  0021d	83 ff 05	 cmp	 edi, 5
  00220	0f 87 5a 01 00
	00		 ja	 $LN18@OpenItemSc

; 5252 : 				{
; 5253 : 					Token = WzMemScript.GetToken();

  00226	8d 8d 6c ff ff
	ff		 lea	 ecx, DWORD PTR _WzMemScript$[ebp]
  0022c	e8 00 00 00 00	 call	 ?GetToken@CWzMemScript@@QAE?AW4SMDToken@@XZ ; CWzMemScript::GetToken

; 5254 : 					p->Level = WzMemScript.GetNumber();

  00231	8d 8d 6c ff ff
	ff		 lea	 ecx, DWORD PTR _WzMemScript$[ebp]
  00237	e8 00 00 00 00	 call	 ?GetNumber@CWzMemScript@@QAEHXZ ; CWzMemScript::GetNumber

; 5255 : 
; 5256 : 					Token = WzMemScript.GetToken();

  0023c	8d 8d 6c ff ff
	ff		 lea	 ecx, DWORD PTR _WzMemScript$[ebp]
  00242	88 46 22	 mov	 BYTE PTR [esi+34], al
  00245	e8 00 00 00 00	 call	 ?GetToken@CWzMemScript@@QAE?AW4SMDToken@@XZ ; CWzMemScript::GetToken

; 5257 : 					p->DamageMin = WzMemScript.GetNumber();

  0024a	8d 8d 6c ff ff
	ff		 lea	 ecx, DWORD PTR _WzMemScript$[ebp]
  00250	e8 00 00 00 00	 call	 ?GetNumber@CWzMemScript@@QAEHXZ ; CWzMemScript::GetNumber

; 5258 : 
; 5259 : 					Token = WzMemScript.GetToken();

  00255	8d 8d 6c ff ff
	ff		 lea	 ecx, DWORD PTR _WzMemScript$[ebp]
  0025b	88 46 2a	 mov	 BYTE PTR [esi+42], al
  0025e	e8 00 00 00 00	 call	 ?GetToken@CWzMemScript@@QAE?AW4SMDToken@@XZ ; CWzMemScript::GetToken

; 5260 : 					p->DamageMax = WzMemScript.GetNumber();

  00263	8d 8d 6c ff ff
	ff		 lea	 ecx, DWORD PTR _WzMemScript$[ebp]
  00269	e8 00 00 00 00	 call	 ?GetNumber@CWzMemScript@@QAEHXZ ; CWzMemScript::GetNumber

; 5261 : 
; 5262 : 					Token = WzMemScript.GetToken();

  0026e	8d 8d 6c ff ff
	ff		 lea	 ecx, DWORD PTR _WzMemScript$[ebp]
  00274	88 46 2b	 mov	 BYTE PTR [esi+43], al
  00277	e8 00 00 00 00	 call	 ?GetToken@CWzMemScript@@QAE?AW4SMDToken@@XZ ; CWzMemScript::GetToken

; 5263 : 					p->AttackSpeed = WzMemScript.GetNumber();

  0027c	8d 8d 6c ff ff
	ff		 lea	 ecx, DWORD PTR _WzMemScript$[ebp]
  00282	e8 00 00 00 00	 call	 ?GetNumber@CWzMemScript@@QAEHXZ ; CWzMemScript::GetNumber

; 5264 : 
; 5265 : 					Token = WzMemScript.GetToken();

  00287	8d 8d 6c ff ff
	ff		 lea	 ecx, DWORD PTR _WzMemScript$[ebp]
  0028d	88 46 28	 mov	 BYTE PTR [esi+40], al
  00290	e8 00 00 00 00	 call	 ?GetToken@CWzMemScript@@QAE?AW4SMDToken@@XZ ; CWzMemScript::GetToken

; 5266 : 					p->Durability = WzMemScript.GetNumber();

  00295	8d 8d 6c ff ff
	ff		 lea	 ecx, DWORD PTR _WzMemScript$[ebp]
  0029b	e8 00 00 00 00	 call	 ?GetNumber@CWzMemScript@@QAEHXZ ; CWzMemScript::GetNumber

; 5267 : 
; 5268 : 					Token = WzMemScript.GetToken();

  002a0	8d 8d 6c ff ff
	ff		 lea	 ecx, DWORD PTR _WzMemScript$[ebp]
  002a6	88 46 30	 mov	 BYTE PTR [esi+48], al
  002a9	e8 00 00 00 00	 call	 ?GetToken@CWzMemScript@@QAE?AW4SMDToken@@XZ ; CWzMemScript::GetToken

; 5269 : 					p->MagicDurability = WzMemScript.GetNumber();

  002ae	8d 8d 6c ff ff
	ff		 lea	 ecx, DWORD PTR _WzMemScript$[ebp]
  002b4	e8 00 00 00 00	 call	 ?GetNumber@CWzMemScript@@QAEHXZ ; CWzMemScript::GetNumber

; 5270 : 
; 5271 : 					Token = WzMemScript.GetToken();

  002b9	8d 8d 6c ff ff
	ff		 lea	 ecx, DWORD PTR _WzMemScript$[ebp]
  002bf	88 46 31	 mov	 BYTE PTR [esi+49], al
  002c2	e8 00 00 00 00	 call	 ?GetToken@CWzMemScript@@QAE?AW4SMDToken@@XZ ; CWzMemScript::GetToken

; 5272 : 					p->MagicPW = WzMemScript.GetNumber();

  002c7	8d 8d 6c ff ff
	ff		 lea	 ecx, DWORD PTR _WzMemScript$[ebp]
  002cd	e8 00 00 00 00	 call	 ?GetNumber@CWzMemScript@@QAEHXZ ; CWzMemScript::GetNumber

; 5273 : 
; 5274 : 					Token = WzMemScript.GetToken();

  002d2	8d 8d 6c ff ff
	ff		 lea	 ecx, DWORD PTR _WzMemScript$[ebp]
  002d8	89 46 54	 mov	 DWORD PTR [esi+84], eax
  002db	e8 00 00 00 00	 call	 ?GetToken@CWzMemScript@@QAE?AW4SMDToken@@XZ ; CWzMemScript::GetToken

; 5275 : 					p->RequireLevel = WzMemScript.GetNumber();

  002e0	8d 8d 6c ff ff
	ff		 lea	 ecx, DWORD PTR _WzMemScript$[ebp]
  002e6	e8 00 00 00 00	 call	 ?GetNumber@CWzMemScript@@QAEHXZ ; CWzMemScript::GetNumber

; 5276 : 
; 5277 : 					Token = WzMemScript.GetToken();

  002eb	8d 8d 6c ff ff
	ff		 lea	 ecx, DWORD PTR _WzMemScript$[ebp]
  002f1	66 89 46 3a	 mov	 WORD PTR [esi+58], ax
  002f5	e8 00 00 00 00	 call	 ?GetToken@CWzMemScript@@QAE?AW4SMDToken@@XZ ; CWzMemScript::GetToken

; 5278 : 					p->RequireStrength = WzMemScript.GetNumber();

  002fa	8d 8d 6c ff ff
	ff		 lea	 ecx, DWORD PTR _WzMemScript$[ebp]
  00300	e8 00 00 00 00	 call	 ?GetNumber@CWzMemScript@@QAEHXZ ; CWzMemScript::GetNumber

; 5279 : 
; 5280 : 					Token = WzMemScript.GetToken();

  00305	8d 8d 6c ff ff
	ff		 lea	 ecx, DWORD PTR _WzMemScript$[ebp]
  0030b	66 89 46 34	 mov	 WORD PTR [esi+52], ax
  0030f	e8 00 00 00 00	 call	 ?GetToken@CWzMemScript@@QAE?AW4SMDToken@@XZ ; CWzMemScript::GetToken

; 5281 : 					p->RequireDexterity = WzMemScript.GetNumber();

  00314	8d 8d 6c ff ff
	ff		 lea	 ecx, DWORD PTR _WzMemScript$[ebp]
  0031a	e8 00 00 00 00	 call	 ?GetNumber@CWzMemScript@@QAEHXZ ; CWzMemScript::GetNumber

; 5282 : 
; 5283 : 					Token = WzMemScript.GetToken();

  0031f	8d 8d 6c ff ff
	ff		 lea	 ecx, DWORD PTR _WzMemScript$[ebp]
  00325	66 89 46 36	 mov	 WORD PTR [esi+54], ax
  00329	e8 00 00 00 00	 call	 ?GetToken@CWzMemScript@@QAE?AW4SMDToken@@XZ ; CWzMemScript::GetToken

; 5284 : 					p->RequireEnergy = WzMemScript.GetNumber();

  0032e	8d 8d 6c ff ff
	ff		 lea	 ecx, DWORD PTR _WzMemScript$[ebp]
  00334	e8 00 00 00 00	 call	 ?GetNumber@CWzMemScript@@QAEHXZ ; CWzMemScript::GetNumber

; 5285 : 
; 5286 : 					Token = WzMemScript.GetToken();

  00339	8d 8d 6c ff ff
	ff		 lea	 ecx, DWORD PTR _WzMemScript$[ebp]
  0033f	66 89 46 38	 mov	 WORD PTR [esi+56], ax
  00343	e8 00 00 00 00	 call	 ?GetToken@CWzMemScript@@QAE?AW4SMDToken@@XZ ; CWzMemScript::GetToken

; 5287 : 					p->RequireVitality = WzMemScript.GetNumber();

  00348	8d 8d 6c ff ff
	ff		 lea	 ecx, DWORD PTR _WzMemScript$[ebp]
  0034e	e8 00 00 00 00	 call	 ?GetNumber@CWzMemScript@@QAEHXZ ; CWzMemScript::GetNumber

; 5288 : 
; 5289 : 					Token = WzMemScript.GetToken();

  00353	8d 8d 6c ff ff
	ff		 lea	 ecx, DWORD PTR _WzMemScript$[ebp]
  00359	66 89 46 4c	 mov	 WORD PTR [esi+76], ax
  0035d	e8 00 00 00 00	 call	 ?GetToken@CWzMemScript@@QAE?AW4SMDToken@@XZ ; CWzMemScript::GetToken

; 5290 : 					p->RequireLeadership = WzMemScript.GetNumber();

  00362	8d 8d 6c ff ff
	ff		 lea	 ecx, DWORD PTR _WzMemScript$[ebp]
  00368	e8 00 00 00 00	 call	 ?GetNumber@CWzMemScript@@QAEHXZ ; CWzMemScript::GetNumber

; 5291 : 
; 5292 : 					if ( p->Width  >= 2)

  0036d	80 7e 23 02	 cmp	 BYTE PTR [esi+35], 2
  00371	89 46 6c	 mov	 DWORD PTR [esi+108], eax
  00374	72 04		 jb	 SHORT $LN19@OpenItemSc

; 5293 : 					{
; 5294 : 						p->TwoHand = TRUE; // Review this later

  00376	c6 46 21 01	 mov	 BYTE PTR [esi+33], 1
$LN19@OpenItemSc:

; 5295 : 					}
; 5296 : 
; 5297 : 					(BYTE)p->Durability += (BYTE)p->MagicDurability;

  0037a	8a 46 31	 mov	 al, BYTE PTR [esi+49]
  0037d	00 46 30	 add	 BYTE PTR [esi+48], al
$LN18@OpenItemSc:

; 5298 : 				}
; 5299 : 
; 5300 : 				if ( ItemType >= 6 && ItemType <= 11 )

  00380	8d 47 fa	 lea	 eax, DWORD PTR [edi-6]
  00383	83 f8 05	 cmp	 eax, 5
  00386	0f 87 b5 01 00
	00		 ja	 $LN20@OpenItemSc

; 5301 : 				{
; 5302 : 					Token = WzMemScript.GetToken();

  0038c	8d 8d 6c ff ff
	ff		 lea	 ecx, DWORD PTR _WzMemScript$[ebp]
  00392	e8 00 00 00 00	 call	 ?GetToken@CWzMemScript@@QAE?AW4SMDToken@@XZ ; CWzMemScript::GetToken

; 5303 : 					p->Level = WzMemScript.GetNumber();

  00397	8d 8d 6c ff ff
	ff		 lea	 ecx, DWORD PTR _WzMemScript$[ebp]
  0039d	e8 00 00 00 00	 call	 ?GetNumber@CWzMemScript@@QAEHXZ ; CWzMemScript::GetNumber
  003a2	88 46 22	 mov	 BYTE PTR [esi+34], al

; 5304 : 					
; 5305 : 					if ( ItemType == 6 )

  003a5	83 ff 06	 cmp	 edi, 6
  003a8	75 37		 jne	 SHORT $LN21@OpenItemSc

; 5306 : 					{
; 5307 : 
; 5308 : 						Token = WzMemScript.GetToken();

  003aa	8d 8d 6c ff ff
	ff		 lea	 ecx, DWORD PTR _WzMemScript$[ebp]
  003b0	e8 00 00 00 00	 call	 ?GetToken@CWzMemScript@@QAE?AW4SMDToken@@XZ ; CWzMemScript::GetToken

; 5309 : 						p->Defense = WzMemScript.GetNumber();

  003b5	8d 8d 6c ff ff
	ff		 lea	 ecx, DWORD PTR _WzMemScript$[ebp]
  003bb	e8 00 00 00 00	 call	 ?GetNumber@CWzMemScript@@QAEHXZ ; CWzMemScript::GetNumber

; 5310 : 
; 5311 : 						Token = WzMemScript.GetToken();

  003c0	8d 8d 6c ff ff
	ff		 lea	 ecx, DWORD PTR _WzMemScript$[ebp]
  003c6	88 46 2d	 mov	 BYTE PTR [esi+45], al
  003c9	e8 00 00 00 00	 call	 ?GetToken@CWzMemScript@@QAE?AW4SMDToken@@XZ ; CWzMemScript::GetToken

; 5312 : 						p->SuccessfulBlocking  = WzMemScript.GetNumber();

  003ce	8d 8d 6c ff ff
	ff		 lea	 ecx, DWORD PTR _WzMemScript$[ebp]
  003d4	e8 00 00 00 00	 call	 ?GetNumber@CWzMemScript@@QAEHXZ ; CWzMemScript::GetNumber
  003d9	88 46 2c	 mov	 BYTE PTR [esi+44], al
  003dc	e9 ac 00 00 00	 jmp	 $LN27@OpenItemSc
$LN21@OpenItemSc:

; 5313 : 
; 5314 : 					}
; 5315 : 					else if ( ItemType >= 7 && ItemType <= 9 )

  003e1	8d 47 f9	 lea	 eax, DWORD PTR [edi-7]
  003e4	83 f8 02	 cmp	 eax, 2
  003e7	77 34		 ja	 SHORT $LN23@OpenItemSc

; 5316 : 					{
; 5317 : 
; 5318 : 						Token = WzMemScript.GetToken();

  003e9	8d 8d 6c ff ff
	ff		 lea	 ecx, DWORD PTR _WzMemScript$[ebp]
  003ef	e8 00 00 00 00	 call	 ?GetToken@CWzMemScript@@QAE?AW4SMDToken@@XZ ; CWzMemScript::GetToken

; 5319 : 						p->Defense  = WzMemScript.GetNumber();

  003f4	8d 8d 6c ff ff
	ff		 lea	 ecx, DWORD PTR _WzMemScript$[ebp]
  003fa	e8 00 00 00 00	 call	 ?GetNumber@CWzMemScript@@QAEHXZ ; CWzMemScript::GetNumber

; 5320 : 
; 5321 : 						Token = WzMemScript.GetToken();

  003ff	8d 8d 6c ff ff
	ff		 lea	 ecx, DWORD PTR _WzMemScript$[ebp]
  00405	88 46 2d	 mov	 BYTE PTR [esi+45], al
  00408	e8 00 00 00 00	 call	 ?GetToken@CWzMemScript@@QAE?AW4SMDToken@@XZ ; CWzMemScript::GetToken

; 5322 : 						p->MagicDefense = WzMemScript.GetNumber();

  0040d	8d 8d 6c ff ff
	ff		 lea	 ecx, DWORD PTR _WzMemScript$[ebp]
  00413	e8 00 00 00 00	 call	 ?GetNumber@CWzMemScript@@QAEHXZ ; CWzMemScript::GetNumber
  00418	88 46 2e	 mov	 BYTE PTR [esi+46], al
  0041b	eb 70		 jmp	 SHORT $LN27@OpenItemSc
$LN23@OpenItemSc:

; 5323 : 					}
; 5324 : 					else if ( ItemType == 10 )

  0041d	83 ff 0a	 cmp	 edi, 10			; 0000000aH
  00420	75 34		 jne	 SHORT $LN25@OpenItemSc

; 5325 : 					{
; 5326 : 						Token = WzMemScript.GetToken();

  00422	8d 8d 6c ff ff
	ff		 lea	 ecx, DWORD PTR _WzMemScript$[ebp]
  00428	e8 00 00 00 00	 call	 ?GetToken@CWzMemScript@@QAE?AW4SMDToken@@XZ ; CWzMemScript::GetToken

; 5327 : 						p->Defense = WzMemScript.GetNumber();

  0042d	8d 8d 6c ff ff
	ff		 lea	 ecx, DWORD PTR _WzMemScript$[ebp]
  00433	e8 00 00 00 00	 call	 ?GetNumber@CWzMemScript@@QAEHXZ ; CWzMemScript::GetNumber

; 5328 : 
; 5329 : 						Token = WzMemScript.GetToken();

  00438	8d 8d 6c ff ff
	ff		 lea	 ecx, DWORD PTR _WzMemScript$[ebp]
  0043e	88 46 2d	 mov	 BYTE PTR [esi+45], al
  00441	e8 00 00 00 00	 call	 ?GetToken@CWzMemScript@@QAE?AW4SMDToken@@XZ ; CWzMemScript::GetToken

; 5330 : 						p->AttackSpeed = WzMemScript.GetNumber();

  00446	8d 8d 6c ff ff
	ff		 lea	 ecx, DWORD PTR _WzMemScript$[ebp]
  0044c	e8 00 00 00 00	 call	 ?GetNumber@CWzMemScript@@QAEHXZ ; CWzMemScript::GetNumber
  00451	88 46 28	 mov	 BYTE PTR [esi+40], al
  00454	eb 37		 jmp	 SHORT $LN27@OpenItemSc
$LN25@OpenItemSc:

; 5331 : 					}
; 5332 : 					else if ( ItemType == 11 )

  00456	83 ff 0b	 cmp	 edi, 11			; 0000000bH
  00459	75 32		 jne	 SHORT $LN27@OpenItemSc

; 5333 : 					{
; 5334 : 						Token = WzMemScript.GetToken();

  0045b	8d 8d 6c ff ff
	ff		 lea	 ecx, DWORD PTR _WzMemScript$[ebp]
  00461	e8 00 00 00 00	 call	 ?GetToken@CWzMemScript@@QAE?AW4SMDToken@@XZ ; CWzMemScript::GetToken

; 5335 : 						p->Defense  = WzMemScript.GetNumber();

  00466	8d 8d 6c ff ff
	ff		 lea	 ecx, DWORD PTR _WzMemScript$[ebp]
  0046c	e8 00 00 00 00	 call	 ?GetNumber@CWzMemScript@@QAEHXZ ; CWzMemScript::GetNumber

; 5336 : 
; 5337 : 						Token = WzMemScript.GetToken();

  00471	8d 8d 6c ff ff
	ff		 lea	 ecx, DWORD PTR _WzMemScript$[ebp]
  00477	88 46 2d	 mov	 BYTE PTR [esi+45], al
  0047a	e8 00 00 00 00	 call	 ?GetToken@CWzMemScript@@QAE?AW4SMDToken@@XZ ; CWzMemScript::GetToken

; 5338 : 						p->WalkSpeed = WzMemScript.GetNumber();

  0047f	8d 8d 6c ff ff
	ff		 lea	 ecx, DWORD PTR _WzMemScript$[ebp]
  00485	e8 00 00 00 00	 call	 ?GetNumber@CWzMemScript@@QAEHXZ ; CWzMemScript::GetNumber
  0048a	88 46 29	 mov	 BYTE PTR [esi+41], al
$LN27@OpenItemSc:

; 5339 : 					}
; 5340 : 					
; 5341 : 					Token = WzMemScript.GetToken();

  0048d	8d 8d 6c ff ff
	ff		 lea	 ecx, DWORD PTR _WzMemScript$[ebp]
  00493	e8 00 00 00 00	 call	 ?GetToken@CWzMemScript@@QAE?AW4SMDToken@@XZ ; CWzMemScript::GetToken

; 5342 : 					p->Durability = WzMemScript.GetNumber();

  00498	8d 8d 6c ff ff
	ff		 lea	 ecx, DWORD PTR _WzMemScript$[ebp]
  0049e	e8 00 00 00 00	 call	 ?GetNumber@CWzMemScript@@QAEHXZ ; CWzMemScript::GetNumber

; 5343 : 
; 5344 : 					Token = WzMemScript.GetToken();

  004a3	8d 8d 6c ff ff
	ff		 lea	 ecx, DWORD PTR _WzMemScript$[ebp]
  004a9	88 46 30	 mov	 BYTE PTR [esi+48], al
  004ac	e8 00 00 00 00	 call	 ?GetToken@CWzMemScript@@QAE?AW4SMDToken@@XZ ; CWzMemScript::GetToken

; 5345 : 					p->RequireLevel = WzMemScript.GetNumber();

  004b1	8d 8d 6c ff ff
	ff		 lea	 ecx, DWORD PTR _WzMemScript$[ebp]
  004b7	e8 00 00 00 00	 call	 ?GetNumber@CWzMemScript@@QAEHXZ ; CWzMemScript::GetNumber

; 5346 : 
; 5347 : 					Token = WzMemScript.GetToken();

  004bc	8d 8d 6c ff ff
	ff		 lea	 ecx, DWORD PTR _WzMemScript$[ebp]
  004c2	66 89 46 3a	 mov	 WORD PTR [esi+58], ax
  004c6	e8 00 00 00 00	 call	 ?GetToken@CWzMemScript@@QAE?AW4SMDToken@@XZ ; CWzMemScript::GetToken

; 5348 : 					p->RequireStrength = WzMemScript.GetNumber();

  004cb	8d 8d 6c ff ff
	ff		 lea	 ecx, DWORD PTR _WzMemScript$[ebp]
  004d1	e8 00 00 00 00	 call	 ?GetNumber@CWzMemScript@@QAEHXZ ; CWzMemScript::GetNumber

; 5349 : 
; 5350 : 					Token = WzMemScript.GetToken();

  004d6	8d 8d 6c ff ff
	ff		 lea	 ecx, DWORD PTR _WzMemScript$[ebp]
  004dc	66 89 46 34	 mov	 WORD PTR [esi+52], ax
  004e0	e8 00 00 00 00	 call	 ?GetToken@CWzMemScript@@QAE?AW4SMDToken@@XZ ; CWzMemScript::GetToken

; 5351 : 					p->RequireDexterity = WzMemScript.GetNumber();

  004e5	8d 8d 6c ff ff
	ff		 lea	 ecx, DWORD PTR _WzMemScript$[ebp]
  004eb	e8 00 00 00 00	 call	 ?GetNumber@CWzMemScript@@QAEHXZ ; CWzMemScript::GetNumber

; 5352 : 
; 5353 : 					Token = WzMemScript.GetToken();

  004f0	8d 8d 6c ff ff
	ff		 lea	 ecx, DWORD PTR _WzMemScript$[ebp]
  004f6	66 89 46 36	 mov	 WORD PTR [esi+54], ax
  004fa	e8 00 00 00 00	 call	 ?GetToken@CWzMemScript@@QAE?AW4SMDToken@@XZ ; CWzMemScript::GetToken

; 5354 : 					p->RequireEnergy = WzMemScript.GetNumber();

  004ff	8d 8d 6c ff ff
	ff		 lea	 ecx, DWORD PTR _WzMemScript$[ebp]
  00505	e8 00 00 00 00	 call	 ?GetNumber@CWzMemScript@@QAEHXZ ; CWzMemScript::GetNumber

; 5355 : 
; 5356 : 					Token = WzMemScript.GetToken();

  0050a	8d 8d 6c ff ff
	ff		 lea	 ecx, DWORD PTR _WzMemScript$[ebp]
  00510	66 89 46 38	 mov	 WORD PTR [esi+56], ax
  00514	e8 00 00 00 00	 call	 ?GetToken@CWzMemScript@@QAE?AW4SMDToken@@XZ ; CWzMemScript::GetToken

; 5357 : 					p->RequireVitality = WzMemScript.GetNumber();

  00519	8d 8d 6c ff ff
	ff		 lea	 ecx, DWORD PTR _WzMemScript$[ebp]
  0051f	e8 00 00 00 00	 call	 ?GetNumber@CWzMemScript@@QAEHXZ ; CWzMemScript::GetNumber

; 5358 : 
; 5359 : 					Token = WzMemScript.GetToken();

  00524	8d 8d 6c ff ff
	ff		 lea	 ecx, DWORD PTR _WzMemScript$[ebp]
  0052a	66 89 46 4c	 mov	 WORD PTR [esi+76], ax
  0052e	e8 00 00 00 00	 call	 ?GetToken@CWzMemScript@@QAE?AW4SMDToken@@XZ ; CWzMemScript::GetToken

; 5360 : 					p->RequireLeadership = WzMemScript.GetNumber();

  00533	8d 8d 6c ff ff
	ff		 lea	 ecx, DWORD PTR _WzMemScript$[ebp]
  00539	e8 00 00 00 00	 call	 ?GetNumber@CWzMemScript@@QAEHXZ ; CWzMemScript::GetNumber
  0053e	89 46 6c	 mov	 DWORD PTR [esi+108], eax
$LN20@OpenItemSc:

; 5361 : 				}
; 5362 : 
; 5363 : 				if ( ItemType == 13 )

  00541	83 ff 0d	 cmp	 edi, 13			; 0000000dH
  00544	0f 85 04 01 00
	00		 jne	 $LN28@OpenItemSc

; 5364 : 				{
; 5365 : 					Token = WzMemScript.GetToken();

  0054a	8d 8d 6c ff ff
	ff		 lea	 ecx, DWORD PTR _WzMemScript$[ebp]
  00550	e8 00 00 00 00	 call	 ?GetToken@CWzMemScript@@QAE?AW4SMDToken@@XZ ; CWzMemScript::GetToken

; 5366 : 					p->Level = WzMemScript.GetNumber();

  00555	8d 8d 6c ff ff
	ff		 lea	 ecx, DWORD PTR _WzMemScript$[ebp]
  0055b	e8 00 00 00 00	 call	 ?GetNumber@CWzMemScript@@QAEHXZ ; CWzMemScript::GetNumber

; 5367 : 
; 5368 : 					Token = WzMemScript.GetToken();

  00560	8d 8d 6c ff ff
	ff		 lea	 ecx, DWORD PTR _WzMemScript$[ebp]
  00566	88 46 22	 mov	 BYTE PTR [esi+34], al
  00569	e8 00 00 00 00	 call	 ?GetToken@CWzMemScript@@QAE?AW4SMDToken@@XZ ; CWzMemScript::GetToken

; 5369 : 					p->Durability = WzMemScript.GetNumber();

  0056e	8d 8d 6c ff ff
	ff		 lea	 ecx, DWORD PTR _WzMemScript$[ebp]
  00574	e8 00 00 00 00	 call	 ?GetNumber@CWzMemScript@@QAEHXZ ; CWzMemScript::GetNumber

; 5370 : 
; 5371 : 					Token = WzMemScript.GetToken();

  00579	8d 8d 6c ff ff
	ff		 lea	 ecx, DWORD PTR _WzMemScript$[ebp]
  0057f	88 46 30	 mov	 BYTE PTR [esi+48], al
  00582	e8 00 00 00 00	 call	 ?GetToken@CWzMemScript@@QAE?AW4SMDToken@@XZ ; CWzMemScript::GetToken

; 5372 : 					p->Resistance[0] = WzMemScript.GetNumber();

  00587	8d 8d 6c ff ff
	ff		 lea	 ecx, DWORD PTR _WzMemScript$[ebp]
  0058d	e8 00 00 00 00	 call	 ?GetNumber@CWzMemScript@@QAEHXZ ; CWzMemScript::GetNumber

; 5373 : 
; 5374 : 					Token = WzMemScript.GetToken();

  00592	8d 8d 6c ff ff
	ff		 lea	 ecx, DWORD PTR _WzMemScript$[ebp]
  00598	88 46 45	 mov	 BYTE PTR [esi+69], al
  0059b	e8 00 00 00 00	 call	 ?GetToken@CWzMemScript@@QAE?AW4SMDToken@@XZ ; CWzMemScript::GetToken

; 5375 : 					p->Resistance[1] = WzMemScript.GetNumber();

  005a0	8d 8d 6c ff ff
	ff		 lea	 ecx, DWORD PTR _WzMemScript$[ebp]
  005a6	e8 00 00 00 00	 call	 ?GetNumber@CWzMemScript@@QAEHXZ ; CWzMemScript::GetNumber

; 5376 : 
; 5377 : 					Token = WzMemScript.GetToken();

  005ab	8d 8d 6c ff ff
	ff		 lea	 ecx, DWORD PTR _WzMemScript$[ebp]
  005b1	88 46 46	 mov	 BYTE PTR [esi+70], al
  005b4	e8 00 00 00 00	 call	 ?GetToken@CWzMemScript@@QAE?AW4SMDToken@@XZ ; CWzMemScript::GetToken

; 5378 : 					p->Resistance[2] = WzMemScript.GetNumber();

  005b9	8d 8d 6c ff ff
	ff		 lea	 ecx, DWORD PTR _WzMemScript$[ebp]
  005bf	e8 00 00 00 00	 call	 ?GetNumber@CWzMemScript@@QAEHXZ ; CWzMemScript::GetNumber

; 5379 : 
; 5380 : 					Token = WzMemScript.GetToken();

  005c4	8d 8d 6c ff ff
	ff		 lea	 ecx, DWORD PTR _WzMemScript$[ebp]
  005ca	88 46 47	 mov	 BYTE PTR [esi+71], al
  005cd	e8 00 00 00 00	 call	 ?GetToken@CWzMemScript@@QAE?AW4SMDToken@@XZ ; CWzMemScript::GetToken

; 5381 : 					p->Resistance[3] = WzMemScript.GetNumber();

  005d2	8d 8d 6c ff ff
	ff		 lea	 ecx, DWORD PTR _WzMemScript$[ebp]
  005d8	e8 00 00 00 00	 call	 ?GetNumber@CWzMemScript@@QAEHXZ ; CWzMemScript::GetNumber

; 5382 : 
; 5383 : 					Token = WzMemScript.GetToken();

  005dd	8d 8d 6c ff ff
	ff		 lea	 ecx, DWORD PTR _WzMemScript$[ebp]
  005e3	88 46 48	 mov	 BYTE PTR [esi+72], al
  005e6	e8 00 00 00 00	 call	 ?GetToken@CWzMemScript@@QAE?AW4SMDToken@@XZ ; CWzMemScript::GetToken

; 5384 : 					p->Resistance[4] = WzMemScript.GetNumber();

  005eb	8d 8d 6c ff ff
	ff		 lea	 ecx, DWORD PTR _WzMemScript$[ebp]
  005f1	e8 00 00 00 00	 call	 ?GetNumber@CWzMemScript@@QAEHXZ ; CWzMemScript::GetNumber

; 5385 : 
; 5386 : 					Token = WzMemScript.GetToken();

  005f6	8d 8d 6c ff ff
	ff		 lea	 ecx, DWORD PTR _WzMemScript$[ebp]
  005fc	88 46 49	 mov	 BYTE PTR [esi+73], al
  005ff	e8 00 00 00 00	 call	 ?GetToken@CWzMemScript@@QAE?AW4SMDToken@@XZ ; CWzMemScript::GetToken

; 5387 : 					p->Resistance[5] = WzMemScript.GetNumber();

  00604	8d 8d 6c ff ff
	ff		 lea	 ecx, DWORD PTR _WzMemScript$[ebp]
  0060a	e8 00 00 00 00	 call	 ?GetNumber@CWzMemScript@@QAEHXZ ; CWzMemScript::GetNumber

; 5388 : 
; 5389 : 					Token = WzMemScript.GetToken();

  0060f	8d 8d 6c ff ff
	ff		 lea	 ecx, DWORD PTR _WzMemScript$[ebp]
  00615	88 46 4a	 mov	 BYTE PTR [esi+74], al
  00618	e8 00 00 00 00	 call	 ?GetToken@CWzMemScript@@QAE?AW4SMDToken@@XZ ; CWzMemScript::GetToken

; 5390 : 					p->Resistance[6] = WzMemScript.GetNumber();

  0061d	8d 8d 6c ff ff
	ff		 lea	 ecx, DWORD PTR _WzMemScript$[ebp]
  00623	e8 00 00 00 00	 call	 ?GetNumber@CWzMemScript@@QAEHXZ ; CWzMemScript::GetNumber
  00628	88 46 4b	 mov	 BYTE PTR [esi+75], al

; 5391 : 
; 5392 : 					p->ResistanceType = -1;
; 5393 : 					
; 5394 : 					int n;
; 5395 : 
; 5396 : 					for (n=0;n<MAX_ITEM_SPECIAL_ATTRIBUTE-1;n++)

  0062b	33 c0		 xor	 eax, eax
  0062d	c6 46 62 ff	 mov	 BYTE PTR [esi+98], 255	; 000000ffH
$LL11@OpenItemSc:

; 5397 : 					{
; 5398 : 						if ( (p->Resistance[n]) != 0 )

  00631	80 7c 06 45 00	 cmp	 BYTE PTR [esi+eax+69], 0
  00636	74 03		 je	 SHORT $LN9@OpenItemSc

; 5399 : 						{
; 5400 : 							p->ResistanceType=n;

  00638	88 46 62	 mov	 BYTE PTR [esi+98], al
$LN9@OpenItemSc:

; 5391 : 
; 5392 : 					p->ResistanceType = -1;
; 5393 : 					
; 5394 : 					int n;
; 5395 : 
; 5396 : 					for (n=0;n<MAX_ITEM_SPECIAL_ATTRIBUTE-1;n++)

  0063b	40		 inc	 eax
  0063c	83 f8 06	 cmp	 eax, 6
  0063f	7c f0		 jl	 SHORT $LL11@OpenItemSc

; 5401 : 						}
; 5402 : 					}
; 5403 : 
; 5404 : 					p->RequireLevel = p->Level ;

  00641	0f b6 46 22	 movzx	 eax, BYTE PTR [esi+34]
  00645	66 89 46 3a	 mov	 WORD PTR [esi+58], ax

; 5405 : 					
; 5406 : 				}
; 5407 : 
; 5408 : 				if ( ItemType == 14 )

  00649	e9 b5 01 00 00	 jmp	 $LN34@OpenItemSc
$LN28@OpenItemSc:
  0064e	83 ff 0e	 cmp	 edi, 14			; 0000000eH
  00651	75 3c		 jne	 SHORT $LN30@OpenItemSc

; 5409 : 				{
; 5410 : 					Token = WzMemScript.GetToken();

  00653	8d 8d 6c ff ff
	ff		 lea	 ecx, DWORD PTR _WzMemScript$[ebp]
  00659	e8 00 00 00 00	 call	 ?GetToken@CWzMemScript@@QAE?AW4SMDToken@@XZ ; CWzMemScript::GetToken

; 5411 : 					p->Value = WzMemScript.GetNumber();

  0065e	8d 8d 6c ff ff
	ff		 lea	 ecx, DWORD PTR _WzMemScript$[ebp]
  00664	e8 00 00 00 00	 call	 ?GetNumber@CWzMemScript@@QAEHXZ ; CWzMemScript::GetNumber

; 5412 : 
; 5413 : 					Token = WzMemScript.GetToken();

  00669	8d 8d 6c ff ff
	ff		 lea	 ecx, DWORD PTR _WzMemScript$[ebp]
  0066f	66 89 46 3c	 mov	 WORD PTR [esi+60], ax
  00673	e8 00 00 00 00	 call	 ?GetToken@CWzMemScript@@QAE?AW4SMDToken@@XZ ; CWzMemScript::GetToken

; 5414 : 					p->Level = WzMemScript.GetNumber();

  00678	8d 8d 6c ff ff
	ff		 lea	 ecx, DWORD PTR _WzMemScript$[ebp]
  0067e	e8 00 00 00 00	 call	 ?GetNumber@CWzMemScript@@QAEHXZ ; CWzMemScript::GetNumber
  00683	88 46 22	 mov	 BYTE PTR [esi+34], al

; 5415 : 
; 5416 : 					p->Durability = 1;

  00686	c6 46 30 01	 mov	 BYTE PTR [esi+48], 1

; 5417 : 				}
; 5418 : 
; 5419 : 				if ( ItemType == 12 )

  0068a	e9 7f 01 00 00	 jmp	 $LN33@OpenItemSc
$LN30@OpenItemSc:
  0068f	83 ff 0c	 cmp	 edi, 12			; 0000000cH
  00692	0f 85 ea 00 00
	00		 jne	 $LN31@OpenItemSc

; 5420 : 				{
; 5421 : 					Token = WzMemScript.GetToken();

  00698	8d 8d 6c ff ff
	ff		 lea	 ecx, DWORD PTR _WzMemScript$[ebp]
  0069e	e8 00 00 00 00	 call	 ?GetToken@CWzMemScript@@QAE?AW4SMDToken@@XZ ; CWzMemScript::GetToken

; 5422 : 					p->Level = WzMemScript.GetNumber();

  006a3	8d 8d 6c ff ff
	ff		 lea	 ecx, DWORD PTR _WzMemScript$[ebp]
  006a9	e8 00 00 00 00	 call	 ?GetNumber@CWzMemScript@@QAEHXZ ; CWzMemScript::GetNumber

; 5423 : 
; 5424 : 					Token = WzMemScript.GetToken();

  006ae	8d 8d 6c ff ff
	ff		 lea	 ecx, DWORD PTR _WzMemScript$[ebp]
  006b4	88 46 22	 mov	 BYTE PTR [esi+34], al
  006b7	e8 00 00 00 00	 call	 ?GetToken@CWzMemScript@@QAE?AW4SMDToken@@XZ ; CWzMemScript::GetToken

; 5425 : 					p->Defense = WzMemScript.GetNumber();

  006bc	8d 8d 6c ff ff
	ff		 lea	 ecx, DWORD PTR _WzMemScript$[ebp]
  006c2	e8 00 00 00 00	 call	 ?GetNumber@CWzMemScript@@QAEHXZ ; CWzMemScript::GetNumber

; 5426 : 
; 5427 : 					Token = WzMemScript.GetToken();

  006c7	8d 8d 6c ff ff
	ff		 lea	 ecx, DWORD PTR _WzMemScript$[ebp]
  006cd	88 46 2d	 mov	 BYTE PTR [esi+45], al
  006d0	e8 00 00 00 00	 call	 ?GetToken@CWzMemScript@@QAE?AW4SMDToken@@XZ ; CWzMemScript::GetToken

; 5428 : 					p->Durability = WzMemScript.GetNumber();

  006d5	8d 8d 6c ff ff
	ff		 lea	 ecx, DWORD PTR _WzMemScript$[ebp]
  006db	e8 00 00 00 00	 call	 ?GetNumber@CWzMemScript@@QAEHXZ ; CWzMemScript::GetNumber

; 5429 : 
; 5430 : 					Token = WzMemScript.GetToken();

  006e0	8d 8d 6c ff ff
	ff		 lea	 ecx, DWORD PTR _WzMemScript$[ebp]
  006e6	88 46 30	 mov	 BYTE PTR [esi+48], al
  006e9	e8 00 00 00 00	 call	 ?GetToken@CWzMemScript@@QAE?AW4SMDToken@@XZ ; CWzMemScript::GetToken

; 5431 : 					p->RequireLevel = WzMemScript.GetNumber();

  006ee	8d 8d 6c ff ff
	ff		 lea	 ecx, DWORD PTR _WzMemScript$[ebp]
  006f4	e8 00 00 00 00	 call	 ?GetNumber@CWzMemScript@@QAEHXZ ; CWzMemScript::GetNumber

; 5432 : 
; 5433 : 					Token = WzMemScript.GetToken();

  006f9	8d 8d 6c ff ff
	ff		 lea	 ecx, DWORD PTR _WzMemScript$[ebp]
  006ff	66 89 46 3a	 mov	 WORD PTR [esi+58], ax
  00703	e8 00 00 00 00	 call	 ?GetToken@CWzMemScript@@QAE?AW4SMDToken@@XZ ; CWzMemScript::GetToken

; 5434 : 					p->RequireEnergy = WzMemScript.GetNumber();

  00708	8d 8d 6c ff ff
	ff		 lea	 ecx, DWORD PTR _WzMemScript$[ebp]
  0070e	e8 00 00 00 00	 call	 ?GetNumber@CWzMemScript@@QAEHXZ ; CWzMemScript::GetNumber

; 5435 : 
; 5436 : 					Token = WzMemScript.GetToken();

  00713	8d 8d 6c ff ff
	ff		 lea	 ecx, DWORD PTR _WzMemScript$[ebp]
  00719	66 89 46 38	 mov	 WORD PTR [esi+56], ax
  0071d	e8 00 00 00 00	 call	 ?GetToken@CWzMemScript@@QAE?AW4SMDToken@@XZ ; CWzMemScript::GetToken

; 5437 : 					p->RequireStrength = WzMemScript.GetNumber();

  00722	8d 8d 6c ff ff
	ff		 lea	 ecx, DWORD PTR _WzMemScript$[ebp]
  00728	e8 00 00 00 00	 call	 ?GetNumber@CWzMemScript@@QAEHXZ ; CWzMemScript::GetNumber

; 5438 : 
; 5439 : 					Token = WzMemScript.GetToken();

  0072d	8d 8d 6c ff ff
	ff		 lea	 ecx, DWORD PTR _WzMemScript$[ebp]
  00733	66 89 46 34	 mov	 WORD PTR [esi+52], ax
  00737	e8 00 00 00 00	 call	 ?GetToken@CWzMemScript@@QAE?AW4SMDToken@@XZ ; CWzMemScript::GetToken

; 5440 : 					p->RequireDexterity = WzMemScript.GetNumber();

  0073c	8d 8d 6c ff ff
	ff		 lea	 ecx, DWORD PTR _WzMemScript$[ebp]
  00742	e8 00 00 00 00	 call	 ?GetNumber@CWzMemScript@@QAEHXZ ; CWzMemScript::GetNumber

; 5441 : 
; 5442 : 					Token = WzMemScript.GetToken();

  00747	8d 8d 6c ff ff
	ff		 lea	 ecx, DWORD PTR _WzMemScript$[ebp]
  0074d	66 89 46 36	 mov	 WORD PTR [esi+54], ax
  00751	e8 00 00 00 00	 call	 ?GetToken@CWzMemScript@@QAE?AW4SMDToken@@XZ ; CWzMemScript::GetToken

; 5443 : 					p->RequireLeadership = WzMemScript.GetNumber();

  00756	8d 8d 6c ff ff
	ff		 lea	 ecx, DWORD PTR _WzMemScript$[ebp]
  0075c	e8 00 00 00 00	 call	 ?GetNumber@CWzMemScript@@QAEHXZ ; CWzMemScript::GetNumber

; 5444 : 
; 5445 : 					Token = WzMemScript.GetToken();

  00761	8d 8d 6c ff ff
	ff		 lea	 ecx, DWORD PTR _WzMemScript$[ebp]
  00767	89 46 6c	 mov	 DWORD PTR [esi+108], eax
  0076a	e8 00 00 00 00	 call	 ?GetToken@CWzMemScript@@QAE?AW4SMDToken@@XZ ; CWzMemScript::GetToken

; 5446 : 					p->BuyMoney = WzMemScript.GetNumber();

  0076f	8d 8d 6c ff ff
	ff		 lea	 ecx, DWORD PTR _WzMemScript$[ebp]
  00775	e8 00 00 00 00	 call	 ?GetNumber@CWzMemScript@@QAEHXZ ; CWzMemScript::GetNumber
  0077a	89 46 50	 mov	 DWORD PTR [esi+80], eax

; 5447 : 
; 5448 : 				}
; 5449 : 				
; 5450 : 				if ( ItemType == 15 )

  0077d	e9 8c 00 00 00	 jmp	 $LN33@OpenItemSc
$LN31@OpenItemSc:
  00782	83 ff 0f	 cmp	 edi, 15			; 0000000fH
  00785	75 77		 jne	 SHORT $LN32@OpenItemSc

; 5451 : 				{
; 5452 : 
; 5453 : 					Token = WzMemScript.GetToken();

  00787	8d 8d 6c ff ff
	ff		 lea	 ecx, DWORD PTR _WzMemScript$[ebp]
  0078d	e8 00 00 00 00	 call	 ?GetToken@CWzMemScript@@QAE?AW4SMDToken@@XZ ; CWzMemScript::GetToken

; 5454 : 					p->Level = WzMemScript.GetNumber();

  00792	8d 8d 6c ff ff
	ff		 lea	 ecx, DWORD PTR _WzMemScript$[ebp]
  00798	e8 00 00 00 00	 call	 ?GetNumber@CWzMemScript@@QAEHXZ ; CWzMemScript::GetNumber

; 5455 : 
; 5456 : 					Token = WzMemScript.GetToken();

  0079d	8d 8d 6c ff ff
	ff		 lea	 ecx, DWORD PTR _WzMemScript$[ebp]
  007a3	88 46 22	 mov	 BYTE PTR [esi+34], al
  007a6	e8 00 00 00 00	 call	 ?GetToken@CWzMemScript@@QAE?AW4SMDToken@@XZ ; CWzMemScript::GetToken

; 5457 : 					p->RequireLevel  = WzMemScript.GetNumber();

  007ab	8d 8d 6c ff ff
	ff		 lea	 ecx, DWORD PTR _WzMemScript$[ebp]
  007b1	e8 00 00 00 00	 call	 ?GetNumber@CWzMemScript@@QAEHXZ ; CWzMemScript::GetNumber

; 5458 : 
; 5459 : 					Token = WzMemScript.GetToken();

  007b6	8d 8d 6c ff ff
	ff		 lea	 ecx, DWORD PTR _WzMemScript$[ebp]
  007bc	66 89 46 3a	 mov	 WORD PTR [esi+58], ax
  007c0	e8 00 00 00 00	 call	 ?GetToken@CWzMemScript@@QAE?AW4SMDToken@@XZ ; CWzMemScript::GetToken

; 5460 : 					p->RequireEnergy  = WzMemScript.GetNumber();

  007c5	8d 8d 6c ff ff
	ff		 lea	 ecx, DWORD PTR _WzMemScript$[ebp]
  007cb	e8 00 00 00 00	 call	 ?GetNumber@CWzMemScript@@QAEHXZ ; CWzMemScript::GetNumber

; 5461 : 
; 5462 : 					Token = WzMemScript.GetToken();

  007d0	8d 8d 6c ff ff
	ff		 lea	 ecx, DWORD PTR _WzMemScript$[ebp]
  007d6	66 89 46 38	 mov	 WORD PTR [esi+56], ax
  007da	e8 00 00 00 00	 call	 ?GetToken@CWzMemScript@@QAE?AW4SMDToken@@XZ ; CWzMemScript::GetToken

; 5463 : 					p->BuyMoney  = WzMemScript.GetNumber();

  007df	8d 8d 6c ff ff
	ff		 lea	 ecx, DWORD PTR _WzMemScript$[ebp]
  007e5	e8 00 00 00 00	 call	 ?GetNumber@CWzMemScript@@QAEHXZ ; CWzMemScript::GetNumber

; 5464 : 
; 5465 : 					p->DamageMin = p->Level;

  007ea	8a 4e 22	 mov	 cl, BYTE PTR [esi+34]
  007ed	89 46 50	 mov	 DWORD PTR [esi+80], eax

; 5466 : 					p->DamageMax = p->Level + p->Level/2; 

  007f0	8a c1		 mov	 al, cl
  007f2	d0 e8		 shr	 al, 1
  007f4	02 c1		 add	 al, cl
  007f6	88 4e 2a	 mov	 BYTE PTR [esi+42], cl
  007f9	88 46 2b	 mov	 BYTE PTR [esi+43], al

; 5467 : 				}
; 5468 : 
; 5469 : 				if ( ItemType <= 11 || ItemType == 13)

  007fc	eb 10		 jmp	 SHORT $LN33@OpenItemSc
$LN32@OpenItemSc:
  007fe	83 ff 0b	 cmp	 edi, 11			; 0000000bH
  00801	7f 0b		 jg	 SHORT $LN33@OpenItemSc
$LN34@OpenItemSc:

; 5470 : 				{
; 5471 : 					Token = WzMemScript.GetToken();

  00803	8d 8d 6c ff ff
	ff		 lea	 ecx, DWORD PTR _WzMemScript$[ebp]
  00809	e8 00 00 00 00	 call	 ?GetToken@CWzMemScript@@QAE?AW4SMDToken@@XZ ; CWzMemScript::GetToken
$LN33@OpenItemSc:

; 5472 : 				}
; 5473 : 
; 5474 : 				p->SetAttr = WzMemScript.GetNumber();

  0080e	8d 8d 6c ff ff
	ff		 lea	 ecx, DWORD PTR _WzMemScript$[ebp]
  00814	e8 00 00 00 00	 call	 ?GetNumber@CWzMemScript@@QAEHXZ ; CWzMemScript::GetNumber
  00819	88 46 61	 mov	 BYTE PTR [esi+97], al

; 5475 : 
; 5476 : 				if ( ItemType <= 13 || ItemType == 15 )

  0081c	83 ff 0d	 cmp	 edi, 13			; 0000000dH
  0081f	7e 05		 jle	 SHORT $LN36@OpenItemSc
  00821	83 ff 0f	 cmp	 edi, 15			; 0000000fH
  00824	75 7d		 jne	 SHORT $LN35@OpenItemSc
$LN36@OpenItemSc:

; 5477 : 				{
; 5478 : 
; 5479 : 					Token = WzMemScript.GetToken();

  00826	8d 8d 6c ff ff
	ff		 lea	 ecx, DWORD PTR _WzMemScript$[ebp]
  0082c	e8 00 00 00 00	 call	 ?GetToken@CWzMemScript@@QAE?AW4SMDToken@@XZ ; CWzMemScript::GetToken

; 5480 : 					p->RequireClass[0]  = WzMemScript.GetNumber();

  00831	8d 8d 6c ff ff
	ff		 lea	 ecx, DWORD PTR _WzMemScript$[ebp]
  00837	e8 00 00 00 00	 call	 ?GetNumber@CWzMemScript@@QAEHXZ ; CWzMemScript::GetNumber

; 5481 : 
; 5482 : 					Token = WzMemScript.GetToken();

  0083c	8d 8d 6c ff ff
	ff		 lea	 ecx, DWORD PTR _WzMemScript$[ebp]
  00842	88 46 3e	 mov	 BYTE PTR [esi+62], al
  00845	e8 00 00 00 00	 call	 ?GetToken@CWzMemScript@@QAE?AW4SMDToken@@XZ ; CWzMemScript::GetToken

; 5483 : 					p->RequireClass[1]  = WzMemScript.GetNumber();

  0084a	8d 8d 6c ff ff
	ff		 lea	 ecx, DWORD PTR _WzMemScript$[ebp]
  00850	e8 00 00 00 00	 call	 ?GetNumber@CWzMemScript@@QAEHXZ ; CWzMemScript::GetNumber

; 5484 : 
; 5485 : 					Token = WzMemScript.GetToken();

  00855	8d 8d 6c ff ff
	ff		 lea	 ecx, DWORD PTR _WzMemScript$[ebp]
  0085b	88 46 3f	 mov	 BYTE PTR [esi+63], al
  0085e	e8 00 00 00 00	 call	 ?GetToken@CWzMemScript@@QAE?AW4SMDToken@@XZ ; CWzMemScript::GetToken

; 5486 : 					p->RequireClass[2]  = WzMemScript.GetNumber();

  00863	8d 8d 6c ff ff
	ff		 lea	 ecx, DWORD PTR _WzMemScript$[ebp]
  00869	e8 00 00 00 00	 call	 ?GetNumber@CWzMemScript@@QAEHXZ ; CWzMemScript::GetNumber

; 5487 : 
; 5488 : 					Token = WzMemScript.GetToken();

  0086e	8d 8d 6c ff ff
	ff		 lea	 ecx, DWORD PTR _WzMemScript$[ebp]
  00874	88 46 40	 mov	 BYTE PTR [esi+64], al
  00877	e8 00 00 00 00	 call	 ?GetToken@CWzMemScript@@QAE?AW4SMDToken@@XZ ; CWzMemScript::GetToken

; 5489 : 					p->RequireClass[3]  = WzMemScript.GetNumber();

  0087c	8d 8d 6c ff ff
	ff		 lea	 ecx, DWORD PTR _WzMemScript$[ebp]
  00882	e8 00 00 00 00	 call	 ?GetNumber@CWzMemScript@@QAEHXZ ; CWzMemScript::GetNumber

; 5490 : 
; 5491 : 					Token = WzMemScript.GetToken();

  00887	8d 8d 6c ff ff
	ff		 lea	 ecx, DWORD PTR _WzMemScript$[ebp]
  0088d	88 46 41	 mov	 BYTE PTR [esi+65], al
  00890	e8 00 00 00 00	 call	 ?GetToken@CWzMemScript@@QAE?AW4SMDToken@@XZ ; CWzMemScript::GetToken

; 5492 : 					p->RequireClass[4]  = WzMemScript.GetNumber();

  00895	8d 8d 6c ff ff
	ff		 lea	 ecx, DWORD PTR _WzMemScript$[ebp]
  0089b	e8 00 00 00 00	 call	 ?GetNumber@CWzMemScript@@QAEHXZ ; CWzMemScript::GetNumber
  008a0	88 46 42	 mov	 BYTE PTR [esi+66], al
$LN35@OpenItemSc:

; 5493 : 				}
; 5494 : 
; 5495 : 				CalRepairRate(ItemType, ItemSubType, p);

  008a3	56		 push	 esi
  008a4	53		 push	 ebx
  008a5	57		 push	 edi
  008a6	e8 00 00 00 00	 call	 ?CalRepairRate@@YAXHHPAUITEM_ATTRIBUTE@@@Z ; CalRepairRate

; 5496 : 
; 5497 : 				p->HaveItemInfo = TRUE;
; 5498 : 
; 5499 : 				loop_count++;

  008ab	8b 85 68 ff ff
	ff		 mov	 eax, DWORD PTR _loop_count$1$[ebp]
  008b1	83 c4 0c	 add	 esp, 12			; 0000000cH
  008b4	40		 inc	 eax
  008b5	c6 46 20 01	 mov	 BYTE PTR [esi+32], 1
  008b9	89 85 68 ff ff
	ff		 mov	 DWORD PTR _loop_count$1$[ebp], eax

; 5500 : 
; 5501 : 				if ( loop_count > MAX_SUBTYPE_ITEMS )

  008bf	3d 00 02 00 00	 cmp	 eax, 512		; 00000200H
  008c4	0f 8e f6 f7 ff
	ff		 jle	 $LL7@OpenItemSc

; 5502 : 				{
; 5503 : 					MsgBox("Error : Item Data fail. (LoopCount:%d) Item Type:%d Index %d", loop_count, ItemType, ItemSubType);

  008ca	53		 push	 ebx
  008cb	57		 push	 edi
  008cc	50		 push	 eax
  008cd	68 00 00 00 00	 push	 OFFSET ??_C@_0DN@NLHNDLLL@Error?5?3?5Item?5Data?5fail?4?5?$CILoopCou@
  008d2	e8 00 00 00 00	 call	 ?MsgBox@@YAXPADZZ	; MsgBox
  008d7	83 c4 10	 add	 esp, 16			; 00000010H
$LN8@OpenItemSc:

; 5183 : 	}
; 5184 : 
; 5185 : 	while ( true )
; 5186 : 	{
; 5187 : 		Token = WzMemScript.GetToken();

  008da	8d 8d 6c ff ff
	ff		 lea	 ecx, DWORD PTR _WzMemScript$[ebp]
  008e0	e8 00 00 00 00	 call	 ?GetToken@CWzMemScript@@QAE?AW4SMDToken@@XZ ; CWzMemScript::GetToken

; 5188 : 
; 5189 : 		if ( Token == 2 )

  008e5	83 f8 02	 cmp	 eax, 2
  008e8	0f 85 b2 f7 ff
	ff		 jne	 $LL5@OpenItemSc
$LN49@OpenItemSc:

; 5504 : 					break;
; 5505 : 				}
; 5506 : 			}
; 5507 : 		}
; 5508 : 	}
; 5509 : 	
; 5510 : 	return TRUE;

  008ee	8d 8d 6c ff ff
	ff		 lea	 ecx, DWORD PTR _WzMemScript$[ebp]
  008f4	e8 00 00 00 00	 call	 ??1CWzMemScript@@UAE@XZ	; CWzMemScript::~CWzMemScript
  008f9	b8 01 00 00 00	 mov	 eax, 1

; 5511 : 
; 5512 : }

  008fe	8b 4d f4	 mov	 ecx, DWORD PTR __$EHRec$[ebp]
  00901	64 89 0d 00 00
	00 00		 mov	 DWORD PTR fs:0, ecx
  00908	59		 pop	 ecx
  00909	5f		 pop	 edi
  0090a	5e		 pop	 esi
  0090b	5b		 pop	 ebx
  0090c	8b 4d f0	 mov	 ecx, DWORD PTR __$ArrayPad$[ebp]
  0090f	33 cd		 xor	 ecx, ebp
  00911	e8 00 00 00 00	 call	 @__security_check_cookie@4
  00916	8b e5		 mov	 esp, ebp
  00918	5d		 pop	 ebp
  00919	c3		 ret	 0
_TEXT	ENDS
;	COMDAT text$x
text$x	SEGMENT
__unwindfunclet$?OpenItemScript@@YAHPADH@Z$0:
  00000	8d 8d 6c ff ff
	ff		 lea	 ecx, DWORD PTR _WzMemScript$[ebp]
  00006	e9 00 00 00 00	 jmp	 ??1CWzMemScript@@UAE@XZ	; CWzMemScript::~CWzMemScript
__ehhandler$?OpenItemScript@@YAHPADH@Z:
  0000b	8b 54 24 08	 mov	 edx, DWORD PTR [esp+8]
  0000f	8d 42 0c	 lea	 eax, DWORD PTR [edx+12]
  00012	8b 8a 64 ff ff
	ff		 mov	 ecx, DWORD PTR [edx-156]
  00018	33 c8		 xor	 ecx, eax
  0001a	e8 00 00 00 00	 call	 @__security_check_cookie@4
  0001f	8b 4a fc	 mov	 ecx, DWORD PTR [edx-4]
  00022	33 c8		 xor	 ecx, eax
  00024	e8 00 00 00 00	 call	 @__security_check_cookie@4
  00029	b8 00 00 00 00	 mov	 eax, OFFSET __ehfuncinfo$?OpenItemScript@@YAHPADH@Z
  0002e	e9 00 00 00 00	 jmp	 ___CxxFrameHandler3
text$x	ENDS
?OpenItemScript@@YAHPADH@Z ENDP				; OpenItemScript
; Function compile flags: /Ogtp
; File c:\users\michel\desktop\source\gameserver\common\zzzitem.cpp
;	COMDAT ?OpenItemNameScript@@YAHPAD@Z
_TEXT	SEGMENT
_FileName$ = 8						; size = 4
?OpenItemNameScript@@YAHPAD@Z PROC			; OpenItemNameScript, COMDAT

; 5112 : {

  00000	55		 push	 ebp
  00001	8b ec		 mov	 ebp, esp

; 5113 : 	
; 5114 : 	int Token;
; 5115 : 
; 5116 : 	SMDFile = fopen(FileName, "r");

  00003	68 00 00 00 00	 push	 OFFSET ??_C@_01KDCPPGHE@r?$AA@
  00008	ff 75 08	 push	 DWORD PTR _FileName$[ebp]
  0000b	e8 00 00 00 00	 call	 _fopen
  00010	83 c4 08	 add	 esp, 8
  00013	a3 00 00 00 00	 mov	 DWORD PTR ?SMDFile@@3PAU_iobuf@@A, eax

; 5117 : 
; 5118 : 	if (SMDFile == 0 )

  00018	85 c0		 test	 eax, eax
  0001a	75 02		 jne	 SHORT $LN14@OpenItemNa

; 5164 : }

  0001c	5d		 pop	 ebp
  0001d	c3		 ret	 0
$LN14@OpenItemNa:

; 5119 : 	{
; 5120 : 		return FALSE;
; 5121 : 	}
; 5122 : 
; 5123 : 	while ( true )
; 5124 : 	{
; 5125 : 		Token = GetToken();

  0001e	e8 00 00 00 00	 call	 ?GetToken@@YA?AW4SMDToken@@XZ ; GetToken

; 5126 : 
; 5127 : 		if ( Token == 2 )

  00023	83 f8 02	 cmp	 eax, 2
  00026	0f 84 96 00 00
	00		 je	 $LN18@OpenItemNa
  0002c	56		 push	 esi
  0002d	57		 push	 edi
  0002e	66 90		 npad	 2
$LL2@OpenItemNa:

; 5128 : 		{
; 5129 : 			break;
; 5130 : 		}
; 5131 : 		if ( Token == 1 )

  00030	83 f8 01	 cmp	 eax, 1
  00033	0f 85 79 00 00
	00		 jne	 $LN29@OpenItemNa

; 5132 : 		{
; 5133 : 			int ItemType;
; 5134 : 
; 5135 : 			ItemType = TokenNumber;

  00039	f3 0f 2c 3d 00
	00 00 00	 cvttss2si edi, DWORD PTR ?TokenNumber@@3MA
$LL4@OpenItemNa:

; 5136 : 
; 5137 : 			while ( true )
; 5138 : 			{
; 5139 : 				int ItemSubType;
; 5140 : 				LPITEM_ATTRIBUTE p;
; 5141 : 
; 5142 : 				Token = GetToken();

  00041	e8 00 00 00 00	 call	 ?GetToken@@YA?AW4SMDToken@@XZ ; GetToken

; 5143 : 				ItemSubType = TokenNumber;

  00046	f3 0f 2c 35 00
	00 00 00	 cvttss2si esi, DWORD PTR ?TokenNumber@@3MA

; 5144 : 
; 5145 : 				if ( Token == 0 )

  0004e	85 c0		 test	 eax, eax
  00050	75 37		 jne	 SHORT $LN10@OpenItemNa

; 5146 : 				{
; 5147 : 					if ( strcmp("end", TokenString ) == 0 )

  00052	b9 00 00 00 00	 mov	 ecx, OFFSET ?TokenString@@3PADA
  00057	b8 00 00 00 00	 mov	 eax, OFFSET ??_C@_03JBJLGPFL@end?$AA@
  0005c	0f 1f 40 00	 npad	 4
$LL25@OpenItemNa:
  00060	8a 10		 mov	 dl, BYTE PTR [eax]
  00062	3a 11		 cmp	 dl, BYTE PTR [ecx]
  00064	75 1a		 jne	 SHORT $LN26@OpenItemNa
  00066	84 d2		 test	 dl, dl
  00068	74 12		 je	 SHORT $LN27@OpenItemNa
  0006a	8a 50 01	 mov	 dl, BYTE PTR [eax+1]
  0006d	3a 51 01	 cmp	 dl, BYTE PTR [ecx+1]
  00070	75 0e		 jne	 SHORT $LN26@OpenItemNa
  00072	83 c0 02	 add	 eax, 2
  00075	83 c1 02	 add	 ecx, 2
  00078	84 d2		 test	 dl, dl
  0007a	75 e4		 jne	 SHORT $LL25@OpenItemNa
$LN27@OpenItemNa:
  0007c	33 c0		 xor	 eax, eax
  0007e	eb 05		 jmp	 SHORT $LN28@OpenItemNa
$LN26@OpenItemNa:
  00080	1b c0		 sbb	 eax, eax
  00082	83 c8 01	 or	 eax, 1
$LN28@OpenItemNa:
  00085	85 c0		 test	 eax, eax
  00087	74 29		 je	 SHORT $LN29@OpenItemNa
$LN10@OpenItemNa:

; 5148 : 					{
; 5149 : 						break;
; 5150 : 					}
; 5151 : 				}
; 5152 : 					
; 5153 : 				p = &ItemAttribute[ItemType*MAX_SUBTYPE_ITEMS + ItemSubType];
; 5154 : 
; 5155 : 				Token = GetToken();

  00089	e8 00 00 00 00	 call	 ?GetToken@@YA?AW4SMDToken@@XZ ; GetToken

; 5156 : 				strcpy(&p->Name[0], TokenString );

  0008e	8b c7		 mov	 eax, edi
  00090	b9 00 00 00 00	 mov	 ecx, OFFSET ?TokenString@@3PADA
  00095	c1 e0 09	 shl	 eax, 9
  00098	03 c6		 add	 eax, esi
  0009a	6b d0 70	 imul	 edx, eax, 112
  0009d	2b d1		 sub	 edx, ecx
  0009f	90		 npad	 1
$LL12@OpenItemNa:
  000a0	8a 01		 mov	 al, BYTE PTR [ecx]
  000a2	8d 49 01	 lea	 ecx, DWORD PTR [ecx+1]
  000a5	88 84 0a ff ff
	ff ff		 mov	 BYTE PTR ?ItemAttribute@@3PAUITEM_ATTRIBUTE@@A[edx+ecx-1], al
  000ac	84 c0		 test	 al, al
  000ae	75 f0		 jne	 SHORT $LL12@OpenItemNa

; 5157 : 
; 5158 : 				
; 5159 : 			}

  000b0	eb 8f		 jmp	 SHORT $LL4@OpenItemNa
$LN29@OpenItemNa:

; 5119 : 	{
; 5120 : 		return FALSE;
; 5121 : 	}
; 5122 : 
; 5123 : 	while ( true )
; 5124 : 	{
; 5125 : 		Token = GetToken();

  000b2	e8 00 00 00 00	 call	 ?GetToken@@YA?AW4SMDToken@@XZ ; GetToken

; 5126 : 
; 5127 : 		if ( Token == 2 )

  000b7	83 f8 02	 cmp	 eax, 2
  000ba	0f 85 70 ff ff
	ff		 jne	 $LL2@OpenItemNa
  000c0	5f		 pop	 edi
  000c1	5e		 pop	 esi
$LN18@OpenItemNa:

; 5160 : 		}
; 5161 : 	}
; 5162 : 	fclose(SMDFile);

  000c2	ff 35 00 00 00
	00		 push	 DWORD PTR ?SMDFile@@3PAU_iobuf@@A
  000c8	e8 00 00 00 00	 call	 _fclose
  000cd	83 c4 04	 add	 esp, 4

; 5163 : 	return TRUE;

  000d0	b8 01 00 00 00	 mov	 eax, 1

; 5164 : }

  000d5	5d		 pop	 ebp
  000d6	c3		 ret	 0
?OpenItemNameScript@@YAHPAD@Z ENDP			; OpenItemNameScript
_TEXT	ENDS
; Function compile flags: /Ogtp
; File c:\users\michel\desktop\source\gameserver\common\zzzitem.cpp
;	COMDAT ?OpenItemScript@@YAHPAD@Z
_TEXT	SEGMENT
_loop_count$1$ = -4					; size = 4
_FileName$ = 8						; size = 4
?OpenItemScript@@YAHPAD@Z PROC				; OpenItemScript, COMDAT

; 4746 : {

  00000	55		 push	 ebp
  00001	8b ec		 mov	 ebp, esp
  00003	51		 push	 ecx

; 4747 : 	int loop_count;
; 4748 : 	int n;
; 4749 : 	int Token;
; 4750 : 
; 4751 : 	SMDFile = fopen(FileName, "r");

  00004	68 00 00 00 00	 push	 OFFSET ??_C@_01KDCPPGHE@r?$AA@
  00009	ff 75 08	 push	 DWORD PTR _FileName$[ebp]
  0000c	e8 00 00 00 00	 call	 _fopen
  00011	83 c4 08	 add	 esp, 8
  00014	a3 00 00 00 00	 mov	 DWORD PTR ?SMDFile@@3PAU_iobuf@@A, eax

; 4752 : 
; 4753 : 	if ( SMDFile == 0 )

  00019	85 c0		 test	 eax, eax
  0001b	75 04		 jne	 SHORT $LN12@OpenItemSc

; 5108 : }

  0001d	8b e5		 mov	 esp, ebp
  0001f	5d		 pop	 ebp
  00020	c3		 ret	 0
$LN12@OpenItemSc:

; 4754 : 	{
; 4755 : 		return FALSE;
; 4756 : 	}
; 4757 : 
; 4758 : 	memset ( ItemAttribute, 0, sizeof(ItemAttribute) );

  00021	68 00 00 0e 00	 push	 917504			; 000e0000H
  00026	6a 00		 push	 0
  00028	68 00 00 00 00	 push	 OFFSET ?ItemAttribute@@3PAUITEM_ATTRIBUTE@@A
  0002d	e8 00 00 00 00	 call	 _memset
  00032	83 c4 0c	 add	 esp, 12			; 0000000cH
  00035	b8 58 00 00 00	 mov	 eax, OFFSET ?ItemAttribute@@3PAUITEM_ATTRIBUTE@@A+88
  0003a	66 0f 1f 44 00
	00		 npad	 6
$LL4@OpenItemSc:

; 4759 : 	
; 4760 : 	for ( n=0;n<MAX_ITEMS;n++)
; 4761 : 	{
; 4762 : 		ItemAttribute[n].Level = -1;

  00040	c6 40 ca ff	 mov	 BYTE PTR [eax-54], 255	; 000000ffH

; 4763 : 		ItemAttribute[n].RepaireMoneyRate  = 0;

  00044	c7 00 00 00 00
	00		 mov	 DWORD PTR [eax], 0

; 4764 : 		ItemAttribute[n].AllRepaireMoneyRate  = 0;

  0004a	c7 40 04 00 00
	00 00		 mov	 DWORD PTR [eax+4], 0
  00051	83 c0 70	 add	 eax, 112		; 00000070H
  00054	3d 58 00 0e 00	 cmp	 eax, OFFSET ?ItemAttribute@@3PAUITEM_ATTRIBUTE@@A+917592
  00059	7c e5		 jl	 SHORT $LL4@OpenItemSc

; 4765 : 	}
; 4766 : 
; 4767 : 	
; 4768 : 	while ( true )
; 4769 : 	{
; 4770 : 		Token = GetToken();

  0005b	e8 00 00 00 00	 call	 ?GetToken@@YA?AW4SMDToken@@XZ ; GetToken

; 4771 : 
; 4772 : 		if ( Token == 2 )

  00060	83 f8 02	 cmp	 eax, 2
  00063	0f 84 fe 05 00
	00		 je	 $LN70@OpenItemSc
  00069	53		 push	 ebx
  0006a	56		 push	 esi
  0006b	57		 push	 edi
  0006c	0f 1f 40 00	 npad	 4
$LL5@OpenItemSc:

; 4773 : 		{
; 4774 : 			break;
; 4775 : 		}
; 4776 : 		if ( Token == 1 )

  00070	83 f8 01	 cmp	 eax, 1
  00073	0f 85 dd 05 00
	00		 jne	 $LN39@OpenItemSc

; 4777 : 		{
; 4778 : 			int ItemType;
; 4779 : 
; 4780 : 			ItemType = TokenNumber;

  00079	f3 0f 2c 3d 00
	00 00 00	 cvttss2si edi, DWORD PTR ?TokenNumber@@3MA

; 4781 : 			loop_count = 0;

  00081	33 f6		 xor	 esi, esi
  00083	89 75 fc	 mov	 DWORD PTR _loop_count$1$[ebp], esi
$LL7@OpenItemSc:

; 4782 : 			while ( true )
; 4783 : 			{
; 4784 : 				int ItemSubType;
; 4785 : 				LPITEM_ATTRIBUTE p;
; 4786 : 				
; 4787 : 				Token = GetToken();

  00086	e8 00 00 00 00	 call	 ?GetToken@@YA?AW4SMDToken@@XZ ; GetToken

; 4788 : 				ItemSubType = TokenNumber;

  0008b	f3 0f 2c 1d 00
	00 00 00	 cvttss2si ebx, DWORD PTR ?TokenNumber@@3MA

; 4789 : 
; 4790 : 				if ( ItemType >= 0 && ItemType < MAX_TYPE_ITEMS )

  00093	83 ff 0f	 cmp	 edi, 15			; 0000000fH
  00096	77 10		 ja	 SHORT $LN16@OpenItemSc

; 4791 : 				{
; 4792 : 					if ( g_MaxItemIndexOfEachItemType[ItemType] <= ItemSubType )

  00098	39 1c bd 00 00
	00 00		 cmp	 DWORD PTR ?g_MaxItemIndexOfEachItemType@@3PAHA[edi*4], ebx
  0009f	7f 07		 jg	 SHORT $LN16@OpenItemSc

; 4793 : 					{
; 4794 : 						g_MaxItemIndexOfEachItemType[ItemType] = ItemSubType;

  000a1	89 1c bd 00 00
	00 00		 mov	 DWORD PTR ?g_MaxItemIndexOfEachItemType@@3PAHA[edi*4], ebx
$LN16@OpenItemSc:

; 4795 : 					}
; 4796 : 				}
; 4797 : 
; 4798 : 				
; 4799 : 				if ( Token == 0 )

  000a8	85 c0		 test	 eax, eax
  000aa	75 37		 jne	 SHORT $LN18@OpenItemSc

; 4800 : 				{
; 4801 : 					if ( strcmp("end", TokenString ) == 0 )

  000ac	b9 00 00 00 00	 mov	 ecx, OFFSET ?TokenString@@3PADA
  000b1	b8 00 00 00 00	 mov	 eax, OFFSET ??_C@_03JBJLGPFL@end?$AA@
$LL65@OpenItemSc:
  000b6	8a 10		 mov	 dl, BYTE PTR [eax]
  000b8	3a 11		 cmp	 dl, BYTE PTR [ecx]
  000ba	75 1a		 jne	 SHORT $LN66@OpenItemSc
  000bc	84 d2		 test	 dl, dl
  000be	74 12		 je	 SHORT $LN67@OpenItemSc
  000c0	8a 50 01	 mov	 dl, BYTE PTR [eax+1]
  000c3	3a 51 01	 cmp	 dl, BYTE PTR [ecx+1]
  000c6	75 0e		 jne	 SHORT $LN66@OpenItemSc
  000c8	83 c0 02	 add	 eax, 2
  000cb	83 c1 02	 add	 ecx, 2
  000ce	84 d2		 test	 dl, dl
  000d0	75 e4		 jne	 SHORT $LL65@OpenItemSc
$LN67@OpenItemSc:
  000d2	33 c0		 xor	 eax, eax
  000d4	eb 05		 jmp	 SHORT $LN68@OpenItemSc
$LN66@OpenItemSc:
  000d6	1b c0		 sbb	 eax, eax
  000d8	83 c8 01	 or	 eax, 1
$LN68@OpenItemSc:
  000db	85 c0		 test	 eax, eax
  000dd	0f 84 6b 05 00
	00		 je	 $LN8@OpenItemSc
$LN18@OpenItemSc:

; 4802 : 					{
; 4803 : 						break;
; 4804 : 					}
; 4805 : 				}
; 4806 : 					
; 4807 : 				p = &ItemAttribute[ItemType*MAX_SUBTYPE_ITEMS + ItemSubType];

  000e3	8b c7		 mov	 eax, edi
  000e5	c1 e0 09	 shl	 eax, 9
  000e8	03 c3		 add	 eax, ebx
  000ea	6b f0 70	 imul	 esi, eax, 112
  000ed	81 c6 00 00 00
	00		 add	 esi, OFFSET ?ItemAttribute@@3PAUITEM_ATTRIBUTE@@A

; 4808 : 
; 4809 : 				Token = GetToken();

  000f3	e8 00 00 00 00	 call	 ?GetToken@@YA?AW4SMDToken@@XZ ; GetToken

; 4810 : 				p->ItemSlot = TokenNumber;

  000f8	f3 0f 2c 05 00
	00 00 00	 cvttss2si eax, DWORD PTR ?TokenNumber@@3MA
  00100	89 46 64	 mov	 DWORD PTR [esi+100], eax

; 4811 : 
; 4812 : 				Token = GetToken();

  00103	e8 00 00 00 00	 call	 ?GetToken@@YA?AW4SMDToken@@XZ ; GetToken

; 4813 : 				p->SkillType = TokenNumber;

  00108	f3 0f 2c 05 00
	00 00 00	 cvttss2si eax, DWORD PTR ?TokenNumber@@3MA
  00110	89 46 68	 mov	 DWORD PTR [esi+104], eax

; 4814 : 
; 4815 : 				Token = GetToken();

  00113	e8 00 00 00 00	 call	 ?GetToken@@YA?AW4SMDToken@@XZ ; GetToken

; 4816 : 				p->Width  = TokenNumber;

  00118	f3 0f 2c 05 00
	00 00 00	 cvttss2si eax, DWORD PTR ?TokenNumber@@3MA
  00120	88 46 23	 mov	 BYTE PTR [esi+35], al

; 4817 : 
; 4818 : 				Token = GetToken();

  00123	e8 00 00 00 00	 call	 ?GetToken@@YA?AW4SMDToken@@XZ ; GetToken

; 4819 : 				p->Height  = TokenNumber;

  00128	f3 0f 2c 05 00
	00 00 00	 cvttss2si eax, DWORD PTR ?TokenNumber@@3MA
  00130	88 46 24	 mov	 BYTE PTR [esi+36], al

; 4820 : 
; 4821 : 				Token = GetToken();

  00133	e8 00 00 00 00	 call	 ?GetToken@@YA?AW4SMDToken@@XZ ; GetToken

; 4822 : 				p->Serial = TokenNumber;

  00138	f3 0f 2c 05 00
	00 00 00	 cvttss2si eax, DWORD PTR ?TokenNumber@@3MA
  00140	88 46 25	 mov	 BYTE PTR [esi+37], al

; 4823 : 
; 4824 : 				Token = GetToken();

  00143	e8 00 00 00 00	 call	 ?GetToken@@YA?AW4SMDToken@@XZ ; GetToken

; 4825 : 				p->OptionFlag = TokenNumber;

  00148	f3 0f 2c 05 00
	00 00 00	 cvttss2si eax, DWORD PTR ?TokenNumber@@3MA
  00150	88 46 26	 mov	 BYTE PTR [esi+38], al

; 4826 : 
; 4827 : 				Token = GetToken();

  00153	e8 00 00 00 00	 call	 ?GetToken@@YA?AW4SMDToken@@XZ ; GetToken

; 4828 : 				p->MondownFlag = TokenNumber;

  00158	f3 0f 2c 05 00
	00 00 00	 cvttss2si eax, DWORD PTR ?TokenNumber@@3MA
  00160	88 46 27	 mov	 BYTE PTR [esi+39], al

; 4829 : 
; 4830 : 				Token = GetToken();

  00163	e8 00 00 00 00	 call	 ?GetToken@@YA?AW4SMDToken@@XZ ; GetToken

; 4831 : 				strcpy(&p->Name[0], TokenString );

  00168	b9 00 00 00 00	 mov	 ecx, OFFSET ?TokenString@@3PADA
  0016d	8b d6		 mov	 edx, esi
  0016f	2b d1		 sub	 edx, ecx
$LL41@OpenItemSc:
  00171	8a 01		 mov	 al, BYTE PTR [ecx]
  00173	8d 49 01	 lea	 ecx, DWORD PTR [ecx+1]
  00176	88 44 0a ff	 mov	 BYTE PTR [edx+ecx-1], al
  0017a	84 c0		 test	 al, al
  0017c	75 f3		 jne	 SHORT $LL41@OpenItemSc

; 4832 : 
; 4833 : 				if ( ItemType >= 0 && ItemType <= 5 )

  0017e	83 ff 05	 cmp	 edi, 5
  00181	0f 87 e5 00 00
	00		 ja	 $LN69@OpenItemSc

; 4834 : 				{
; 4835 : 					Token = GetToken();

  00187	e8 00 00 00 00	 call	 ?GetToken@@YA?AW4SMDToken@@XZ ; GetToken

; 4836 : 					p->Level = TokenNumber;

  0018c	f3 0f 2c 05 00
	00 00 00	 cvttss2si eax, DWORD PTR ?TokenNumber@@3MA
  00194	88 46 22	 mov	 BYTE PTR [esi+34], al

; 4837 : 
; 4838 : 					Token = GetToken();

  00197	e8 00 00 00 00	 call	 ?GetToken@@YA?AW4SMDToken@@XZ ; GetToken

; 4839 : 					p->DamageMin = TokenNumber;

  0019c	f3 0f 2c 05 00
	00 00 00	 cvttss2si eax, DWORD PTR ?TokenNumber@@3MA
  001a4	88 46 2a	 mov	 BYTE PTR [esi+42], al

; 4840 : 
; 4841 : 					Token = GetToken();

  001a7	e8 00 00 00 00	 call	 ?GetToken@@YA?AW4SMDToken@@XZ ; GetToken

; 4842 : 					p->DamageMax = TokenNumber;

  001ac	f3 0f 2c 05 00
	00 00 00	 cvttss2si eax, DWORD PTR ?TokenNumber@@3MA
  001b4	88 46 2b	 mov	 BYTE PTR [esi+43], al

; 4843 : 
; 4844 : 					Token = GetToken();

  001b7	e8 00 00 00 00	 call	 ?GetToken@@YA?AW4SMDToken@@XZ ; GetToken

; 4845 : 					p->AttackSpeed = TokenNumber;

  001bc	f3 0f 2c 05 00
	00 00 00	 cvttss2si eax, DWORD PTR ?TokenNumber@@3MA
  001c4	88 46 28	 mov	 BYTE PTR [esi+40], al

; 4846 : 
; 4847 : 					Token = GetToken();

  001c7	e8 00 00 00 00	 call	 ?GetToken@@YA?AW4SMDToken@@XZ ; GetToken

; 4848 : 					p->Durability = TokenNumber;

  001cc	f3 0f 2c 05 00
	00 00 00	 cvttss2si eax, DWORD PTR ?TokenNumber@@3MA
  001d4	88 46 30	 mov	 BYTE PTR [esi+48], al

; 4849 : 
; 4850 : 					Token = GetToken();

  001d7	e8 00 00 00 00	 call	 ?GetToken@@YA?AW4SMDToken@@XZ ; GetToken

; 4851 : 					p->MagicDurability = TokenNumber;

  001dc	f3 0f 2c 05 00
	00 00 00	 cvttss2si eax, DWORD PTR ?TokenNumber@@3MA
  001e4	88 46 31	 mov	 BYTE PTR [esi+49], al

; 4852 : 
; 4853 : 					Token = GetToken();

  001e7	e8 00 00 00 00	 call	 ?GetToken@@YA?AW4SMDToken@@XZ ; GetToken

; 4854 : 					p->MagicPW = TokenNumber;

  001ec	f3 0f 2c 05 00
	00 00 00	 cvttss2si eax, DWORD PTR ?TokenNumber@@3MA
  001f4	89 46 54	 mov	 DWORD PTR [esi+84], eax

; 4855 : 
; 4856 : 					Token = GetToken();

  001f7	e8 00 00 00 00	 call	 ?GetToken@@YA?AW4SMDToken@@XZ ; GetToken

; 4857 : 					p->RequireLevel = TokenNumber;

  001fc	f3 0f 2c 05 00
	00 00 00	 cvttss2si eax, DWORD PTR ?TokenNumber@@3MA
  00204	66 89 46 3a	 mov	 WORD PTR [esi+58], ax

; 4858 : 
; 4859 : 					Token = GetToken();

  00208	e8 00 00 00 00	 call	 ?GetToken@@YA?AW4SMDToken@@XZ ; GetToken

; 4860 : 					p->RequireStrength = TokenNumber;

  0020d	f3 0f 2c 05 00
	00 00 00	 cvttss2si eax, DWORD PTR ?TokenNumber@@3MA
  00215	66 89 46 34	 mov	 WORD PTR [esi+52], ax

; 4861 : 
; 4862 : 					Token = GetToken();

  00219	e8 00 00 00 00	 call	 ?GetToken@@YA?AW4SMDToken@@XZ ; GetToken

; 4863 : 					p->RequireDexterity = TokenNumber;

  0021e	f3 0f 2c 05 00
	00 00 00	 cvttss2si eax, DWORD PTR ?TokenNumber@@3MA
  00226	66 89 46 36	 mov	 WORD PTR [esi+54], ax

; 4864 : 
; 4865 : 					Token = GetToken();

  0022a	e8 00 00 00 00	 call	 ?GetToken@@YA?AW4SMDToken@@XZ ; GetToken

; 4866 : 					p->RequireEnergy = TokenNumber;

  0022f	f3 0f 2c 05 00
	00 00 00	 cvttss2si eax, DWORD PTR ?TokenNumber@@3MA
  00237	66 89 46 38	 mov	 WORD PTR [esi+56], ax

; 4867 : 
; 4868 : 					Token = GetToken();

  0023b	e8 00 00 00 00	 call	 ?GetToken@@YA?AW4SMDToken@@XZ ; GetToken

; 4869 : 					p->RequireVitality = TokenNumber;

  00240	f3 0f 2c 05 00
	00 00 00	 cvttss2si eax, DWORD PTR ?TokenNumber@@3MA
  00248	66 89 46 4c	 mov	 WORD PTR [esi+76], ax

; 4870 : 
; 4871 : 					Token = GetToken();

  0024c	e8 00 00 00 00	 call	 ?GetToken@@YA?AW4SMDToken@@XZ ; GetToken

; 4872 : 					p->RequireLeadership = TokenNumber;
; 4873 : 
; 4874 : 					if ( p->Width  >= 2)

  00251	80 7e 23 02	 cmp	 BYTE PTR [esi+35], 2
  00255	f3 0f 2c 05 00
	00 00 00	 cvttss2si eax, DWORD PTR ?TokenNumber@@3MA
  0025d	89 46 6c	 mov	 DWORD PTR [esi+108], eax
  00260	72 04		 jb	 SHORT $LN20@OpenItemSc

; 4875 : 					{
; 4876 : 						p->TwoHand = TRUE; // Review this later

  00262	c6 46 21 01	 mov	 BYTE PTR [esi+33], 1
$LN20@OpenItemSc:

; 4877 : 					}
; 4878 : 
; 4879 : 					(BYTE)p->Durability += (BYTE)p->MagicDurability;

  00266	8a 46 31	 mov	 al, BYTE PTR [esi+49]
  00269	00 46 30	 add	 BYTE PTR [esi+48], al
$LN69@OpenItemSc:

; 4880 : 				}
; 4881 : 
; 4882 : 				if ( ItemType >= 6 && ItemType <= 11 )

  0026c	8d 47 fa	 lea	 eax, DWORD PTR [edi-6]
  0026f	83 f8 05	 cmp	 eax, 5
  00272	0f 87 22 01 00
	00		 ja	 $LN21@OpenItemSc

; 4883 : 				{
; 4884 : 					Token = GetToken();

  00278	e8 00 00 00 00	 call	 ?GetToken@@YA?AW4SMDToken@@XZ ; GetToken

; 4885 : 					p->Level = TokenNumber;

  0027d	f3 0f 2c 05 00
	00 00 00	 cvttss2si eax, DWORD PTR ?TokenNumber@@3MA
  00285	88 46 22	 mov	 BYTE PTR [esi+34], al

; 4886 : 					
; 4887 : 					if ( ItemType == 6 )

  00288	83 ff 06	 cmp	 edi, 6
  0028b	75 22		 jne	 SHORT $LN22@OpenItemSc

; 4888 : 					{
; 4889 : 
; 4890 : 						Token = GetToken();

  0028d	e8 00 00 00 00	 call	 ?GetToken@@YA?AW4SMDToken@@XZ ; GetToken

; 4891 : 						p->Defense = TokenNumber;

  00292	f3 0f 2c 05 00
	00 00 00	 cvttss2si eax, DWORD PTR ?TokenNumber@@3MA
  0029a	88 46 2d	 mov	 BYTE PTR [esi+45], al

; 4892 : 
; 4893 : 						Token = GetToken();

  0029d	e8 00 00 00 00	 call	 ?GetToken@@YA?AW4SMDToken@@XZ ; GetToken

; 4894 : 						p->SuccessfulBlocking  = TokenNumber;

  002a2	f3 0f 2c 05 00
	00 00 00	 cvttss2si eax, DWORD PTR ?TokenNumber@@3MA
  002aa	88 46 2c	 mov	 BYTE PTR [esi+44], al
  002ad	eb 76		 jmp	 SHORT $LN28@OpenItemSc
$LN22@OpenItemSc:

; 4895 : 
; 4896 : 					}
; 4897 : 					else if ( ItemType >= 7 && ItemType <= 9 )

  002af	8d 47 f9	 lea	 eax, DWORD PTR [edi-7]
  002b2	83 f8 02	 cmp	 eax, 2
  002b5	77 22		 ja	 SHORT $LN24@OpenItemSc

; 4898 : 					{
; 4899 : 
; 4900 : 						Token = GetToken();

  002b7	e8 00 00 00 00	 call	 ?GetToken@@YA?AW4SMDToken@@XZ ; GetToken

; 4901 : 						p->Defense  = TokenNumber;

  002bc	f3 0f 2c 05 00
	00 00 00	 cvttss2si eax, DWORD PTR ?TokenNumber@@3MA
  002c4	88 46 2d	 mov	 BYTE PTR [esi+45], al

; 4902 : 
; 4903 : 						Token = GetToken();

  002c7	e8 00 00 00 00	 call	 ?GetToken@@YA?AW4SMDToken@@XZ ; GetToken

; 4904 : 						p->MagicDefense = TokenNumber;

  002cc	f3 0f 2c 05 00
	00 00 00	 cvttss2si eax, DWORD PTR ?TokenNumber@@3MA
  002d4	88 46 2e	 mov	 BYTE PTR [esi+46], al
  002d7	eb 4c		 jmp	 SHORT $LN28@OpenItemSc
$LN24@OpenItemSc:

; 4905 : 					}
; 4906 : 					else if ( ItemType == 10 )

  002d9	83 ff 0a	 cmp	 edi, 10			; 0000000aH
  002dc	75 22		 jne	 SHORT $LN26@OpenItemSc

; 4907 : 					{
; 4908 : 						Token = GetToken();

  002de	e8 00 00 00 00	 call	 ?GetToken@@YA?AW4SMDToken@@XZ ; GetToken

; 4909 : 						p->Defense = TokenNumber;

  002e3	f3 0f 2c 05 00
	00 00 00	 cvttss2si eax, DWORD PTR ?TokenNumber@@3MA
  002eb	88 46 2d	 mov	 BYTE PTR [esi+45], al

; 4910 : 
; 4911 : 						Token = GetToken();

  002ee	e8 00 00 00 00	 call	 ?GetToken@@YA?AW4SMDToken@@XZ ; GetToken

; 4912 : 						p->AttackSpeed = TokenNumber;

  002f3	f3 0f 2c 05 00
	00 00 00	 cvttss2si eax, DWORD PTR ?TokenNumber@@3MA
  002fb	88 46 28	 mov	 BYTE PTR [esi+40], al
  002fe	eb 25		 jmp	 SHORT $LN28@OpenItemSc
$LN26@OpenItemSc:

; 4913 : 					}
; 4914 : 					else if ( ItemType == 11 )

  00300	83 ff 0b	 cmp	 edi, 11			; 0000000bH
  00303	75 20		 jne	 SHORT $LN28@OpenItemSc

; 4915 : 					{
; 4916 : 						Token = GetToken();

  00305	e8 00 00 00 00	 call	 ?GetToken@@YA?AW4SMDToken@@XZ ; GetToken

; 4917 : 						p->Defense  = TokenNumber;

  0030a	f3 0f 2c 05 00
	00 00 00	 cvttss2si eax, DWORD PTR ?TokenNumber@@3MA
  00312	88 46 2d	 mov	 BYTE PTR [esi+45], al

; 4918 : 
; 4919 : 						Token = GetToken();

  00315	e8 00 00 00 00	 call	 ?GetToken@@YA?AW4SMDToken@@XZ ; GetToken

; 4920 : 						p->WalkSpeed = TokenNumber;

  0031a	f3 0f 2c 05 00
	00 00 00	 cvttss2si eax, DWORD PTR ?TokenNumber@@3MA
  00322	88 46 29	 mov	 BYTE PTR [esi+41], al
$LN28@OpenItemSc:

; 4921 : 					}
; 4922 : 					
; 4923 : 					Token = GetToken();

  00325	e8 00 00 00 00	 call	 ?GetToken@@YA?AW4SMDToken@@XZ ; GetToken

; 4924 : 					p->Durability = TokenNumber;

  0032a	f3 0f 2c 05 00
	00 00 00	 cvttss2si eax, DWORD PTR ?TokenNumber@@3MA
  00332	88 46 30	 mov	 BYTE PTR [esi+48], al

; 4925 : 
; 4926 : 					Token = GetToken();

  00335	e8 00 00 00 00	 call	 ?GetToken@@YA?AW4SMDToken@@XZ ; GetToken

; 4927 : 					p->RequireLevel = TokenNumber;

  0033a	f3 0f 2c 05 00
	00 00 00	 cvttss2si eax, DWORD PTR ?TokenNumber@@3MA
  00342	66 89 46 3a	 mov	 WORD PTR [esi+58], ax

; 4928 : 
; 4929 : 					Token = GetToken();

  00346	e8 00 00 00 00	 call	 ?GetToken@@YA?AW4SMDToken@@XZ ; GetToken

; 4930 : 					p->RequireStrength = TokenNumber;

  0034b	f3 0f 2c 05 00
	00 00 00	 cvttss2si eax, DWORD PTR ?TokenNumber@@3MA
  00353	66 89 46 34	 mov	 WORD PTR [esi+52], ax

; 4931 : 
; 4932 : 					Token = GetToken();

  00357	e8 00 00 00 00	 call	 ?GetToken@@YA?AW4SMDToken@@XZ ; GetToken

; 4933 : 					p->RequireDexterity = TokenNumber;

  0035c	f3 0f 2c 05 00
	00 00 00	 cvttss2si eax, DWORD PTR ?TokenNumber@@3MA
  00364	66 89 46 36	 mov	 WORD PTR [esi+54], ax

; 4934 : 
; 4935 : 					Token = GetToken();

  00368	e8 00 00 00 00	 call	 ?GetToken@@YA?AW4SMDToken@@XZ ; GetToken

; 4936 : 					p->RequireEnergy = TokenNumber;

  0036d	f3 0f 2c 05 00
	00 00 00	 cvttss2si eax, DWORD PTR ?TokenNumber@@3MA
  00375	66 89 46 38	 mov	 WORD PTR [esi+56], ax

; 4937 : 
; 4938 : 					Token = GetToken();

  00379	e8 00 00 00 00	 call	 ?GetToken@@YA?AW4SMDToken@@XZ ; GetToken

; 4939 : 					p->RequireVitality = TokenNumber;

  0037e	f3 0f 2c 05 00
	00 00 00	 cvttss2si eax, DWORD PTR ?TokenNumber@@3MA
  00386	66 89 46 4c	 mov	 WORD PTR [esi+76], ax

; 4940 : 
; 4941 : 					Token = GetToken();

  0038a	e8 00 00 00 00	 call	 ?GetToken@@YA?AW4SMDToken@@XZ ; GetToken

; 4942 : 					p->RequireLeadership = TokenNumber;

  0038f	f3 0f 2c 05 00
	00 00 00	 cvttss2si eax, DWORD PTR ?TokenNumber@@3MA
  00397	89 46 6c	 mov	 DWORD PTR [esi+108], eax
$LN21@OpenItemSc:

; 4943 : 				}
; 4944 : 
; 4945 : 				if ( ItemType == 13 )

  0039a	83 ff 0d	 cmp	 edi, 13			; 0000000dH
  0039d	0f 85 ba 00 00
	00		 jne	 $LN29@OpenItemSc

; 4946 : 				{
; 4947 : 					Token = GetToken();

  003a3	e8 00 00 00 00	 call	 ?GetToken@@YA?AW4SMDToken@@XZ ; GetToken

; 4948 : 					p->Level = TokenNumber;

  003a8	f3 0f 2c 05 00
	00 00 00	 cvttss2si eax, DWORD PTR ?TokenNumber@@3MA
  003b0	88 46 22	 mov	 BYTE PTR [esi+34], al

; 4949 : 
; 4950 : 					Token = GetToken();

  003b3	e8 00 00 00 00	 call	 ?GetToken@@YA?AW4SMDToken@@XZ ; GetToken

; 4951 : 					p->Durability = TokenNumber;

  003b8	f3 0f 2c 05 00
	00 00 00	 cvttss2si eax, DWORD PTR ?TokenNumber@@3MA
  003c0	88 46 30	 mov	 BYTE PTR [esi+48], al

; 4952 : 
; 4953 : 					Token = GetToken();

  003c3	e8 00 00 00 00	 call	 ?GetToken@@YA?AW4SMDToken@@XZ ; GetToken

; 4954 : 					p->Resistance[0] = TokenNumber;

  003c8	f3 0f 2c 05 00
	00 00 00	 cvttss2si eax, DWORD PTR ?TokenNumber@@3MA
  003d0	88 46 45	 mov	 BYTE PTR [esi+69], al

; 4955 : 
; 4956 : 					Token = GetToken();

  003d3	e8 00 00 00 00	 call	 ?GetToken@@YA?AW4SMDToken@@XZ ; GetToken

; 4957 : 					p->Resistance[1] = TokenNumber;

  003d8	f3 0f 2c 05 00
	00 00 00	 cvttss2si eax, DWORD PTR ?TokenNumber@@3MA
  003e0	88 46 46	 mov	 BYTE PTR [esi+70], al

; 4958 : 
; 4959 : 					Token = GetToken();

  003e3	e8 00 00 00 00	 call	 ?GetToken@@YA?AW4SMDToken@@XZ ; GetToken

; 4960 : 					p->Resistance[2] = TokenNumber;

  003e8	f3 0f 2c 05 00
	00 00 00	 cvttss2si eax, DWORD PTR ?TokenNumber@@3MA
  003f0	88 46 47	 mov	 BYTE PTR [esi+71], al

; 4961 : 
; 4962 : 					Token = GetToken();

  003f3	e8 00 00 00 00	 call	 ?GetToken@@YA?AW4SMDToken@@XZ ; GetToken

; 4963 : 					p->Resistance[3] = TokenNumber;

  003f8	f3 0f 2c 05 00
	00 00 00	 cvttss2si eax, DWORD PTR ?TokenNumber@@3MA
  00400	88 46 48	 mov	 BYTE PTR [esi+72], al

; 4964 : 
; 4965 : 					Token = GetToken();

  00403	e8 00 00 00 00	 call	 ?GetToken@@YA?AW4SMDToken@@XZ ; GetToken

; 4966 : 					p->Resistance[4] = TokenNumber;

  00408	f3 0f 2c 05 00
	00 00 00	 cvttss2si eax, DWORD PTR ?TokenNumber@@3MA
  00410	88 46 49	 mov	 BYTE PTR [esi+73], al

; 4967 : 
; 4968 : 					Token = GetToken();

  00413	e8 00 00 00 00	 call	 ?GetToken@@YA?AW4SMDToken@@XZ ; GetToken

; 4969 : 					p->Resistance[5] = TokenNumber;

  00418	f3 0f 2c 05 00
	00 00 00	 cvttss2si eax, DWORD PTR ?TokenNumber@@3MA
  00420	88 46 4a	 mov	 BYTE PTR [esi+74], al

; 4970 : 
; 4971 : 					Token = GetToken();

  00423	e8 00 00 00 00	 call	 ?GetToken@@YA?AW4SMDToken@@XZ ; GetToken

; 4972 : 					p->Resistance[6] = TokenNumber;

  00428	f3 0f 2c 05 00
	00 00 00	 cvttss2si eax, DWORD PTR ?TokenNumber@@3MA
  00430	88 46 4b	 mov	 BYTE PTR [esi+75], al

; 4973 : 
; 4974 : 					p->ResistanceType = -1;
; 4975 : 					
; 4976 : 					int n;
; 4977 : 
; 4978 : 					for (n=0;n<MAX_ITEM_SPECIAL_ATTRIBUTE-1;n++)

  00433	33 c0		 xor	 eax, eax
  00435	c6 46 62 ff	 mov	 BYTE PTR [esi+98], 255	; 000000ffH
  00439	0f 1f 80 00 00
	00 00		 npad	 7
$LL11@OpenItemSc:

; 4979 : 					{
; 4980 : 						if ( (p->Resistance[n]) != 0 )

  00440	80 7c 06 45 00	 cmp	 BYTE PTR [esi+eax+69], 0
  00445	74 03		 je	 SHORT $LN9@OpenItemSc

; 4981 : 						{
; 4982 : 							p->ResistanceType=n;

  00447	88 46 62	 mov	 BYTE PTR [esi+98], al
$LN9@OpenItemSc:

; 4973 : 
; 4974 : 					p->ResistanceType = -1;
; 4975 : 					
; 4976 : 					int n;
; 4977 : 
; 4978 : 					for (n=0;n<MAX_ITEM_SPECIAL_ATTRIBUTE-1;n++)

  0044a	40		 inc	 eax
  0044b	83 f8 06	 cmp	 eax, 6
  0044e	7c f0		 jl	 SHORT $LL11@OpenItemSc

; 4983 : 						}
; 4984 : 					}
; 4985 : 
; 4986 : 					p->RequireLevel = p->Level ;

  00450	0f b6 46 22	 movzx	 eax, BYTE PTR [esi+34]
  00454	66 89 46 3a	 mov	 WORD PTR [esi+58], ax

; 4987 : 					
; 4988 : 				}
; 4989 : 
; 4990 : 				if ( ItemType == 14 )

  00458	e9 35 01 00 00	 jmp	 $LN35@OpenItemSc
$LN29@OpenItemSc:
  0045d	83 ff 0e	 cmp	 edi, 14			; 0000000eH
  00460	75 2a		 jne	 SHORT $LN31@OpenItemSc

; 4991 : 				{
; 4992 : 					Token = GetToken();

  00462	e8 00 00 00 00	 call	 ?GetToken@@YA?AW4SMDToken@@XZ ; GetToken

; 4993 : 					p->Value = TokenNumber;

  00467	f3 0f 2c 05 00
	00 00 00	 cvttss2si eax, DWORD PTR ?TokenNumber@@3MA
  0046f	66 89 46 3c	 mov	 WORD PTR [esi+60], ax

; 4994 : 
; 4995 : 					Token = GetToken();

  00473	e8 00 00 00 00	 call	 ?GetToken@@YA?AW4SMDToken@@XZ ; GetToken

; 4996 : 					p->Level = TokenNumber;

  00478	f3 0f 2c 05 00
	00 00 00	 cvttss2si eax, DWORD PTR ?TokenNumber@@3MA

; 4997 : 
; 4998 : 					p->Durability = 1;

  00480	c6 46 30 01	 mov	 BYTE PTR [esi+48], 1
  00484	88 46 22	 mov	 BYTE PTR [esi+34], al

; 4999 : 				}
; 5000 : 
; 5001 : 				if ( ItemType == 12 )

  00487	e9 0b 01 00 00	 jmp	 $LN34@OpenItemSc
$LN31@OpenItemSc:
  0048c	83 ff 0c	 cmp	 edi, 12			; 0000000cH
  0048f	0f 85 9b 00 00
	00		 jne	 $LN32@OpenItemSc

; 5002 : 				{
; 5003 : 					Token = GetToken();

  00495	e8 00 00 00 00	 call	 ?GetToken@@YA?AW4SMDToken@@XZ ; GetToken

; 5004 : 					p->Level = TokenNumber;

  0049a	f3 0f 2c 05 00
	00 00 00	 cvttss2si eax, DWORD PTR ?TokenNumber@@3MA
  004a2	88 46 22	 mov	 BYTE PTR [esi+34], al

; 5005 : 
; 5006 : 					Token = GetToken();

  004a5	e8 00 00 00 00	 call	 ?GetToken@@YA?AW4SMDToken@@XZ ; GetToken

; 5007 : 					p->Defense = TokenNumber;

  004aa	f3 0f 2c 05 00
	00 00 00	 cvttss2si eax, DWORD PTR ?TokenNumber@@3MA
  004b2	88 46 2d	 mov	 BYTE PTR [esi+45], al

; 5008 : 
; 5009 : 					Token = GetToken();

  004b5	e8 00 00 00 00	 call	 ?GetToken@@YA?AW4SMDToken@@XZ ; GetToken

; 5010 : 					p->Durability = TokenNumber;

  004ba	f3 0f 2c 05 00
	00 00 00	 cvttss2si eax, DWORD PTR ?TokenNumber@@3MA
  004c2	88 46 30	 mov	 BYTE PTR [esi+48], al

; 5011 : 
; 5012 : 					Token = GetToken();

  004c5	e8 00 00 00 00	 call	 ?GetToken@@YA?AW4SMDToken@@XZ ; GetToken

; 5013 : 					p->RequireLevel = TokenNumber;

  004ca	f3 0f 2c 05 00
	00 00 00	 cvttss2si eax, DWORD PTR ?TokenNumber@@3MA
  004d2	66 89 46 3a	 mov	 WORD PTR [esi+58], ax

; 5014 : 
; 5015 : 					Token = GetToken();

  004d6	e8 00 00 00 00	 call	 ?GetToken@@YA?AW4SMDToken@@XZ ; GetToken

; 5016 : 					p->RequireEnergy = TokenNumber;

  004db	f3 0f 2c 05 00
	00 00 00	 cvttss2si eax, DWORD PTR ?TokenNumber@@3MA
  004e3	66 89 46 38	 mov	 WORD PTR [esi+56], ax

; 5017 : 
; 5018 : 					Token = GetToken();

  004e7	e8 00 00 00 00	 call	 ?GetToken@@YA?AW4SMDToken@@XZ ; GetToken

; 5019 : 					p->RequireStrength = TokenNumber;

  004ec	f3 0f 2c 05 00
	00 00 00	 cvttss2si eax, DWORD PTR ?TokenNumber@@3MA
  004f4	66 89 46 34	 mov	 WORD PTR [esi+52], ax

; 5020 : 
; 5021 : 					Token = GetToken();

  004f8	e8 00 00 00 00	 call	 ?GetToken@@YA?AW4SMDToken@@XZ ; GetToken

; 5022 : 					p->RequireDexterity = TokenNumber;

  004fd	f3 0f 2c 05 00
	00 00 00	 cvttss2si eax, DWORD PTR ?TokenNumber@@3MA
  00505	66 89 46 36	 mov	 WORD PTR [esi+54], ax

; 5023 : 
; 5024 : 					Token = GetToken();

  00509	e8 00 00 00 00	 call	 ?GetToken@@YA?AW4SMDToken@@XZ ; GetToken

; 5025 : 					p->RequireLeadership = TokenNumber;

  0050e	f3 0f 2c 05 00
	00 00 00	 cvttss2si eax, DWORD PTR ?TokenNumber@@3MA
  00516	89 46 6c	 mov	 DWORD PTR [esi+108], eax

; 5026 : 
; 5027 : 					Token = GetToken();

  00519	e8 00 00 00 00	 call	 ?GetToken@@YA?AW4SMDToken@@XZ ; GetToken

; 5028 : 					p->BuyMoney = TokenNumber;

  0051e	f3 0f 10 05 00
	00 00 00	 movss	 xmm0, DWORD PTR ?TokenNumber@@3MA
  00526	e8 00 00 00 00	 call	 __ftoui3
  0052b	89 46 50	 mov	 DWORD PTR [esi+80], eax

; 5029 : 
; 5030 : 				}
; 5031 : 				
; 5032 : 				if ( ItemType == 15 )

  0052e	eb 67		 jmp	 SHORT $LN34@OpenItemSc
$LN32@OpenItemSc:
  00530	83 ff 0f	 cmp	 edi, 15			; 0000000fH
  00533	75 58		 jne	 SHORT $LN33@OpenItemSc

; 5033 : 				{
; 5034 : 
; 5035 : 					Token = GetToken();

  00535	e8 00 00 00 00	 call	 ?GetToken@@YA?AW4SMDToken@@XZ ; GetToken

; 5036 : 					p->Level = TokenNumber;

  0053a	f3 0f 2c 05 00
	00 00 00	 cvttss2si eax, DWORD PTR ?TokenNumber@@3MA
  00542	88 46 22	 mov	 BYTE PTR [esi+34], al

; 5037 : 
; 5038 : 					Token = GetToken();

  00545	e8 00 00 00 00	 call	 ?GetToken@@YA?AW4SMDToken@@XZ ; GetToken

; 5039 : 					p->RequireLevel  = TokenNumber;

  0054a	f3 0f 2c 05 00
	00 00 00	 cvttss2si eax, DWORD PTR ?TokenNumber@@3MA
  00552	66 89 46 3a	 mov	 WORD PTR [esi+58], ax

; 5040 : 
; 5041 : 					Token = GetToken();

  00556	e8 00 00 00 00	 call	 ?GetToken@@YA?AW4SMDToken@@XZ ; GetToken

; 5042 : 					p->RequireEnergy  = TokenNumber;

  0055b	f3 0f 2c 05 00
	00 00 00	 cvttss2si eax, DWORD PTR ?TokenNumber@@3MA
  00563	66 89 46 38	 mov	 WORD PTR [esi+56], ax

; 5043 : 
; 5044 : 					Token = GetToken();

  00567	e8 00 00 00 00	 call	 ?GetToken@@YA?AW4SMDToken@@XZ ; GetToken

; 5045 : 					p->BuyMoney  = TokenNumber;

  0056c	f3 0f 10 05 00
	00 00 00	 movss	 xmm0, DWORD PTR ?TokenNumber@@3MA
  00574	e8 00 00 00 00	 call	 __ftoui3

; 5046 : 
; 5047 : 					p->DamageMin = p->Level;

  00579	8a 4e 22	 mov	 cl, BYTE PTR [esi+34]
  0057c	89 46 50	 mov	 DWORD PTR [esi+80], eax

; 5048 : 					p->DamageMax = p->Level + p->Level/2; 

  0057f	8a c1		 mov	 al, cl
  00581	d0 e8		 shr	 al, 1
  00583	02 c1		 add	 al, cl
  00585	88 4e 2a	 mov	 BYTE PTR [esi+42], cl
  00588	88 46 2b	 mov	 BYTE PTR [esi+43], al

; 5049 : 				}
; 5050 : 
; 5051 : 				if ( ItemType <= 11 || ItemType == 13)

  0058b	eb 0a		 jmp	 SHORT $LN34@OpenItemSc
$LN33@OpenItemSc:
  0058d	83 ff 0b	 cmp	 edi, 11			; 0000000bH
  00590	7f 05		 jg	 SHORT $LN34@OpenItemSc
$LN35@OpenItemSc:

; 5052 : 				{
; 5053 : 					Token = GetToken();

  00592	e8 00 00 00 00	 call	 ?GetToken@@YA?AW4SMDToken@@XZ ; GetToken
$LN34@OpenItemSc:

; 5054 : 				}
; 5055 : 
; 5056 : 				p->SetAttr = TokenNumber;

  00597	f3 0f 2c 05 00
	00 00 00	 cvttss2si eax, DWORD PTR ?TokenNumber@@3MA
  0059f	88 46 61	 mov	 BYTE PTR [esi+97], al

; 5057 : 
; 5058 : 				if ( ItemType <= 13 || ItemType == 15 )

  005a2	83 ff 0d	 cmp	 edi, 13			; 0000000dH
  005a5	7e 05		 jle	 SHORT $LN37@OpenItemSc
  005a7	83 ff 0f	 cmp	 edi, 15			; 0000000fH
  005aa	75 70		 jne	 SHORT $LN36@OpenItemSc
$LN37@OpenItemSc:

; 5059 : 				{
; 5060 : 
; 5061 : 					Token = GetToken();

  005ac	e8 00 00 00 00	 call	 ?GetToken@@YA?AW4SMDToken@@XZ ; GetToken

; 5062 : 					p->RequireClass[0]  = TokenNumber;

  005b1	f3 0f 2c 05 00
	00 00 00	 cvttss2si eax, DWORD PTR ?TokenNumber@@3MA
  005b9	88 46 3e	 mov	 BYTE PTR [esi+62], al

; 5063 : 
; 5064 : 					Token = GetToken();

  005bc	e8 00 00 00 00	 call	 ?GetToken@@YA?AW4SMDToken@@XZ ; GetToken

; 5065 : 					p->RequireClass[1]  = TokenNumber;

  005c1	f3 0f 2c 05 00
	00 00 00	 cvttss2si eax, DWORD PTR ?TokenNumber@@3MA
  005c9	88 46 3f	 mov	 BYTE PTR [esi+63], al

; 5066 : 
; 5067 : 					Token = GetToken();

  005cc	e8 00 00 00 00	 call	 ?GetToken@@YA?AW4SMDToken@@XZ ; GetToken

; 5068 : 					p->RequireClass[2]  = TokenNumber;

  005d1	f3 0f 2c 05 00
	00 00 00	 cvttss2si eax, DWORD PTR ?TokenNumber@@3MA
  005d9	88 46 40	 mov	 BYTE PTR [esi+64], al

; 5069 : 
; 5070 : 					Token = GetToken();

  005dc	e8 00 00 00 00	 call	 ?GetToken@@YA?AW4SMDToken@@XZ ; GetToken

; 5071 : 					p->RequireClass[3]  = TokenNumber;

  005e1	f3 0f 2c 05 00
	00 00 00	 cvttss2si eax, DWORD PTR ?TokenNumber@@3MA
  005e9	88 46 41	 mov	 BYTE PTR [esi+65], al

; 5072 : 
; 5073 : 					Token = GetToken();

  005ec	e8 00 00 00 00	 call	 ?GetToken@@YA?AW4SMDToken@@XZ ; GetToken

; 5074 : 					p->RequireClass[4]  = TokenNumber;

  005f1	f3 0f 2c 05 00
	00 00 00	 cvttss2si eax, DWORD PTR ?TokenNumber@@3MA
  005f9	88 46 42	 mov	 BYTE PTR [esi+66], al

; 5075 : 
; 5076 : 					Token = GetToken();

  005fc	e8 00 00 00 00	 call	 ?GetToken@@YA?AW4SMDToken@@XZ ; GetToken

; 5077 : 					p->RequireClass[5]	= TokenNumber;

  00601	f3 0f 2c 05 00
	00 00 00	 cvttss2si eax, DWORD PTR ?TokenNumber@@3MA
  00609	88 46 43	 mov	 BYTE PTR [esi+67], al

; 5078 : 
; 5079 : 					Token = GetToken();

  0060c	e8 00 00 00 00	 call	 ?GetToken@@YA?AW4SMDToken@@XZ ; GetToken

; 5080 : 					p->RequireClass[6]  = TokenNumber;

  00611	f3 0f 2c 05 00
	00 00 00	 cvttss2si eax, DWORD PTR ?TokenNumber@@3MA
  00619	88 46 44	 mov	 BYTE PTR [esi+68], al
$LN36@OpenItemSc:

; 5081 : 				}
; 5082 : 
; 5083 : 				CalRepairRate(ItemType, ItemSubType, p);

  0061c	56		 push	 esi
  0061d	53		 push	 ebx
  0061e	57		 push	 edi
  0061f	e8 00 00 00 00	 call	 ?CalRepairRate@@YAXHHPAUITEM_ATTRIBUTE@@@Z ; CalRepairRate

; 5084 : 
; 5085 : 				p->HaveItemInfo = TRUE;

  00624	c6 46 20 01	 mov	 BYTE PTR [esi+32], 1
  00628	83 c4 0c	 add	 esp, 12			; 0000000cH

; 5086 : 
; 5087 : 				loop_count++;

  0062b	8b 75 fc	 mov	 esi, DWORD PTR _loop_count$1$[ebp]
  0062e	46		 inc	 esi
  0062f	89 75 fc	 mov	 DWORD PTR _loop_count$1$[ebp], esi

; 5088 : 
; 5089 : 				if ( loop_count > MAX_SUBTYPE_ITEMS )

  00632	81 fe 00 02 00
	00		 cmp	 esi, 512		; 00000200H
  00638	0f 8e 48 fa ff
	ff		 jle	 $LL7@OpenItemSc

; 5090 : 				{
; 5091 : 					MsgBox("Error : Item Data fail. (LoopCount:%d) Item Type:%d Index %d", loop_count, ItemType, ItemSubType);

  0063e	53		 push	 ebx
  0063f	57		 push	 edi
  00640	56		 push	 esi
  00641	68 00 00 00 00	 push	 OFFSET ??_C@_0DN@NLHNDLLL@Error?5?3?5Item?5Data?5fail?4?5?$CILoopCou@
  00646	e8 00 00 00 00	 call	 ?MsgBox@@YAXPADZZ	; MsgBox
  0064b	83 c4 10	 add	 esp, 16			; 00000010H
$LN8@OpenItemSc:

; 5092 : 					break;
; 5093 : 				}
; 5094 : 			}
; 5095 : 
; 5096 : 			if ( loop_count > MAX_SUBTYPE_ITEMS )

  0064e	81 fe 00 02 00
	00		 cmp	 esi, 512		; 00000200H
  00654	7f 0e		 jg	 SHORT $LN71@OpenItemSc
$LN39@OpenItemSc:

; 4765 : 	}
; 4766 : 
; 4767 : 	
; 4768 : 	while ( true )
; 4769 : 	{
; 4770 : 		Token = GetToken();

  00656	e8 00 00 00 00	 call	 ?GetToken@@YA?AW4SMDToken@@XZ ; GetToken

; 4771 : 
; 4772 : 		if ( Token == 2 )

  0065b	83 f8 02	 cmp	 eax, 2
  0065e	0f 85 0c fa ff
	ff		 jne	 $LL5@OpenItemSc
$LN71@OpenItemSc:
  00664	5f		 pop	 edi
  00665	5e		 pop	 esi
  00666	5b		 pop	 ebx
$LN70@OpenItemSc:

; 5097 : 			{
; 5098 : 				break;
; 5099 : 			}
; 5100 : 			
; 5101 : 		}
; 5102 : 
; 5103 : 
; 5104 : 	}
; 5105 : 
; 5106 : 	fclose(SMDFile);

  00667	ff 35 00 00 00
	00		 push	 DWORD PTR ?SMDFile@@3PAU_iobuf@@A
  0066d	e8 00 00 00 00	 call	 _fclose
  00672	83 c4 04	 add	 esp, 4

; 5107 : 	return TRUE;

  00675	b8 01 00 00 00	 mov	 eax, 1

; 5108 : }

  0067a	8b e5		 mov	 esp, ebp
  0067c	5d		 pop	 ebp
  0067d	c3		 ret	 0
?OpenItemScript@@YAHPAD@Z ENDP				; OpenItemScript
_TEXT	ENDS
; Function compile flags: /Ogtp
; File c:\users\michel\desktop\source\gameserver\common\zzzitem.cpp
;	COMDAT ?CalRepairRate@@YAXHHPAUITEM_ATTRIBUTE@@@Z
_TEXT	SEGMENT
_itemtype$ = 8						; size = 4
_itemsubtype$ = 12					; size = 4
_p$ = 16						; size = 4
?CalRepairRate@@YAXHHPAUITEM_ATTRIBUTE@@@Z PROC		; CalRepairRate, COMDAT

; 4739 : {

  00000	55		 push	 ebp
  00001	8b ec		 mov	 ebp, esp

; 4740 : 	p->RepaireMoneyRate = (float)0.1;

  00003	8b 45 10	 mov	 eax, DWORD PTR _p$[ebp]
  00006	c7 40 58 cd cc
	cc 3d		 mov	 DWORD PTR [eax+88], 1036831949 ; 3dcccccdH

; 4741 : 	p->AllRepaireMoneyRate = (float)0.4;

  0000d	c7 40 5c cd cc
	cc 3e		 mov	 DWORD PTR [eax+92], 1053609165 ; 3ecccccdH

; 4742 : }

  00014	5d		 pop	 ebp
  00015	c3		 ret	 0
?CalRepairRate@@YAXHHPAUITEM_ATTRIBUTE@@@Z ENDP		; CalRepairRate
_TEXT	ENDS
; Function compile flags: /Ogtp
; File c:\users\michel\desktop\source\gameserver\common\zzzitem.cpp
;	COMDAT ?GetAllRepairItemRate@@YAMH@Z
_TEXT	SEGMENT
_index$ = 8						; size = 4
?GetAllRepairItemRate@@YAMH@Z PROC			; GetAllRepairItemRate, COMDAT

; 4734 : {

  00000	55		 push	 ebp
  00001	8b ec		 mov	 ebp, esp

; 4735 : 	return ItemAttribute[index].AllRepaireMoneyRate;

  00003	6b 45 08 70	 imul	 eax, DWORD PTR _index$[ebp], 112
  00007	d9 80 5c 00 00
	00		 fld	 DWORD PTR ?ItemAttribute@@3PAUITEM_ATTRIBUTE@@A[eax+92]

; 4736 : }

  0000d	5d		 pop	 ebp
  0000e	c3		 ret	 0
?GetAllRepairItemRate@@YAMH@Z ENDP			; GetAllRepairItemRate
_TEXT	ENDS
; Function compile flags: /Ogtp
; File c:\users\michel\desktop\source\gameserver\common\zzzitem.cpp
;	COMDAT ?GetRepairItemRate@@YAMH@Z
_TEXT	SEGMENT
_index$ = 8						; size = 4
?GetRepairItemRate@@YAMH@Z PROC				; GetRepairItemRate, COMDAT

; 4728 : {

  00000	55		 push	 ebp
  00001	8b ec		 mov	 ebp, esp

; 4729 : 	return ItemAttribute[index].RepaireMoneyRate;

  00003	6b 45 08 70	 imul	 eax, DWORD PTR _index$[ebp], 112
  00007	d9 80 58 00 00
	00		 fld	 DWORD PTR ?ItemAttribute@@3PAUITEM_ATTRIBUTE@@A[eax+88]

; 4730 : }

  0000d	5d		 pop	 ebp
  0000e	c3		 ret	 0
?GetRepairItemRate@@YAMH@Z ENDP				; GetRepairItemRate
_TEXT	ENDS
; Function compile flags: /Ogtp
; File c:\users\michel\desktop\source\gameserver\common\zzzitem.cpp
;	COMDAT ?ItemGetDefenseDurability@@YAHH@Z
_TEXT	SEGMENT
_index$ = 8						; size = 4
?ItemGetDefenseDurability@@YAHH@Z PROC			; ItemGetDefenseDurability, COMDAT

; 4722 : {

  00000	55		 push	 ebp
  00001	8b ec		 mov	 ebp, esp

; 4723 : 	return ItemAttribute[index].DefenceDur;

  00003	6b 45 08 70	 imul	 eax, DWORD PTR _index$[ebp], 112
  00007	0f b6 80 33 00
	00 00		 movzx	 eax, BYTE PTR ?ItemAttribute@@3PAUITEM_ATTRIBUTE@@A[eax+51]

; 4724 : }

  0000e	5d		 pop	 ebp
  0000f	c3		 ret	 0
?ItemGetDefenseDurability@@YAHH@Z ENDP			; ItemGetDefenseDurability
_TEXT	ENDS
; Function compile flags: /Ogtp
; File c:\users\michel\desktop\source\gameserver\common\zzzitem.cpp
;	COMDAT ?ItemGetAttackDurability@@YAHH@Z
_TEXT	SEGMENT
_index$ = 8						; size = 4
?ItemGetAttackDurability@@YAHH@Z PROC			; ItemGetAttackDurability, COMDAT

; 4716 : {

  00000	55		 push	 ebp
  00001	8b ec		 mov	 ebp, esp

; 4717 : 	return ItemAttribute[index].AttackDur;

  00003	6b 45 08 70	 imul	 eax, DWORD PTR _index$[ebp], 112
  00007	0f b6 80 32 00
	00 00		 movzx	 eax, BYTE PTR ?ItemAttribute@@3PAUITEM_ATTRIBUTE@@A[eax+50]

; 4718 : }

  0000e	5d		 pop	 ebp
  0000f	c3		 ret	 0
?ItemGetAttackDurability@@YAHH@Z ENDP			; ItemGetAttackDurability
_TEXT	ENDS
; Function compile flags: /Ogtp
; File c:\users\michel\desktop\source\gameserver\common\zzzitem.cpp
;	COMDAT ?ItemGetDurability@@YAHHHHH@Z
_TEXT	SEGMENT
_index$ = 8						; size = 4
_itemLevel$ = 12					; size = 4
_ExcellentItem$ = 16					; size = 4
_SetItem$ = 20						; size = 4
?ItemGetDurability@@YAHHHHH@Z PROC			; ItemGetDurability, COMDAT

; 4629 : {

  00000	55		 push	 ebp
  00001	8b ec		 mov	 ebp, esp

; 4630 : 
; 4631 : 	if ( index == ITEMGET(14,21) && itemLevel == 3 )	// Mark Lord

  00003	8b 4d 08	 mov	 ecx, DWORD PTR _index$[ebp]
  00006	8b 55 0c	 mov	 edx, DWORD PTR _itemLevel$[ebp]
  00009	81 f9 15 1c 00
	00		 cmp	 ecx, 7189		; 00001c15H
  0000f	75 18		 jne	 SHORT $LN2@ItemGetDur
  00011	83 fa 03	 cmp	 edx, 3
  00014	75 42		 jne	 SHORT $LN31@ItemGetDur

; 4646 : 	{
; 4647 : 		dur= ItemAttribute[index].Durability + itemLevel;

  00016	6b c1 70	 imul	 eax, ecx, 112
  00019	33 d2		 xor	 edx, edx
  0001b	0f b6 80 30 00
	00 00		 movzx	 eax, BYTE PTR ?ItemAttribute@@3PAUITEM_ATTRIBUTE@@A[eax+48]
  00022	03 c2		 add	 eax, edx
  00024	e9 8e 00 00 00	 jmp	 $LN21@ItemGetDur
$LN2@ItemGetDur:

; 4632 : 		itemLevel=0;
; 4633 : 	
; 4634 : 	if ( index == ITEMGET(14,29) )

  00029	81 f9 1d 1c 00
	00		 cmp	 ecx, 7197		; 00001c1dH
  0002f	75 07		 jne	 SHORT $LN3@ItemGetDur
$LN47@ItemGetDur:

; 4635 : 		return 1;

  00031	b8 01 00 00 00	 mov	 eax, 1

; 4708 : 		dur = 255;
; 4709 : 
; 4710 : 	return dur;
; 4711 : }

  00036	5d		 pop	 ebp
  00037	c3		 ret	 0
$LN3@ItemGetDur:

; 4636 : 
; 4637 : 	if ( index == ITEMGET(14,100) )

  00038	81 f9 64 1c 00
	00		 cmp	 ecx, 7268		; 00001c64H
  0003e	74 f1		 je	 SHORT $LN47@ItemGetDur

; 4638 : 		return 1;
; 4639 : 
; 4640 : 	if ( index == ITEMGET(12,200) || index == ITEMGET(12,201) )

  00040	81 f9 c8 18 00
	00		 cmp	 ecx, 6344		; 000018c8H
  00046	0f 84 1d 01 00
	00		 je	 $LN6@ItemGetDur
  0004c	81 f9 c9 18 00
	00		 cmp	 ecx, 6345		; 000018c9H
  00052	0f 84 11 01 00
	00		 je	 $LN6@ItemGetDur
$LN31@ItemGetDur:

; 4642 : 
; 4643 : 	int dur=0;
; 4644 : 
; 4645 : 	if ( itemLevel < 5)

  00058	83 fa 05	 cmp	 edx, 5
  0005b	7d 0e		 jge	 SHORT $LN7@ItemGetDur

; 4646 : 	{
; 4647 : 		dur= ItemAttribute[index].Durability + itemLevel;

  0005d	6b c1 70	 imul	 eax, ecx, 112
  00060	0f b6 80 30 00
	00 00		 movzx	 eax, BYTE PTR ?ItemAttribute@@3PAUITEM_ATTRIBUTE@@A[eax+48]
  00067	03 c2		 add	 eax, edx
  00069	eb 4c		 jmp	 SHORT $LN21@ItemGetDur
$LN7@ItemGetDur:

; 4648 : 	}
; 4649 : 	else if ( itemLevel >= 5 )
; 4650 : 	{
; 4651 : 		if ( itemLevel == 10 )
; 4652 : 		{
; 4653 : 			dur=ItemAttribute[index].Durability + itemLevel*2-3;

  0006b	6b c1 70	 imul	 eax, ecx, 112
  0006e	0f b6 80 30 00
	00 00		 movzx	 eax, BYTE PTR ?ItemAttribute@@3PAUITEM_ATTRIBUTE@@A[eax+48]
  00075	83 fa 0a	 cmp	 edx, 10			; 0000000aH
  00078	75 05		 jne	 SHORT $LN10@ItemGetDur
  0007a	83 c0 11	 add	 eax, 17			; 00000011H
  0007d	eb 38		 jmp	 SHORT $LN21@ItemGetDur
$LN10@ItemGetDur:

; 4654 : 		}
; 4655 : 		else if (itemLevel == 11 )

  0007f	83 fa 0b	 cmp	 edx, 11			; 0000000bH
  00082	75 05		 jne	 SHORT $LN12@ItemGetDur

; 4656 : 		{
; 4657 : 			dur=ItemAttribute[index].Durability + itemLevel*2-1;

  00084	83 c0 15	 add	 eax, 21			; 00000015H
  00087	eb 2e		 jmp	 SHORT $LN21@ItemGetDur
$LN12@ItemGetDur:

; 4658 : 		}
; 4659 : 		else if (itemLevel == 12 )

  00089	83 fa 0c	 cmp	 edx, 12			; 0000000cH
  0008c	75 05		 jne	 SHORT $LN14@ItemGetDur

; 4660 : 		{
; 4661 : 			dur=ItemAttribute[index].Durability + itemLevel*2+2;

  0008e	83 c0 1a	 add	 eax, 26			; 0000001aH
  00091	eb 24		 jmp	 SHORT $LN21@ItemGetDur
$LN14@ItemGetDur:

; 4662 : 		}
; 4663 : 		else if (itemLevel == 13 )

  00093	83 fa 0d	 cmp	 edx, 13			; 0000000dH
  00096	75 05		 jne	 SHORT $LN16@ItemGetDur

; 4664 : 		{
; 4665 : 			dur=ItemAttribute[index].Durability + itemLevel*2+6;

  00098	83 c0 20	 add	 eax, 32			; 00000020H
  0009b	eb 1a		 jmp	 SHORT $LN21@ItemGetDur
$LN16@ItemGetDur:

; 4666 : 		}
; 4667 : 		else if (itemLevel == 14)

  0009d	83 fa 0e	 cmp	 edx, 14			; 0000000eH
  000a0	75 05		 jne	 SHORT $LN18@ItemGetDur

; 4668 : 		{
; 4669 : 			dur=ItemAttribute[index].Durability + itemLevel*2+11;

  000a2	83 c0 27	 add	 eax, 39			; 00000027H
  000a5	eb 10		 jmp	 SHORT $LN21@ItemGetDur
$LN18@ItemGetDur:

; 4670 : 		}
; 4671 : 		else if (itemLevel == 15)

  000a7	83 fa 0f	 cmp	 edx, 15			; 0000000fH
  000aa	75 05		 jne	 SHORT $LN20@ItemGetDur

; 4672 : 		{
; 4673 : 			dur=ItemAttribute[index].Durability + itemLevel*2+17;

  000ac	83 c0 2f	 add	 eax, 47			; 0000002fH

; 4674 : 		}
; 4675 : 		else

  000af	eb 06		 jmp	 SHORT $LN21@ItemGetDur
$LN20@ItemGetDur:

; 4676 : 		{
; 4677 : 			dur=ItemAttribute[index].Durability + itemLevel*2-4;

  000b1	8d 04 50	 lea	 eax, DWORD PTR [eax+edx*2]
  000b4	83 c0 fc	 add	 eax, -4			; fffffffcH
$LN21@ItemGetDur:

; 4678 : 		}
; 4679 : 	}
; 4680 : 	
; 4681 : 	if ( index == ITEMGET(13,51) )

  000b7	81 f9 33 1a 00
	00		 cmp	 ecx, 6707		; 00001a33H
  000bd	75 07		 jne	 SHORT $LN22@ItemGetDur

; 4682 : 	{
; 4683 : 		dur = 1;

  000bf	b8 01 00 00 00	 mov	 eax, 1

; 4684 : 	}
; 4685 : 
; 4686 : 	if ( (index < ITEMGET(12,3) || index > ITEMGET(12,6) ) &&
; 4687 : 		  index != ITEMGET(0,19) &&
; 4688 : 		  index != ITEMGET(4,18) &&
; 4689 : 		  index != ITEMGET(5,10) &&
; 4690 : 		  index != ITEMGET(2,13) &&
; 4691 : 		  index != ITEMGET(13,30) && 
; 4692 : 		  index != ITEMGET(12,36) &&
; 4693 : 		  index != ITEMGET(12,37) && 
; 4694 : 		  index != ITEMGET(12,38) && 
; 4695 : 		  index != ITEMGET(12,39) && 
; 4696 : 		  index != ITEMGET(12,40) && 
; 4697 : 		  index != ITEMGET(12,41) &&
; 4698 : 		  index != ITEMGET(12,42) && 

  000c4	eb 79		 jmp	 SHORT $LN45@ItemGetDur
$LN22@ItemGetDur:
  000c6	81 f9 03 18 00
	00		 cmp	 ecx, 6147		; 00001803H
  000cc	7c 0c		 jl	 SHORT $LN24@ItemGetDur
  000ce	81 f9 06 18 00
	00		 cmp	 ecx, 6150		; 00001806H
  000d4	0f 8e 83 00 00
	00		 jle	 $LN27@ItemGetDur
$LN24@ItemGetDur:
  000da	83 f9 13	 cmp	 ecx, 19			; 00000013H
  000dd	74 7e		 je	 SHORT $LN27@ItemGetDur
  000df	81 f9 12 08 00
	00		 cmp	 ecx, 2066		; 00000812H
  000e5	74 76		 je	 SHORT $LN27@ItemGetDur
  000e7	81 f9 0a 0a 00
	00		 cmp	 ecx, 2570		; 00000a0aH
  000ed	74 6e		 je	 SHORT $LN27@ItemGetDur
  000ef	81 f9 0d 04 00
	00		 cmp	 ecx, 1037		; 0000040dH
  000f5	74 66		 je	 SHORT $LN27@ItemGetDur
  000f7	81 f9 1e 1a 00
	00		 cmp	 ecx, 6686		; 00001a1eH
  000fd	74 5e		 je	 SHORT $LN27@ItemGetDur
  000ff	81 f9 24 18 00
	00		 cmp	 ecx, 6180		; 00001824H
  00105	74 56		 je	 SHORT $LN27@ItemGetDur
  00107	81 f9 25 18 00
	00		 cmp	 ecx, 6181		; 00001825H
  0010d	74 4e		 je	 SHORT $LN27@ItemGetDur
  0010f	81 f9 26 18 00
	00		 cmp	 ecx, 6182		; 00001826H
  00115	74 46		 je	 SHORT $LN27@ItemGetDur
  00117	81 f9 27 18 00
	00		 cmp	 ecx, 6183		; 00001827H
  0011d	74 3e		 je	 SHORT $LN27@ItemGetDur
  0011f	81 f9 28 18 00
	00		 cmp	 ecx, 6184		; 00001828H
  00125	74 36		 je	 SHORT $LN27@ItemGetDur
  00127	81 f9 29 18 00
	00		 cmp	 ecx, 6185		; 00001829H
  0012d	74 2e		 je	 SHORT $LN27@ItemGetDur
  0012f	81 f9 2a 18 00
	00		 cmp	 ecx, 6186		; 0000182aH
  00135	74 26		 je	 SHORT $LN27@ItemGetDur
  00137	81 f9 2b 18 00
	00		 cmp	 ecx, 6187		; 0000182bH
  0013d	74 1e		 je	 SHORT $LN27@ItemGetDur
$LN45@ItemGetDur:

; 4699 : 		  index != ITEMGET(12,43) )
; 4700 : 	{
; 4701 : 		if ( SetItem != 0 )

  0013f	83 7d 14 00	 cmp	 DWORD PTR _SetItem$[ebp], 0
  00143	74 0f		 je	 SHORT $LN25@ItemGetDur

; 4702 : 			dur +=20;

  00145	83 c0 14	 add	 eax, 20			; 00000014H

; 4705 : 	}
; 4706 : 
; 4707 : 	if ( dur > 255 )

  00148	b9 ff 00 00 00	 mov	 ecx, 255		; 000000ffH
  0014d	3b c1		 cmp	 eax, ecx
  0014f	0f 4f c1	 cmovg	 eax, ecx

; 4708 : 		dur = 255;
; 4709 : 
; 4710 : 	return dur;
; 4711 : }

  00152	5d		 pop	 ebp
  00153	c3		 ret	 0
$LN25@ItemGetDur:

; 4703 : 		else if ( ExcellentItem != 0 ) // Prevent duple if items

  00154	83 7d 10 00	 cmp	 DWORD PTR _ExcellentItem$[ebp], 0
  00158	74 03		 je	 SHORT $LN27@ItemGetDur

; 4704 : 			dur +=15;

  0015a	83 c0 0f	 add	 eax, 15			; 0000000fH
$LN27@ItemGetDur:

; 4705 : 	}
; 4706 : 
; 4707 : 	if ( dur > 255 )

  0015d	b9 ff 00 00 00	 mov	 ecx, 255		; 000000ffH
  00162	3b c1		 cmp	 eax, ecx
  00164	0f 4f c1	 cmovg	 eax, ecx

; 4708 : 		dur = 255;
; 4709 : 
; 4710 : 	return dur;
; 4711 : }

  00167	5d		 pop	 ebp
  00168	c3		 ret	 0
$LN6@ItemGetDur:

; 4641 : 		return 5;

  00169	b8 05 00 00 00	 mov	 eax, 5

; 4708 : 		dur = 255;
; 4709 : 
; 4710 : 	return dur;
; 4711 : }

  0016e	5d		 pop	 ebp
  0016f	c3		 ret	 0
?ItemGetDurability@@YAHHHHH@Z ENDP			; ItemGetDurability
_TEXT	ENDS
; Function compile flags: /Ogtp
; File c:\users\michel\desktop\source\gameserver\common\zzzitem.cpp
;	COMDAT ?HasItemDurability@@YAHH@Z
_TEXT	SEGMENT
_index$ = 8						; size = 4
?HasItemDurability@@YAHH@Z PROC				; HasItemDurability, COMDAT

; 4619 : {

  00000	55		 push	 ebp
  00001	8b ec		 mov	 ebp, esp

; 4620 : 	if ( ItemAttribute[index].Durability == 0 && ItemAttribute[index].MagicDurability == 0)

  00003	6b 45 08 70	 imul	 eax, DWORD PTR _index$[ebp], 112
  00007	80 b8 30 00 00
	00 00		 cmp	 BYTE PTR ?ItemAttribute@@3PAUITEM_ATTRIBUTE@@A[eax+48], 0
  0000e	75 0d		 jne	 SHORT $LN2@HasItemDur
  00010	80 b8 31 00 00
	00 00		 cmp	 BYTE PTR ?ItemAttribute@@3PAUITEM_ATTRIBUTE@@A[eax+49], 0
  00017	75 04		 jne	 SHORT $LN2@HasItemDur

; 4621 : 	{
; 4622 : 		return FALSE; 

  00019	33 c0		 xor	 eax, eax

; 4626 : }

  0001b	5d		 pop	 ebp
  0001c	c3		 ret	 0
$LN2@HasItemDur:

; 4623 : 	}
; 4624 : 	
; 4625 : 	return TRUE;

  0001d	b8 01 00 00 00	 mov	 eax, 1

; 4626 : }

  00022	5d		 pop	 ebp
  00023	c3		 ret	 0
?HasItemDurability@@YAHH@Z ENDP				; HasItemDurability
_TEXT	ENDS
; Function compile flags: /Ogtp
; File c:\users\michel\desktop\source\gameserver\common\zzzitem.cpp
;	COMDAT ?ItemGetSize@@YAXHAAH0@Z
_TEXT	SEGMENT
_index$ = 8						; size = 4
_width$ = 12						; size = 4
_height$ = 16						; size = 4
?ItemGetSize@@YAXHAAH0@Z PROC				; ItemGetSize, COMDAT

; 4612 : {

  00000	55		 push	 ebp
  00001	8b ec		 mov	 ebp, esp

; 4613 : 	width = ItemAttribute[index].Width;

  00003	6b 55 08 70	 imul	 edx, DWORD PTR _index$[ebp], 112
  00007	8b 45 0c	 mov	 eax, DWORD PTR _width$[ebp]
  0000a	0f b6 8a 23 00
	00 00		 movzx	 ecx, BYTE PTR ?ItemAttribute@@3PAUITEM_ATTRIBUTE@@A[edx+35]
  00011	89 08		 mov	 DWORD PTR [eax], ecx

; 4614 : 	height = ItemAttribute[index].Height;

  00013	8b 45 10	 mov	 eax, DWORD PTR _height$[ebp]
  00016	0f b6 8a 24 00
	00 00		 movzx	 ecx, BYTE PTR ?ItemAttribute@@3PAUITEM_ATTRIBUTE@@A[edx+36]
  0001d	89 08		 mov	 DWORD PTR [eax], ecx

; 4615 : }

  0001f	5d		 pop	 ebp
  00020	c3		 ret	 0
?ItemGetSize@@YAXHAAH0@Z ENDP				; ItemGetSize
_TEXT	ENDS
; Function compile flags: /Ogtp
; File c:\users\michel\desktop\source\gameserver\common\zzzitem.cpp
;	COMDAT ?ItemGetNumberMake@@YAHHH@Z
_TEXT	SEGMENT
_type$ = 8						; size = 4
_index$ = 12						; size = 4
?ItemGetNumberMake@@YAHHH@Z PROC			; ItemGetNumberMake, COMDAT

; 4599 : {

  00000	55		 push	 ebp
  00001	8b ec		 mov	 ebp, esp

; 4600 : 	int make;
; 4601 : 
; 4602 : 	make = type*MAX_SUBTYPE_ITEMS + index;

  00003	8b 45 08	 mov	 eax, DWORD PTR _type$[ebp]
  00006	c1 e0 09	 shl	 eax, 9
  00009	03 45 0c	 add	 eax, DWORD PTR _index$[ebp]

; 4603 : 
; 4604 : 	if (ItemAttribute[make].Width < 1 ||  ItemAttribute[make].Height < 1)

  0000c	6b c8 70	 imul	 ecx, eax, 112
  0000f	80 b9 23 00 00
	00 01		 cmp	 BYTE PTR ?ItemAttribute@@3PAUITEM_ATTRIBUTE@@A[ecx+35], 1
  00016	72 09		 jb	 SHORT $LN3@ItemGetNum
  00018	80 b9 24 00 00
	00 01		 cmp	 BYTE PTR ?ItemAttribute@@3PAUITEM_ATTRIBUTE@@A[ecx+36], 1
  0001f	73 03		 jae	 SHORT $LN1@ItemGetNum
$LN3@ItemGetNum:

; 4605 : 	{
; 4606 : 		return -1;

  00021	83 c8 ff	 or	 eax, -1
$LN1@ItemGetNum:

; 4607 : 	}
; 4608 : 	return make;
; 4609 : }

  00024	5d		 pop	 ebp
  00025	c3		 ret	 0
?ItemGetNumberMake@@YAHHH@Z ENDP			; ItemGetNumberMake
_TEXT	ENDS
; Function compile flags: /Ogtp
; File c:\users\michel\desktop\source\gameserver\common\zzzitem.cpp
;	COMDAT ?ItemByteConvert@@YAXPAEHEEEEEEEEE0E@Z
_TEXT	SEGMENT
_buf$ = 8						; size = 4
_type$ = 12						; size = 4
_Option1$ = 16						; size = 1
_Option2$ = 20						; size = 1
_Option3$ = 24						; size = 1
_level$ = 28						; size = 1
_dur$ = 32						; size = 1
_Noption$ = 36						; size = 1
_SetOption$ = 40					; size = 1
_JewelOfHarmonyOption$ = 44				; size = 1
_ItemEffectEx$ = 48					; size = 1
_SocketOption$ = 52					; size = 4
_SocketBonus$ = 56					; size = 1
?ItemByteConvert@@YAXPAEHEEEEEEEEE0E@Z PROC		; ItemByteConvert, COMDAT

; 4364 : {

  00000	55		 push	 ebp
  00001	8b ec		 mov	 ebp, esp

; 4365 : 	memset(buf, 0, 12);
; 4366 : 	int n = 0;
; 4367 : 
; 4368 : 	buf[n] = type & 0xFF;
; 4369 : 	n++;
; 4370 : 	buf[n] = 0;
; 4371 : 	buf[n] |= level * 8;
; 4372 : 	buf[n] |= Option1 * 128;
; 4373 : 	buf[n] |= Option2 * 4;

  00003	8a 45 14	 mov	 al, BYTE PTR _Option2$[ebp]
  00006	0f 57 c0	 xorps	 xmm0, xmm0
  00009	8a 4d 10	 mov	 cl, BYTE PTR _Option1$[ebp]
  0000c	c0 e0 02	 shl	 al, 2
  0000f	c0 e1 07	 shl	 cl, 7

; 4374 : 	buf[n] |= Option3 & 3;

  00012	0a c8		 or	 cl, al
  00014	8a 45 18	 mov	 al, BYTE PTR _Option3$[ebp]
  00017	24 03		 and	 al, 3
  00019	0a c8		 or	 cl, al
  0001b	8a 45 1c	 mov	 al, BYTE PTR _level$[ebp]
  0001e	53		 push	 ebx
  0001f	8b 5d 0c	 mov	 ebx, DWORD PTR _type$[ebp]
  00022	56		 push	 esi
  00023	8b 75 08	 mov	 esi, DWORD PTR _buf$[ebp]
  00026	c0 e0 03	 shl	 al, 3
  00029	0a c8		 or	 cl, al

; 4375 : 	n++;
; 4376 : 	buf[n] = dur;

  0002b	8a 45 20	 mov	 al, BYTE PTR _dur$[ebp]
  0002e	66 0f d6 06	 movq	 QWORD PTR [esi], xmm0
  00032	c7 46 08 00 00
	00 00		 mov	 DWORD PTR [esi+8], 0
  00039	88 1e		 mov	 BYTE PTR [esi], bl
  0003b	88 4e 01	 mov	 BYTE PTR [esi+1], cl
  0003e	88 46 02	 mov	 BYTE PTR [esi+2], al

; 4377 : 	n++;
; 4378 : 	buf[n] = 0;
; 4379 : 	buf[n] |= ((type& 0x100) >> 1);

  00041	8b c3		 mov	 eax, ebx
  00043	d1 f8		 sar	 eax, 1
  00045	24 80		 and	 al, 128			; 00000080H

; 4380 : 
; 4381 : 	if ( Option3 > 3 )

  00047	80 7d 18 03	 cmp	 BYTE PTR _Option3$[ebp], 3
  0004b	88 46 03	 mov	 BYTE PTR [esi+3], al
  0004e	76 05		 jbe	 SHORT $LN2@ItemByteCo

; 4382 : 	{
; 4383 : 		buf[n] |= 0x40;

  00050	0c 40		 or	 al, 64			; 00000040H
  00052	88 46 03	 mov	 BYTE PTR [esi+3], al
$LN2@ItemByteCo:

; 4384 : 	}
; 4385 : 
; 4386 : 	buf[n] |= Noption;

  00055	8a 45 24	 mov	 al, BYTE PTR _Noption$[ebp]
  00058	08 46 03	 or	 BYTE PTR [esi+3], al

; 4387 : 	n++;
; 4388 : 	buf[n] = SetOption;

  0005b	8a 45 28	 mov	 al, BYTE PTR _SetOption$[ebp]

; 4389 : 	n++;
; 4390 : 	buf[n] |= (type & 0x1E00 ) >> 5;
; 4391 : 
; 4392 : 	BYTE btItemEffectFor380 = 0;
; 4393 : 	btItemEffectFor380 = (ItemEffectEx  & 0x80 ) >> 4;
; 4394 : 	buf[n] |= btItemEffectFor380;
; 4395 : 
; 4396 : 	n++;
; 4397 : 	buf[n] = JewelOfHarmonyOption;
; 4398 : 	
; 4399 : 	if( SocketOption != NULL )

  0005e	8b 4d 34	 mov	 ecx, DWORD PTR _SocketOption$[ebp]
  00061	88 46 04	 mov	 BYTE PTR [esi+4], al
  00064	8a 45 30	 mov	 al, BYTE PTR _ItemEffectEx$[ebp]
  00067	c1 fb 05	 sar	 ebx, 5
  0006a	c0 e8 04	 shr	 al, 4
  0006d	80 e3 f0	 and	 bl, 240			; 000000f0H
  00070	24 08		 and	 al, 8
  00072	0a d8		 or	 bl, al
  00074	8a 45 2c	 mov	 al, BYTE PTR _JewelOfHarmonyOption$[ebp]
  00077	08 5e 05	 or	 BYTE PTR [esi+5], bl
  0007a	88 46 06	 mov	 BYTE PTR [esi+6], al
  0007d	85 c9		 test	 ecx, ecx
  0007f	74 2c		 je	 SHORT $LN3@ItemByteCo

; 4400 : 	{
; 4401 : 		buf[n] = SocketBonus;

  00081	8a 45 38	 mov	 al, BYTE PTR _SocketBonus$[ebp]
  00084	88 46 06	 mov	 BYTE PTR [esi+6], al

; 4402 : 		n++;
; 4403 : 		buf[n] = SocketOption[0];

  00087	0f b6 01	 movzx	 eax, BYTE PTR [ecx]
  0008a	88 46 07	 mov	 BYTE PTR [esi+7], al

; 4404 : 		n++;
; 4405 : 		buf[n] = SocketOption[1];

  0008d	0f b6 41 01	 movzx	 eax, BYTE PTR [ecx+1]
  00091	88 46 08	 mov	 BYTE PTR [esi+8], al

; 4406 : 		n++;
; 4407 : 		buf[n] = SocketOption[2];

  00094	0f b6 41 02	 movzx	 eax, BYTE PTR [ecx+2]
  00098	88 46 09	 mov	 BYTE PTR [esi+9], al

; 4408 : 		n++;
; 4409 : 		buf[n] = SocketOption[3];

  0009b	0f b6 41 03	 movzx	 eax, BYTE PTR [ecx+3]
  0009f	88 46 0a	 mov	 BYTE PTR [esi+10], al

; 4410 : 		n++;
; 4411 : 		buf[n] = SocketOption[4];

  000a2	0f b6 41 04	 movzx	 eax, BYTE PTR [ecx+4]
  000a6	88 46 0b	 mov	 BYTE PTR [esi+11], al
  000a9	5e		 pop	 esi
  000aa	5b		 pop	 ebx

; 4425 : 	}
; 4426 : }

  000ab	5d		 pop	 ebp
  000ac	c3		 ret	 0
$LN3@ItemByteCo:

; 4412 : 	}
; 4413 : 	else
; 4414 : 	{
; 4415 : 		n++;
; 4416 : 		buf[n] = 0xFF;

  000ad	c7 46 07 ff ff
	ff ff		 mov	 DWORD PTR [esi+7], -1

; 4417 : 		n++;
; 4418 : 		buf[n] = 0xFF;
; 4419 : 		n++;
; 4420 : 		buf[n] = 0xFF;
; 4421 : 		n++;
; 4422 : 		buf[n] = 0xFF;
; 4423 : 		n++;
; 4424 : 		buf[n] = 0xFF;

  000b4	c6 46 0b ff	 mov	 BYTE PTR [esi+11], 255	; 000000ffH
  000b8	5e		 pop	 esi
  000b9	5b		 pop	 ebx

; 4425 : 	}
; 4426 : }

  000ba	5d		 pop	 ebp
  000bb	c3		 ret	 0
?ItemByteConvert@@YAXPAEHEEEEEEEEE0E@Z ENDP		; ItemByteConvert
_TEXT	ENDS
; Function compile flags: /Ogtp
; File c:\users\michel\desktop\source\gameserver\common\zzzitem.cpp
;	COMDAT ?ItemByteConvert@@YAXPAEVCItem@@@Z
_TEXT	SEGMENT
_buf$ = 8						; size = 4
_item$ = 12						; size = 212
?ItemByteConvert@@YAXPAEVCItem@@@Z PROC			; ItemByteConvert, COMDAT

; 4285 : {

  00000	55		 push	 ebp
  00001	8b ec		 mov	 ebp, esp

; 4286 : 	int n=0;
; 4287 : 
; 4288 : 	memset(buf, 0, 12);
; 4289 : 	buf[n] = item.m_Type & 0xFF;
; 4290 : 	n++;
; 4291 : 	buf[n] = 0;
; 4292 : 	buf[n] |= item.m_Level * 8;
; 4293 : 	buf[n] |= item.m_Option1 * 128;

  00003	8a 85 9c 00 00
	00		 mov	 al, BYTE PTR _item$[ebp+144]
  00009	0f 57 c0	 xorps	 xmm0, xmm0
  0000c	8a 4d 14	 mov	 cl, BYTE PTR _item$[ebp+8]
  0000f	c0 e0 07	 shl	 al, 7
  00012	c0 e1 03	 shl	 cl, 3

; 4294 : 	buf[n] |= item.m_Option2 * 4;
; 4295 : 	buf[n] |= item.m_Option3 & 3;

  00015	0a c8		 or	 cl, al
  00017	8a 85 9e 00 00
	00		 mov	 al, BYTE PTR _item$[ebp+146]
  0001d	24 03		 and	 al, 3
  0001f	0a c8		 or	 cl, al
  00021	8a 85 9d 00 00
	00		 mov	 al, BYTE PTR _item$[ebp+145]
  00027	c0 e0 02	 shl	 al, 2
  0002a	0a c8		 or	 cl, al

; 4296 : 	n++;
; 4297 : 	buf[n] = item.m_Durability;

  0002c	f3 0f 2c 45 30	 cvttss2si eax, DWORD PTR _item$[ebp+36]
  00031	53		 push	 ebx
  00032	8b 5d 10	 mov	 ebx, DWORD PTR _item$[ebp+4]
  00035	56		 push	 esi
  00036	8b 75 08	 mov	 esi, DWORD PTR _buf$[ebp]
  00039	c1 eb 10	 shr	 ebx, 16			; 00000010H
  0003c	66 0f d6 06	 movq	 QWORD PTR [esi], xmm0
  00040	c7 46 08 00 00
	00 00		 mov	 DWORD PTR [esi+8], 0
  00047	88 1e		 mov	 BYTE PTR [esi], bl
  00049	88 4e 01	 mov	 BYTE PTR [esi+1], cl
  0004c	88 46 02	 mov	 BYTE PTR [esi+2], al

; 4298 : 	n++;
; 4299 : 	buf[n] = 0;
; 4300 : 	buf[n] |= ((item.m_Type & 0x100) >> 1);

  0004f	8b c3		 mov	 eax, ebx
  00051	d1 f8		 sar	 eax, 1
  00053	24 80		 and	 al, 128			; 00000080H

; 4301 : 
; 4302 : 	if ( item.m_Option3 > 3 )

  00055	80 bd 9e 00 00
	00 03		 cmp	 BYTE PTR _item$[ebp+146], 3
  0005c	88 46 03	 mov	 BYTE PTR [esi+3], al
  0005f	76 05		 jbe	 SHORT $LN2@ItemByteCo

; 4303 : 	{
; 4304 : 		buf[n] |= 0x40; // item +16 option

  00061	0c 40		 or	 al, 64			; 00000040H
  00063	88 46 03	 mov	 BYTE PTR [esi+3], al
$LN2@ItemByteCo:

; 4305 : 	}
; 4306 : 
; 4307 : 	buf[n] |= item.m_NewOption;

  00066	8a 85 9f 00 00
	00		 mov	 al, BYTE PTR _item$[ebp+147]
  0006c	08 46 03	 or	 BYTE PTR [esi+3], al

; 4308 : 	n++;
; 4309 : 	buf[n] = item.m_SetOption;
; 4310 : 
; 4311 : 
; 4312 : 	if( item.m_bLOCKED == TRUE )

  0006f	80 bd dd 00 00
	00 01		 cmp	 BYTE PTR _item$[ebp+209], 1
  00076	8a 85 b6 00 00
	00		 mov	 al, BYTE PTR _item$[ebp+170]
  0007c	88 46 04	 mov	 BYTE PTR [esi+4], al
  0007f	75 05		 jne	 SHORT $LN3@ItemByteCo

; 4313 : 	{
; 4314 : 		buf[n] |= 0xC0;

  00081	0c c0		 or	 al, 192			; 000000c0H
  00083	88 46 04	 mov	 BYTE PTR [esi+4], al
$LN3@ItemByteCo:

; 4315 : 	}
; 4316 : 
; 4317 : 
; 4318 : 	n++;
; 4319 : 	buf[n] |= (item.m_Type & 0x1E00 ) >> 5;
; 4320 : 
; 4321 : 	BYTE btItemEffectFor380 = 0;
; 4322 : 	btItemEffectFor380 = (item.m_ItemOptionEx & 0x80 ) >> 4;
; 4323 : 	buf[n] |= btItemEffectFor380;

  00086	8a 85 d2 00 00
	00		 mov	 al, BYTE PTR _item$[ebp+198]
  0008c	c1 fb 05	 sar	 ebx, 5
  0008f	c0 e8 04	 shr	 al, 4
  00092	80 e3 f0	 and	 bl, 240			; 000000f0H
  00095	24 08		 and	 al, 8
  00097	0a d8		 or	 bl, al
  00099	08 5e 05	 or	 BYTE PTR [esi+5], bl

; 4324 : 
; 4325 : 	if( item.m_bPeriodItem == 1)

  0009c	80 bd db 00 00
	00 01		 cmp	 BYTE PTR _item$[ebp+207], 1
  000a3	8a 4e 05	 mov	 cl, BYTE PTR [esi+5]
  000a6	75 10		 jne	 SHORT $LN4@ItemByteCo

; 4326 : 	{
; 4327 : 		buf[n] |= item.m_bPeriodItem << 1;
; 4328 : 		buf[n] |= item.m_bExpired << 2;

  000a8	8a 85 dc 00 00
	00		 mov	 al, BYTE PTR _item$[ebp+208]
  000ae	c0 e0 02	 shl	 al, 2
  000b1	0a c1		 or	 al, cl
  000b3	0c 02		 or	 al, 2
  000b5	88 46 05	 mov	 BYTE PTR [esi+5], al
$LN4@ItemByteCo:

; 4329 : 	}
; 4330 : 
; 4331 : 	n++;
; 4332 : 	buf[n] = item.m_JewelOfHarmonyOption;

  000b8	8a 85 cc 00 00
	00		 mov	 al, BYTE PTR _item$[ebp+192]

; 4333 : 
; 4334 : 	if (g_SocketItem.IsSocketItem(&item) || g_ElementalSystem.IsElementalItem(&item)) {

  000be	b9 00 00 00 00	 mov	 ecx, OFFSET ?g_SocketItem@@3VCSocketItems@@A ; g_SocketItem
  000c3	88 46 06	 mov	 BYTE PTR [esi+6], al
  000c6	8d 45 0c	 lea	 eax, DWORD PTR _item$[ebp]
  000c9	50		 push	 eax
  000ca	e8 00 00 00 00	 call	 ?IsSocketItem@CSocketItems@@QAE_NPAVCItem@@@Z ; CSocketItems::IsSocketItem
  000cf	84 c0		 test	 al, al
  000d1	75 12		 jne	 SHORT $LN6@ItemByteCo
  000d3	8d 45 0c	 lea	 eax, DWORD PTR _item$[ebp]
  000d6	b9 00 00 00 00	 mov	 ecx, OFFSET ?g_ElementalSystem@@3VCElementalSystem@@A ; g_ElementalSystem
  000db	50		 push	 eax
  000dc	e8 00 00 00 00	 call	 ?IsElementalItem@CElementalSystem@@QAEHPAVCItem@@@Z ; CElementalSystem::IsElementalItem
  000e1	85 c0		 test	 eax, eax
  000e3	74 09		 je	 SHORT $LN5@ItemByteCo
$LN6@ItemByteCo:

; 4335 : 		buf[n] = item.m_SocketBonus;

  000e5	8a 85 d3 00 00
	00		 mov	 al, BYTE PTR _item$[ebp+199]
  000eb	88 46 06	 mov	 BYTE PTR [esi+6], al
$LN5@ItemByteCo:

; 4336 : 	}
; 4337 : 
; 4338 : #if (ENABLETEST_MUUN == 1)
; 4339 : 	if (g_CMuunSystem.IsMuunItem(&item)) {
; 4340 : 		buf[n] = item.m_SocketBonus;
; 4341 : 	}
; 4342 : 	if (g_CMuunSystem.IsStoneofEvolution(&item)) { // T_T
; 4343 : 		buf[n] = 0;
; 4344 : 	}
; 4345 : #endif
; 4346 : 
; 4347 : 	n++;
; 4348 : 	buf[n] = item.m_SocketOption[0];

  000ee	8a 85 d4 00 00
	00		 mov	 al, BYTE PTR _item$[ebp+200]
  000f4	88 46 07	 mov	 BYTE PTR [esi+7], al

; 4349 : 	n++;
; 4350 : 	buf[n] = item.m_SocketOption[1];

  000f7	8a 85 d5 00 00
	00		 mov	 al, BYTE PTR _item$[ebp+201]
  000fd	88 46 08	 mov	 BYTE PTR [esi+8], al

; 4351 : 	n++;
; 4352 : 	buf[n] = item.m_SocketOption[2];

  00100	8a 85 d6 00 00
	00		 mov	 al, BYTE PTR _item$[ebp+202]
  00106	88 46 09	 mov	 BYTE PTR [esi+9], al

; 4353 : 	n++;
; 4354 : 	buf[n] = item.m_SocketOption[3];

  00109	8a 85 d7 00 00
	00		 mov	 al, BYTE PTR _item$[ebp+203]
  0010f	88 46 0a	 mov	 BYTE PTR [esi+10], al

; 4355 : 	n++;
; 4356 : 	buf[n] = item.m_SocketOption[4];

  00112	8a 85 d8 00 00
	00		 mov	 al, BYTE PTR _item$[ebp+204]
  00118	88 46 0b	 mov	 BYTE PTR [esi+11], al
  0011b	5e		 pop	 esi
  0011c	5b		 pop	 ebx

; 4357 : }

  0011d	5d		 pop	 ebp
  0011e	c3		 ret	 0
?ItemByteConvert@@YAXPAEVCItem@@@Z ENDP			; ItemByteConvert
_TEXT	ENDS
; Function compile flags: /Ogtp
; File c:\users\michel\desktop\source\gameserver\common\zzzitem.cpp
;	COMDAT ?ItemByteConvert16@@YAXPAEQAVCItem@@H@Z
_TEXT	SEGMENT
_buf$ = 8						; size = 4
_item$ = 12						; size = 4
_maxitem$ = 16						; size = 4
?ItemByteConvert16@@YAXPAEQAVCItem@@H@Z PROC		; ItemByteConvert16, COMDAT

; 4431 : {

  00000	55		 push	 ebp
  00001	8b ec		 mov	 ebp, esp
  00003	56		 push	 esi

; 4432 : 	int n=0;

  00004	33 f6		 xor	 esi, esi

; 4433 : 	WORD hiWord, loWord;
; 4434 : 
; 4435 : 	for (int index=0; index < maxitem ;index++)

  00006	39 75 10	 cmp	 DWORD PTR _maxitem$[ebp], esi
  00009	0f 8e f3 01 00
	00		 jle	 $LN3@ItemByteCo

; 4432 : 	int n=0;

  0000f	53		 push	 ebx
  00010	8b 5d 0c	 mov	 ebx, DWORD PTR _item$[ebp]
  00013	b8 13 1a 00 00	 mov	 eax, 6675		; 00001a13H
  00018	57		 push	 edi
  00019	8b 7d 08	 mov	 edi, DWORD PTR _buf$[ebp]
  0001c	83 c3 06	 add	 ebx, 6
  0001f	90		 npad	 1
$LL4@ItemByteCo:

; 4436 : 	{
; 4437 : 		if ( item[index].m_Type == ITEMGET(13,19) )

  00020	0f b7 0b	 movzx	 ecx, WORD PTR [ebx]
  00023	66 3b c8	 cmp	 cx, ax
  00026	75 3a		 jne	 SHORT $LN6@ItemByteCo

; 4438 : 		{
; 4439 : 			if ( CHECK_LIMIT(item[index].m_Level, 3) != FALSE )

  00028	0f b7 53 02	 movzx	 edx, WORD PTR [ebx+2]
  0002c	66 85 d2	 test	 dx, dx
  0002f	78 31		 js	 SHORT $LN6@ItemByteCo
  00031	33 c0		 xor	 eax, eax
  00033	66 83 fa 02	 cmp	 dx, 2
  00037	0f 9e c0	 setle	 al
  0003a	85 c0		 test	 eax, eax
  0003c	74 24		 je	 SHORT $LN6@ItemByteCo
$LN24@ItemByteCo:

; 4440 : 			{
; 4441 : 				buf[n+0]=-1;

  0003e	c7 04 3e ff ff
	ff ff		 mov	 DWORD PTR [esi+edi], -1

; 4442 : 				buf[n+1]=-1;
; 4443 : 				buf[n+2]=-1;
; 4444 : 				buf[n+3]=-1;
; 4445 : 				buf[n+4]=-1;

  00045	c7 44 3e 04 ff
	ff ff ff	 mov	 DWORD PTR [esi+edi+4], -1

; 4446 : 				buf[n+5]=-1;
; 4447 : 				buf[n+6]=-1;
; 4448 : 				buf[n+7]=-1;
; 4449 : 				buf[n+8]=-1;

  0004d	c7 44 3e 08 ff
	ff ff ff	 mov	 DWORD PTR [esi+edi+8], -1

; 4450 : 				buf[n+9]=-1;
; 4451 : 				buf[n+10]=-1;
; 4452 : 				buf[n+11]=-1;
; 4453 : 				buf[n+12]=-1;

  00055	c7 44 3e 0c ff
	ff ff ff	 mov	 DWORD PTR [esi+edi+12], -1

; 4454 : 				buf[n+13]=-1;
; 4455 : 				buf[n+14]=-1;
; 4456 : 				buf[n+15]=-1;
; 4457 : 				n+=16;
; 4458 : 
; 4459 : 				continue;

  0005d	e9 86 01 00 00	 jmp	 $LN23@ItemByteCo
$LN6@ItemByteCo:

; 4460 : 			}
; 4461 : 		}
; 4462 : 
; 4463 : 		if ( item[index].m_Type == ITEMGET(14,64) )

  00062	b8 40 1c 00 00	 mov	 eax, 7232		; 00001c40H
  00067	66 3b c8	 cmp	 cx, ax
  0006a	74 d2		 je	 SHORT $LN24@ItemByteCo

; 4464 : 		{
; 4465 : 			buf[n+0]=-1;
; 4466 : 			buf[n+1]=-1;
; 4467 : 			buf[n+2]=-1;
; 4468 : 			buf[n+3]=-1;
; 4469 : 			buf[n+4]=-1;
; 4470 : 			buf[n+5]=-1;
; 4471 : 			buf[n+6]=-1;
; 4472 : 			buf[n+7]=-1;
; 4473 : 			buf[n+8]=-1;
; 4474 : 			buf[n+9]=-1;
; 4475 : 			buf[n+10]=-1;
; 4476 : 			buf[n+11]=-1;
; 4477 : 			buf[n+12]=-1;
; 4478 : 			buf[n+13]=-1;
; 4479 : 			buf[n+14]=-1;
; 4480 : 			buf[n+15]=-1;
; 4481 : 			n+=16;
; 4482 : 
; 4483 : 			continue;
; 4484 : 		}
; 4485 : 
; 4486 : 		if ( item[index].m_Type < ITEMGET(0,0) )

  0006c	66 85 c9	 test	 cx, cx
  0006f	78 cd		 js	 SHORT $LN24@ItemByteCo

; 4487 : 		{
; 4488 : 			buf[n+0]=-1;
; 4489 : 			buf[n+1]=-1;
; 4490 : 			buf[n+2]=-1;
; 4491 : 			buf[n+3]=-1;
; 4492 : 			buf[n+4]=-1;
; 4493 : 			buf[n+5]=-1;
; 4494 : 			buf[n+6]=-1;
; 4495 : 			buf[n+7]=-1;
; 4496 : 			buf[n+8]=-1;
; 4497 : 			buf[n+9]=-1;
; 4498 : 			buf[n+10]=-1;
; 4499 : 			buf[n+11]=-1;
; 4500 : 			buf[n+12]=-1;
; 4501 : 			buf[n+13]=-1;
; 4502 : 			buf[n+14]=-1;
; 4503 : 			buf[n+15]=-1;
; 4504 : 			n+=16;
; 4505 : 		}
; 4506 : 		else
; 4507 : 		{
; 4508 : 			memset(buf+n, 0, 16);

  00071	0f 57 c0	 xorps	 xmm0, xmm0
  00074	0f 11 04 3e	 movups	 XMMWORD PTR [esi+edi], xmm0

; 4509 : 
; 4510 : 			buf[n] = (BYTE)item[index].m_Type % 256;

  00078	0f b6 03	 movzx	 eax, BYTE PTR [ebx]
  0007b	25 ff 00 00 80	 and	 eax, -2147483393	; 800000ffH
  00080	79 07		 jns	 SHORT $LN22@ItemByteCo
  00082	48		 dec	 eax
  00083	0d 00 ff ff ff	 or	 eax, -256		; ffffff00H
  00088	40		 inc	 eax
$LN22@ItemByteCo:
  00089	88 04 3e	 mov	 BYTE PTR [esi+edi], al

; 4511 : 			n++;
; 4512 : 			buf[n]=0;

  0008c	c6 44 3e 01 00	 mov	 BYTE PTR [esi+edi+1], 0

; 4513 : 			buf[n] |= item[index].m_Level * 8;

  00091	8a 43 02	 mov	 al, BYTE PTR [ebx+2]
  00094	c0 e0 03	 shl	 al, 3
  00097	88 44 3e 01	 mov	 BYTE PTR [esi+edi+1], al

; 4514 : 			buf[n] |= item[index].m_Option1 * 128;

  0009b	8a 8b 8a 00 00
	00		 mov	 cl, BYTE PTR [ebx+138]
  000a1	c0 e1 07	 shl	 cl, 7
  000a4	0a c8		 or	 cl, al
  000a6	88 4c 3e 01	 mov	 BYTE PTR [esi+edi+1], cl

; 4515 : 			buf[n] |= item[index].m_Option2 * 4;

  000aa	8a 93 8b 00 00
	00		 mov	 dl, BYTE PTR [ebx+139]
  000b0	c0 e2 02	 shl	 dl, 2
  000b3	0a d1		 or	 dl, cl
  000b5	88 54 3e 01	 mov	 BYTE PTR [esi+edi+1], dl

; 4516 : 			buf[n] |= item[index].m_Option3 & 3;

  000b9	8a 83 8c 00 00
	00		 mov	 al, BYTE PTR [ebx+140]
  000bf	24 03		 and	 al, 3
  000c1	0a c2		 or	 al, dl
  000c3	88 44 3e 01	 mov	 BYTE PTR [esi+edi+1], al

; 4517 : 			n++;
; 4518 : 			buf[n] = item[index].m_Durability;

  000c7	f3 0f 2c 43 1e	 cvttss2si eax, DWORD PTR [ebx+30]
  000cc	88 44 3e 02	 mov	 BYTE PTR [esi+edi+2], al

; 4519 : 			n++;
; 4520 : 			hiWord = item[index].m_Number >> 16;

  000d0	0f b7 4b fc	 movzx	 ecx, WORD PTR [ebx-4]

; 4521 : 			loWord = item[index].m_Number  & 0xFFFF;

  000d4	0f b7 53 fa	 movzx	 edx, WORD PTR [ebx-6]

; 4522 : 			buf[n] = SET_NUMBERH(hiWord);

  000d8	8b c1		 mov	 eax, ecx
  000da	c1 e8 08	 shr	 eax, 8
  000dd	88 44 3e 03	 mov	 BYTE PTR [esi+edi+3], al

; 4523 : 			n++;
; 4524 : 			buf[n] = SET_NUMBERL(hiWord);
; 4525 : 			n++;
; 4526 : 			buf[n] = SET_NUMBERH(loWord);

  000e1	8b c2		 mov	 eax, edx
  000e3	88 4c 3e 04	 mov	 BYTE PTR [esi+edi+4], cl
  000e7	c1 e8 08	 shr	 eax, 8
  000ea	88 44 3e 05	 mov	 BYTE PTR [esi+edi+5], al

; 4527 : 			n++;
; 4528 : 			buf[n] = SET_NUMBERL(loWord);

  000ee	88 54 3e 06	 mov	 BYTE PTR [esi+edi+6], dl

; 4529 : 			n++;
; 4530 : 			buf[n] = 0;

  000f2	c6 44 3e 07 00	 mov	 BYTE PTR [esi+edi+7], 0

; 4531 : 			BYTE btItemType=0;
; 4532 : 			btItemType |= (item[index].m_Type & 0x1E00 ) >> 5;

  000f7	0f b7 03	 movzx	 eax, WORD PTR [ebx]
  000fa	8b c8		 mov	 ecx, eax

; 4533 : 			buf[n] |= ((item[index].m_Type & 0x100) >> 1);

  000fc	d1 f8		 sar	 eax, 1
  000fe	c1 f9 05	 sar	 ecx, 5
  00101	24 80		 and	 al, 128			; 00000080H
  00103	80 e1 f0	 and	 cl, 240			; 000000f0H
  00106	88 44 3e 07	 mov	 BYTE PTR [esi+edi+7], al

; 4534 : 
; 4535 : 			if ( item[index].m_Option3 > 3 )

  0010a	80 bb 8c 00 00
	00 03		 cmp	 BYTE PTR [ebx+140], 3
  00111	76 06		 jbe	 SHORT $LN10@ItemByteCo

; 4536 : 			{
; 4537 : 				buf[n] |= 0x40; // item +16 option

  00113	0c 40		 or	 al, 64			; 00000040H
  00115	88 44 3e 07	 mov	 BYTE PTR [esi+edi+7], al
$LN10@ItemByteCo:

; 4538 : 			}
; 4539 : 
; 4540 : 			buf[n] |= item[index].m_NewOption;

  00119	8a 83 8d 00 00
	00		 mov	 al, BYTE PTR [ebx+141]
  0011f	08 44 3e 07	 or	 BYTE PTR [esi+edi+7], al

; 4541 : 			n++;
; 4542 : 			buf[n] = item[index].m_SetOption;

  00123	8a 83 a4 00 00
	00		 mov	 al, BYTE PTR [ebx+164]
  00129	88 44 3e 08	 mov	 BYTE PTR [esi+edi+8], al

; 4543 : 
; 4544 : 
; 4545 : 			if( item[index].m_bLOCKED == TRUE )

  0012d	80 bb cb 00 00
	00 01		 cmp	 BYTE PTR [ebx+203], 1
  00134	75 06		 jne	 SHORT $LN11@ItemByteCo

; 4546 : 			{
; 4547 : 				buf[n] |= 0xC0;

  00136	0c c0		 or	 al, 192			; 000000c0H
  00138	88 44 3e 08	 mov	 BYTE PTR [esi+edi+8], al
$LN11@ItemByteCo:

; 4548 : 			}
; 4549 : 
; 4550 : 			n++;
; 4551 : 			buf[n] = 0;
; 4552 : 			buf[n] |= btItemType;

  0013c	88 4c 3e 09	 mov	 BYTE PTR [esi+edi+9], cl

; 4553 : 			BYTE btItemEffectFor380 = 0;
; 4554 : 			btItemEffectFor380 = (item[index].m_ItemOptionEx & 0x80 ) >> 4;
; 4555 : 			buf[n] |= btItemEffectFor380;

  00140	8a 83 c0 00 00
	00		 mov	 al, BYTE PTR [ebx+192]
  00146	c0 e8 04	 shr	 al, 4
  00149	24 08		 and	 al, 8
  0014b	0a c1		 or	 al, cl
  0014d	88 44 3e 09	 mov	 BYTE PTR [esi+edi+9], al

; 4556 : 
; 4557 : 			buf[n] |= item[index].m_bPeriodItem<<1;

  00151	8a 8b c9 00 00
	00		 mov	 cl, BYTE PTR [ebx+201]
  00157	02 c9		 add	 cl, cl
  00159	0a c8		 or	 cl, al
  0015b	88 4c 3e 09	 mov	 BYTE PTR [esi+edi+9], cl

; 4558 : 			buf[n] |= item[index].m_bExpired<<2;

  0015f	8a 83 ca 00 00
	00		 mov	 al, BYTE PTR [ebx+202]
  00165	c0 e0 02	 shl	 al, 2
  00168	0a c1		 or	 al, cl
  0016a	88 44 3e 09	 mov	 BYTE PTR [esi+edi+9], al

; 4559 : 
; 4560 : 			n++;
; 4561 : 
; 4562 : 			if( item[index].m_JewelOfHarmonyOption == (BYTE)-1 )

  0016e	80 bb ba 00 00
	00 ff		 cmp	 BYTE PTR [ebx+186], 255	; 000000ffH
  00175	75 07		 jne	 SHORT $LN12@ItemByteCo

; 4563 : 			{
; 4564 : 				item[index].m_JewelOfHarmonyOption = 0;

  00177	c6 83 ba 00 00
	00 00		 mov	 BYTE PTR [ebx+186], 0
$LN12@ItemByteCo:

; 4565 : 			}
; 4566 : 
; 4567 : 			buf[n] = item[index].m_JewelOfHarmonyOption;

  0017e	8a 83 ba 00 00
	00		 mov	 al, BYTE PTR [ebx+186]

; 4568 : 
; 4569 : 			if (g_SocketItem.IsSocketItem(&item[index]) || g_ElementalSystem.IsElementalItem(&item[index])) {

  00184	b9 00 00 00 00	 mov	 ecx, OFFSET ?g_SocketItem@@3VCSocketItems@@A ; g_SocketItem
  00189	88 44 3e 0a	 mov	 BYTE PTR [esi+edi+10], al
  0018d	8d 43 fa	 lea	 eax, DWORD PTR [ebx-6]
  00190	50		 push	 eax
  00191	e8 00 00 00 00	 call	 ?IsSocketItem@CSocketItems@@QAE_NPAVCItem@@@Z ; CSocketItems::IsSocketItem
  00196	84 c0		 test	 al, al
  00198	75 12		 jne	 SHORT $LN14@ItemByteCo
  0019a	8d 43 fa	 lea	 eax, DWORD PTR [ebx-6]
  0019d	b9 00 00 00 00	 mov	 ecx, OFFSET ?g_ElementalSystem@@3VCElementalSystem@@A ; g_ElementalSystem
  001a2	50		 push	 eax
  001a3	e8 00 00 00 00	 call	 ?IsElementalItem@CElementalSystem@@QAEHPAVCItem@@@Z ; CElementalSystem::IsElementalItem
  001a8	85 c0		 test	 eax, eax
  001aa	74 0a		 je	 SHORT $LN13@ItemByteCo
$LN14@ItemByteCo:

; 4570 : 				buf[n] = item[index].m_SocketBonus;

  001ac	8a 83 c1 00 00
	00		 mov	 al, BYTE PTR [ebx+193]
  001b2	88 44 3e 0a	 mov	 BYTE PTR [esi+edi+10], al
$LN13@ItemByteCo:

; 4571 : 			}
; 4572 : 
; 4573 : #if (ENABLETEST_MUUN == 1)
; 4574 : 			if (g_CMuunSystem.IsMuunItem(&item[index])) {
; 4575 : 				buf[n] = item[index].m_SocketBonus;
; 4576 : 			}
; 4577 : #endif
; 4578 : 
; 4579 : 			n++;
; 4580 : 			buf[n] = item[index].m_SocketOption[0];

  001b6	8a 83 c2 00 00
	00		 mov	 al, BYTE PTR [ebx+194]
  001bc	88 44 3e 0b	 mov	 BYTE PTR [esi+edi+11], al

; 4581 : 			n++;
; 4582 : 			buf[n] = item[index].m_SocketOption[1];

  001c0	8a 83 c3 00 00
	00		 mov	 al, BYTE PTR [ebx+195]
  001c6	88 44 3e 0c	 mov	 BYTE PTR [esi+edi+12], al

; 4583 : 			n++;
; 4584 : 			buf[n] = item[index].m_SocketOption[2];

  001ca	8a 83 c4 00 00
	00		 mov	 al, BYTE PTR [ebx+196]
  001d0	88 44 3e 0d	 mov	 BYTE PTR [esi+edi+13], al

; 4585 : 			n++;
; 4586 : 			buf[n] = item[index].m_SocketOption[3];

  001d4	8a 83 c5 00 00
	00		 mov	 al, BYTE PTR [ebx+197]
  001da	88 44 3e 0e	 mov	 BYTE PTR [esi+edi+14], al

; 4587 : 			n++;
; 4588 : 			buf[n] = item[index].m_SocketOption[4];

  001de	8a 83 c6 00 00
	00		 mov	 al, BYTE PTR [ebx+198]
  001e4	88 44 3e 0f	 mov	 BYTE PTR [esi+edi+15], al
$LN23@ItemByteCo:

; 4589 : 			n++;

  001e8	83 c6 10	 add	 esi, 16			; 00000010H
  001eb	81 c3 d4 00 00
	00		 add	 ebx, 212		; 000000d4H
  001f1	83 6d 10 01	 sub	 DWORD PTR _maxitem$[ebp], 1
  001f5	b8 13 1a 00 00	 mov	 eax, 6675		; 00001a13H
  001fa	0f 85 20 fe ff
	ff		 jne	 $LL4@ItemByteCo
  00200	5f		 pop	 edi
  00201	5b		 pop	 ebx
$LN3@ItemByteCo:
  00202	5e		 pop	 esi

; 4590 : 		}
; 4591 : 	}
; 4592 : }

  00203	5d		 pop	 ebp
  00204	c3		 ret	 0
?ItemByteConvert16@@YAXPAEQAVCItem@@H@Z ENDP		; ItemByteConvert16
_TEXT	ENDS
; Function compile flags: /Ogtp
; File c:\users\michel\desktop\source\gameserver\common\zzzitem.cpp
;	COMDAT ?ItemByteConvert10@@YAXPAEQAVCItem@@H@Z
_TEXT	SEGMENT
_buf$ = 8						; size = 4
_item$ = 12						; size = 4
_maxitem$ = 16						; size = 4
?ItemByteConvert10@@YAXPAEQAVCItem@@H@Z PROC		; ItemByteConvert10, COMDAT

; 4196 : {

  00000	55		 push	 ebp
  00001	8b ec		 mov	 ebp, esp
  00003	56		 push	 esi

; 4197 : 	int n = 0;

  00004	33 f6		 xor	 esi, esi

; 4198 : 	WORD hiWord;
; 4199 : 	WORD loWord;
; 4200 : 	int index;
; 4201 : 
; 4202 : 	for (index = 0; index < maxitem ; index++ )

  00006	39 75 10	 cmp	 DWORD PTR _maxitem$[ebp], esi
  00009	0f 8e 20 01 00
	00		 jle	 $LN3@ItemByteCo

; 4197 : 	int n = 0;

  0000f	53		 push	 ebx
  00010	8b 5d 0c	 mov	 ebx, DWORD PTR _item$[ebp]
  00013	b8 13 1a 00 00	 mov	 eax, 6675		; 00001a13H
  00018	57		 push	 edi
  00019	8b 7d 08	 mov	 edi, DWORD PTR _buf$[ebp]
  0001c	83 c3 08	 add	 ebx, 8
  0001f	90		 npad	 1
$LL4@ItemByteCo:

; 4203 : 	{
; 4204 : 		if ( item[index].m_Type == ITEMGET(13,19) )

  00020	0f b7 4b fe	 movzx	 ecx, WORD PTR [ebx-2]
  00024	66 3b c8	 cmp	 cx, ax
  00027	75 33		 jne	 SHORT $LN6@ItemByteCo

; 4205 : 		{
; 4206 : 			if ( (item[index].m_Level < 0)? FALSE : ( item[index].m_Level > 2)? FALSE : TRUE  )

  00029	0f b7 13	 movzx	 edx, WORD PTR [ebx]
  0002c	66 85 d2	 test	 dx, dx
  0002f	78 2b		 js	 SHORT $LN6@ItemByteCo
  00031	33 c0		 xor	 eax, eax
  00033	66 83 fa 02	 cmp	 dx, 2
  00037	0f 9e c0	 setle	 al
  0003a	85 c0		 test	 eax, eax
  0003c	74 1e		 je	 SHORT $LN6@ItemByteCo
$LN19@ItemByteCo:

; 4207 : 			{
; 4208 : 				buf[n] = -1;

  0003e	c7 04 3e ff ff
	ff ff		 mov	 DWORD PTR [esi+edi], -1

; 4209 : 				buf[n+1] = -1;
; 4210 : 				buf[n+2] = -1;
; 4211 : 				buf[n+3] = -1;
; 4212 : 				buf[n+4] = -1;

  00045	c7 44 3e 04 ff
	ff ff ff	 mov	 DWORD PTR [esi+edi+4], -1

; 4213 : 				buf[n+5] = -1;
; 4214 : 				buf[n+6] = -1;
; 4215 : 				buf[n+7] = -1;
; 4216 : 				buf[n+8] = -1;

  0004d	66 c7 44 3e 08
	ff ff		 mov	 WORD PTR [esi+edi+8], 65535 ; 0000ffffH

; 4217 : 				buf[n+9] = -1;
; 4218 : 				n += 16;

  00054	83 c6 10	 add	 esi, 16			; 00000010H

; 4219 : 				continue;

  00057	e9 bc 00 00 00	 jmp	 $LN2@ItemByteCo
$LN6@ItemByteCo:

; 4220 : 			}
; 4221 : 		}
; 4222 : 		
; 4223 : 		if ( item[index].m_Type <  0 )

  0005c	66 85 c9	 test	 cx, cx
  0005f	78 dd		 js	 SHORT $LN19@ItemByteCo

; 4224 : 		{
; 4225 : 			buf[n] = -1;
; 4226 : 			buf[n+1] = -1;
; 4227 : 			buf[n+2] = -1;
; 4228 : 			buf[n+3] = -1;
; 4229 : 			buf[n+4] = -1;
; 4230 : 			buf[n+5] = -1;
; 4231 : 			buf[n+6] = -1;
; 4232 : 			buf[n+7] = -1;
; 4233 : 			buf[n+8] = -1;
; 4234 : 			buf[n+9] = -1;
; 4235 : 			n += 16;
; 4236 : 		}
; 4237 : 		else
; 4238 : 		{
; 4239 : 			buf[n] = (BYTE)item[index].m_Type % 256 ;

  00061	0f b6 43 fe	 movzx	 eax, BYTE PTR [ebx-2]
  00065	25 ff 00 00 80	 and	 eax, -2147483393	; 800000ffH
  0006a	79 07		 jns	 SHORT $LN18@ItemByteCo
  0006c	48		 dec	 eax
  0006d	0d 00 ff ff ff	 or	 eax, -256		; ffffff00H
  00072	40		 inc	 eax
$LN18@ItemByteCo:
  00073	88 04 3e	 mov	 BYTE PTR [esi+edi], al

; 4240 : 			n++;
; 4241 : 			buf[n] = 0;

  00076	c6 44 3e 01 00	 mov	 BYTE PTR [esi+edi+1], 0

; 4242 : 			buf[n] |= item[index].m_Level * 8;

  0007b	8a 03		 mov	 al, BYTE PTR [ebx]
  0007d	c0 e0 03	 shl	 al, 3
  00080	88 44 3e 01	 mov	 BYTE PTR [esi+edi+1], al

; 4243 : 			buf[n] |= item[index].m_Option1 * 128;

  00084	8a 8b 88 00 00
	00		 mov	 cl, BYTE PTR [ebx+136]
  0008a	c0 e1 07	 shl	 cl, 7
  0008d	0a c8		 or	 cl, al
  0008f	88 4c 3e 01	 mov	 BYTE PTR [esi+edi+1], cl

; 4244 : 			buf[n] |= item[index].m_Option2 * 4;

  00093	8a 93 89 00 00
	00		 mov	 dl, BYTE PTR [ebx+137]
  00099	c0 e2 02	 shl	 dl, 2
  0009c	0a d1		 or	 dl, cl
  0009e	88 54 3e 01	 mov	 BYTE PTR [esi+edi+1], dl

; 4245 : 			buf[n] |= item[index].m_Option3 & 3;

  000a2	0f b6 83 8a 00
	00 00		 movzx	 eax, BYTE PTR [ebx+138]
  000a9	24 03		 and	 al, 3
  000ab	0a c2		 or	 al, dl
  000ad	88 44 3e 01	 mov	 BYTE PTR [esi+edi+1], al

; 4246 : 			n++;
; 4247 : 			buf[n] = item[index].m_Durability;

  000b1	f3 0f 2c 43 1c	 cvttss2si eax, DWORD PTR [ebx+28]
  000b6	88 44 3e 02	 mov	 BYTE PTR [esi+edi+2], al

; 4248 : 			n++;
; 4249 : 			hiWord = item[index].m_Number >> 16;

  000ba	0f b7 4b fa	 movzx	 ecx, WORD PTR [ebx-6]

; 4250 : 			loWord = item[index].m_Number  & 0xFFFF;

  000be	0f b7 53 f8	 movzx	 edx, WORD PTR [ebx-8]

; 4251 : 			buf[n] = SET_NUMBERH(hiWord);

  000c2	8b c1		 mov	 eax, ecx
  000c4	c1 e8 08	 shr	 eax, 8
  000c7	88 44 3e 03	 mov	 BYTE PTR [esi+edi+3], al

; 4252 : 			n++;
; 4253 : 			buf[n] = SET_NUMBERL(hiWord);
; 4254 : 			n++;
; 4255 : 			buf[n] = SET_NUMBERH(loWord);

  000cb	8b c2		 mov	 eax, edx
  000cd	88 4c 3e 04	 mov	 BYTE PTR [esi+edi+4], cl
  000d1	c1 e8 08	 shr	 eax, 8
  000d4	88 44 3e 05	 mov	 BYTE PTR [esi+edi+5], al

; 4256 : 			n++;
; 4257 : 			buf[n] = SET_NUMBERL(loWord);
; 4258 : 			n++;
; 4259 : 			buf[n] = 0;
; 4260 : 
; 4261 : 			if ( item[index].m_Type > 255 )

  000d8	b8 ff 00 00 00	 mov	 eax, 255		; 000000ffH
  000dd	88 54 3e 06	 mov	 BYTE PTR [esi+edi+6], dl
  000e1	c6 44 3e 07 00	 mov	 BYTE PTR [esi+edi+7], 0
  000e6	66 39 43 fe	 cmp	 WORD PTR [ebx-2], ax
  000ea	7e 05		 jle	 SHORT $LN9@ItemByteCo

; 4262 : 			{
; 4263 : 				buf[n] = 0x80;	// Second Type of Item

  000ec	c6 44 3e 07 80	 mov	 BYTE PTR [esi+edi+7], 128 ; 00000080H
$LN9@ItemByteCo:

; 4264 : 			}
; 4265 : 
; 4266 : 			if ( item[index].m_Option3 > 3 )

  000f1	80 bb 8a 00 00
	00 03		 cmp	 BYTE PTR [ebx+138], 3
  000f8	76 05		 jbe	 SHORT $LN10@ItemByteCo

; 4267 : 			{
; 4268 : 				buf[n] |= 0x40;	// Duration ???

  000fa	80 4c 3e 07 40	 or	 BYTE PTR [esi+edi+7], 64 ; 00000040H
$LN10@ItemByteCo:

; 4269 : 			}
; 4270 : 
; 4271 : 			buf[n] |= item[index].m_NewOption;

  000ff	0f b6 83 8b 00
	00 00		 movzx	 eax, BYTE PTR [ebx+139]
  00106	08 44 3e 07	 or	 BYTE PTR [esi+edi+7], al

; 4272 : 			n++;
; 4273 : 			buf[n] = item[index].m_SetOption;

  0010a	0f b6 83 a2 00
	00 00		 movzx	 eax, BYTE PTR [ebx+162]
  00111	88 44 3e 08	 mov	 BYTE PTR [esi+edi+8], al

; 4274 : 			n++;
; 4275 : 			n++;

  00115	83 c6 0a	 add	 esi, 10			; 0000000aH
$LN2@ItemByteCo:

; 4198 : 	WORD hiWord;
; 4199 : 	WORD loWord;
; 4200 : 	int index;
; 4201 : 
; 4202 : 	for (index = 0; index < maxitem ; index++ )

  00118	81 c3 d4 00 00
	00		 add	 ebx, 212		; 000000d4H
  0011e	b8 13 1a 00 00	 mov	 eax, 6675		; 00001a13H
  00123	83 6d 10 01	 sub	 DWORD PTR _maxitem$[ebp], 1
  00127	0f 85 f3 fe ff
	ff		 jne	 $LL4@ItemByteCo
  0012d	5f		 pop	 edi
  0012e	5b		 pop	 ebx
$LN3@ItemByteCo:
  0012f	5e		 pop	 esi

; 4276 : 		}
; 4277 : 	}
; 4278 : }

  00130	5d		 pop	 ebp
  00131	c3		 ret	 0
?ItemByteConvert10@@YAXPAEQAVCItem@@H@Z ENDP		; ItemByteConvert10
_TEXT	ENDS
; Function compile flags: /Ogtp
; File c:\users\michel\desktop\source\gameserver\common\zzzitem.cpp
;	COMDAT ?ItemByteConvert7@@YAXPAEQAVCItem@@H@Z
_TEXT	SEGMENT
_buf$ = 8						; size = 4
_item$ = 12						; size = 4
_maxitem$ = 16						; size = 4
?ItemByteConvert7@@YAXPAEQAVCItem@@H@Z PROC		; ItemByteConvert7, COMDAT

; 4162 : {

  00000	55		 push	 ebp
  00001	8b ec		 mov	 ebp, esp
  00003	53		 push	 ebx

; 4164 : 	WORD hiWord;
; 4165 : 	WORD loWord;
; 4166 : 
; 4167 : 	for ( int index = 0; index < maxitem ; index++ )

  00004	8b 5d 10	 mov	 ebx, DWORD PTR _maxitem$[ebp]
  00007	85 db		 test	 ebx, ebx
  00009	0f 8e 86 00 00
	00		 jle	 $LN3@ItemByteCo

; 4163 : 	int n = 0;

  0000f	56		 push	 esi
  00010	8b 75 08	 mov	 esi, DWORD PTR _buf$[ebp]
  00013	57		 push	 edi
  00014	8b 7d 0c	 mov	 edi, DWORD PTR _item$[ebp]
  00017	83 c7 08	 add	 edi, 8
  0001a	66 0f 1f 44 00
	00		 npad	 6
$LL4@ItemByteCo:

; 4168 : 	{
; 4169 : 		buf[n] = item[index].m_Type;

  00020	0f b6 47 fe	 movzx	 eax, BYTE PTR [edi-2]

; 4170 : 		n++;
; 4171 : 		buf[n] = 0;
; 4172 : 		buf[n] |= item[index].m_Level * 8;
; 4173 : 		buf[n] |= item[index].m_Option1 * 128;
; 4174 : 		buf[n] |= item[index].m_Option2 * 4;
; 4175 : 		buf[n] |= item[index].m_Option3;
; 4176 : 		n++;
; 4177 : 		buf[n] = item[index].m_Durability;
; 4178 : 		n++;
; 4179 : 		hiWord = item[index].m_Number >> 16;
; 4180 : 		loWord = item[index].m_Number & 0xFFFF;
; 4181 : 		buf[n] = SET_NUMBERH(hiWord);
; 4182 : 		n++;
; 4183 : 		buf[n] = SET_NUMBERL(hiWord);
; 4184 : 		n++;
; 4185 : 		buf[n] = SET_NUMBERH(loWord);
; 4186 : 		n++;
; 4187 : 		buf[n] = SET_NUMBERL(loWord);
; 4188 : 		n++;

  00024	8d 76 07	 lea	 esi, DWORD PTR [esi+7]
  00027	88 46 f9	 mov	 BYTE PTR [esi-7], al
  0002a	8d bf d4 00 00
	00		 lea	 edi, DWORD PTR [edi+212]
  00030	c6 46 fa 00	 mov	 BYTE PTR [esi-6], 0
  00034	8a 87 2c ff ff
	ff		 mov	 al, BYTE PTR [edi-212]
  0003a	c0 e0 03	 shl	 al, 3
  0003d	88 46 fa	 mov	 BYTE PTR [esi-6], al
  00040	8a 57 b4	 mov	 dl, BYTE PTR [edi-76]
  00043	c0 e2 07	 shl	 dl, 7
  00046	0a d0		 or	 dl, al
  00048	88 56 fa	 mov	 BYTE PTR [esi-6], dl
  0004b	8a 4f b5	 mov	 cl, BYTE PTR [edi-75]
  0004e	c0 e1 02	 shl	 cl, 2
  00051	0a ca		 or	 cl, dl
  00053	88 4e fa	 mov	 BYTE PTR [esi-6], cl
  00056	0f b6 47 b6	 movzx	 eax, BYTE PTR [edi-74]
  0005a	0a c1		 or	 al, cl
  0005c	88 46 fa	 mov	 BYTE PTR [esi-6], al
  0005f	f3 0f 2c 87 48
	ff ff ff	 cvttss2si eax, DWORD PTR [edi-184]
  00067	88 46 fb	 mov	 BYTE PTR [esi-5], al
  0006a	0f b7 8f 26 ff
	ff ff		 movzx	 ecx, WORD PTR [edi-218]
  00071	0f b7 97 24 ff
	ff ff		 movzx	 edx, WORD PTR [edi-220]
  00078	8b c1		 mov	 eax, ecx
  0007a	c1 e8 08	 shr	 eax, 8
  0007d	88 46 fc	 mov	 BYTE PTR [esi-4], al
  00080	8b c2		 mov	 eax, edx
  00082	88 4e fd	 mov	 BYTE PTR [esi-3], cl
  00085	c1 e8 08	 shr	 eax, 8
  00088	88 46 fe	 mov	 BYTE PTR [esi-2], al
  0008b	88 56 ff	 mov	 BYTE PTR [esi-1], dl
  0008e	83 eb 01	 sub	 ebx, 1
  00091	75 8d		 jne	 SHORT $LL4@ItemByteCo
  00093	5f		 pop	 edi
  00094	5e		 pop	 esi
$LN3@ItemByteCo:
  00095	5b		 pop	 ebx

; 4189 : 	}
; 4190 : }

  00096	5d		 pop	 ebp
  00097	c3		 ret	 0
?ItemByteConvert7@@YAXPAEQAVCItem@@H@Z ENDP		; ItemByteConvert7
_TEXT	ENDS
; Function compile flags: /Ogtp
; File c:\users\michel\desktop\source\gameserver\common\zzzitem.cpp
;	COMDAT ?BufferItemtoConvert3@@YAXPAEAAHAAE2222@Z
_TEXT	SEGMENT
_buf$ = 8						; size = 4
_type$ = 12						; size = 4
_level$ = 16						; size = 4
_op1$ = 20						; size = 4
_op2$ = 24						; size = 4
_op3$ = 28						; size = 4
_dur$ = 32						; size = 4
?BufferItemtoConvert3@@YAXPAEAAHAAE2222@Z PROC		; BufferItemtoConvert3, COMDAT

; 4147 : {

  00000	55		 push	 ebp
  00001	8b ec		 mov	 ebp, esp
  00003	56		 push	 esi

; 4148 : 	type = buf[0] + ((buf[3]&0x80)*2)+((buf[5]&0xF0)<<5);

  00004	8b 75 08	 mov	 esi, DWORD PTR _buf$[ebp]

; 4149 : 	level = (buf[1]>>3) & 15;
; 4150 : 	op1 = (buf[1]>>7) & 1;
; 4151 : 	op2 = (buf[1]>>2) & 1;
; 4152 : 	op3 = (buf[1] & 3 );

  00007	8b 55 1c	 mov	 edx, DWORD PTR _op3$[ebp]
  0000a	0f b6 4e 05	 movzx	 ecx, BYTE PTR [esi+5]
  0000e	0f b6 46 03	 movzx	 eax, BYTE PTR [esi+3]
  00012	81 e1 f0 00 00
	00		 and	 ecx, 240		; 000000f0H
  00018	25 80 00 00 00	 and	 eax, 128		; 00000080H
  0001d	c1 e1 04	 shl	 ecx, 4
  00020	03 c8		 add	 ecx, eax
  00022	0f b6 06	 movzx	 eax, BYTE PTR [esi]
  00025	8d 0c 48	 lea	 ecx, DWORD PTR [eax+ecx*2]
  00028	8b 45 0c	 mov	 eax, DWORD PTR _type$[ebp]
  0002b	89 08		 mov	 DWORD PTR [eax], ecx
  0002d	0f b6 4e 01	 movzx	 ecx, BYTE PTR [esi+1]
  00031	8b 45 10	 mov	 eax, DWORD PTR _level$[ebp]
  00034	c0 e9 03	 shr	 cl, 3
  00037	80 e1 0f	 and	 cl, 15			; 0000000fH
  0003a	88 08		 mov	 BYTE PTR [eax], cl
  0003c	0f b6 4e 01	 movzx	 ecx, BYTE PTR [esi+1]
  00040	8b 45 14	 mov	 eax, DWORD PTR _op1$[ebp]
  00043	c0 e9 07	 shr	 cl, 7
  00046	88 08		 mov	 BYTE PTR [eax], cl
  00048	0f b6 4e 01	 movzx	 ecx, BYTE PTR [esi+1]
  0004c	8b 45 18	 mov	 eax, DWORD PTR _op2$[ebp]
  0004f	c0 e9 02	 shr	 cl, 2
  00052	80 e1 01	 and	 cl, 1
  00055	88 08		 mov	 BYTE PTR [eax], cl
  00057	0f b6 46 01	 movzx	 eax, BYTE PTR [esi+1]
  0005b	24 03		 and	 al, 3
  0005d	88 02		 mov	 BYTE PTR [edx], al

; 4153 : 	dur = buf[2];

  0005f	8b 45 20	 mov	 eax, DWORD PTR _dur$[ebp]
  00062	0f b6 4e 02	 movzx	 ecx, BYTE PTR [esi+2]
  00066	88 08		 mov	 BYTE PTR [eax], cl

; 4154 : 
; 4155 : 	op3 |= (buf[3] & 0x40) >> 4;

  00068	0f b6 46 03	 movzx	 eax, BYTE PTR [esi+3]
  0006c	c0 e8 04	 shr	 al, 4
  0006f	24 04		 and	 al, 4
  00071	08 02		 or	 BYTE PTR [edx], al
  00073	5e		 pop	 esi

; 4156 : }

  00074	5d		 pop	 ebp
  00075	c3		 ret	 0
?BufferItemtoConvert3@@YAXPAEAAHAAE2222@Z ENDP		; BufferItemtoConvert3
_TEXT	ENDS
; Function compile flags: /Ogtp
; File c:\users\michel\desktop\source\gameserver\common\zzzitem.h
;	COMDAT ??0CPetItemExp@@QAE@XZ
_TEXT	SEGMENT
??0CPetItemExp@@QAE@XZ PROC				; CPetItemExp::CPetItemExp, COMDAT
; _this$ = ecx

; 315  : 	CPetItemExp()

  00000	56		 push	 esi
  00001	8b f1		 mov	 esi, ecx

; 316  : 	{
; 317  : 		this->m_DarkSpiritExpTable[0] = 0;
; 318  : 		this->m_DarkSpiritExpTable[1] = 0;
; 319  : 
; 320  : 		for ( int i = 2 ; i < MAX_PET_LEVEL+2 ; i++ )

  00003	b8 02 00 00 00	 mov	 eax, 2
  00008	c7 06 00 00 00
	00		 mov	 DWORD PTR [esi], 0
  0000e	c7 46 04 00 00
	00 00		 mov	 DWORD PTR [esi+4], 0

; 321  : 		{
; 322  : 			this->m_DarkSpiritExpTable[i] = (i+10) * i * i * i * 100;

  00015	39 05 00 00 00
	00		 cmp	 DWORD PTR ___isa_available, eax
  0001b	0f 8c 8f 00 00
	00		 jl	 $LL34@CPetItemEx
  00021	0f 28 15 00 00
	00 00		 movaps	 xmm2, XMMWORD PTR __xmm@00000003000000020000000100000000
  00028	8d 56 08	 lea	 edx, DWORD PTR [esi+8]
  0002b	0f 28 1d 00 00
	00 00		 movaps	 xmm3, XMMWORD PTR __xmm@00000064000000640000006400000064
  00032	0f 28 25 00 00
	00 00		 movaps	 xmm4, XMMWORD PTR __xmm@0000000a0000000a0000000a0000000a
  00039	0f 1f 80 00 00
	00 00		 npad	 7
$LL4@CPetItemEx:
  00040	66 0f 6e c0	 movd	 xmm0, eax
  00044	8d 48 04	 lea	 ecx, DWORD PTR [eax+4]
  00047	66 0f 70 c8 00	 pshufd	 xmm1, xmm0, 0

; 316  : 	{
; 317  : 		this->m_DarkSpiritExpTable[0] = 0;
; 318  : 		this->m_DarkSpiritExpTable[1] = 0;
; 319  : 
; 320  : 		for ( int i = 2 ; i < MAX_PET_LEVEL+2 ; i++ )

  0004c	8d 52 20	 lea	 edx, DWORD PTR [edx+32]
  0004f	66 0f fe ca	 paddd	 xmm1, xmm2

; 321  : 		{
; 322  : 			this->m_DarkSpiritExpTable[i] = (i+10) * i * i * i * 100;

  00053	0f 28 c4	 movaps	 xmm0, xmm4
  00056	66 0f fe c1	 paddd	 xmm0, xmm1
  0005a	83 c0 08	 add	 eax, 8
  0005d	66 0f 38 40 c1	 pmulld	 xmm0, xmm1
  00062	66 0f 38 40 c1	 pmulld	 xmm0, xmm1
  00067	66 0f 38 40 c1	 pmulld	 xmm0, xmm1
  0006c	66 0f 38 40 c3	 pmulld	 xmm0, xmm3
  00071	0f 11 42 e0	 movups	 XMMWORD PTR [edx-32], xmm0
  00075	66 0f 6e c1	 movd	 xmm0, ecx
  00079	66 0f 70 c8 00	 pshufd	 xmm1, xmm0, 0
  0007e	66 0f fe ca	 paddd	 xmm1, xmm2
  00082	0f 28 c1	 movaps	 xmm0, xmm1
  00085	66 0f fe c4	 paddd	 xmm0, xmm4
  00089	66 0f 38 40 c1	 pmulld	 xmm0, xmm1
  0008e	66 0f 38 40 c1	 pmulld	 xmm0, xmm1
  00093	66 0f 38 40 c1	 pmulld	 xmm0, xmm1
  00098	66 0f 38 40 c3	 pmulld	 xmm0, xmm3
  0009d	0f 11 42 f0	 movups	 XMMWORD PTR [edx-16], xmm0
  000a1	83 f8 32	 cmp	 eax, 50			; 00000032H
  000a4	7c 9a		 jl	 SHORT $LL4@CPetItemEx

; 316  : 	{
; 317  : 		this->m_DarkSpiritExpTable[0] = 0;
; 318  : 		this->m_DarkSpiritExpTable[1] = 0;
; 319  : 
; 320  : 		for ( int i = 2 ; i < MAX_PET_LEVEL+2 ; i++ )

  000a6	83 f8 34	 cmp	 eax, 52			; 00000034H
  000a9	7d 1d		 jge	 SHORT $LN3@CPetItemEx
  000ab	0f 1f 44 00 00	 npad	 5
$LL34@CPetItemEx:

; 321  : 		{
; 322  : 			this->m_DarkSpiritExpTable[i] = (i+10) * i * i * i * 100;

  000b0	8d 48 0a	 lea	 ecx, DWORD PTR [eax+10]
  000b3	0f af c8	 imul	 ecx, eax
  000b6	0f af c8	 imul	 ecx, eax
  000b9	0f af c8	 imul	 ecx, eax
  000bc	6b c9 64	 imul	 ecx, ecx, 100
  000bf	89 0c 86	 mov	 DWORD PTR [esi+eax*4], ecx
  000c2	40		 inc	 eax
  000c3	83 f8 34	 cmp	 eax, 52			; 00000034H
  000c6	7c e8		 jl	 SHORT $LL34@CPetItemEx
$LN3@CPetItemEx:

; 323  : 		}
; 324  : 
; 325  : 		this->m_DarkHorseExpTable[0] = 0;

  000c8	c7 86 d0 00 00
	00 00 00 00 00	 mov	 DWORD PTR [esi+208], 0
  000d2	8d 96 d8 00 00
	00		 lea	 edx, DWORD PTR [esi+216]

; 326  : 		this->m_DarkHorseExpTable[1] = 0;

  000d8	c7 86 d4 00 00
	00 00 00 00 00	 mov	 DWORD PTR [esi+212], 0

; 327  : 
; 328  : 		for (int i = 2; i < MAX_PET_LEVEL + 2; i++)

  000e2	b9 02 00 00 00	 mov	 ecx, 2
$LL7@CPetItemEx:

; 329  : 		{
; 330  : 			this->m_DarkHorseExpTable[i] = (i+10) * i * i * i * 100;

  000e7	8d 41 0a	 lea	 eax, DWORD PTR [ecx+10]
  000ea	0f af c1	 imul	 eax, ecx
  000ed	8d 52 04	 lea	 edx, DWORD PTR [edx+4]
  000f0	0f af c1	 imul	 eax, ecx
  000f3	0f af c1	 imul	 eax, ecx
  000f6	41		 inc	 ecx
  000f7	6b c0 64	 imul	 eax, eax, 100
  000fa	89 42 fc	 mov	 DWORD PTR [edx-4], eax
  000fd	83 f9 34	 cmp	 ecx, 52			; 00000034H
  00100	7c e5		 jl	 SHORT $LL7@CPetItemEx

; 331  : 		}
; 332  : 	};

  00102	8b c6		 mov	 eax, esi
  00104	5e		 pop	 esi
  00105	c3		 ret	 0
??0CPetItemExp@@QAE@XZ ENDP				; CPetItemExp::CPetItemExp
_TEXT	ENDS
; Function compile flags: /Ogtp
; File c:\users\michel\desktop\source\gameserver\common\zzzitem.cpp
;	COMDAT ?GetDetailItemType@CItem@@QAEHXZ
_TEXT	SEGMENT
?GetDetailItemType@CItem@@QAEHXZ PROC			; CItem::GetDetailItemType, COMDAT
; _this$ = ecx

; 5891 : {

  00000	8b d1		 mov	 edx, ecx
  00002	56		 push	 esi
  00003	57		 push	 edi

; 5892 : 	ITEM_ATTRIBUTE *p; // [sp+54h] [bp-8h]@1
; 5893 : 	int nSum; // [sp+50h] [bp-Ch]@26
; 5894 : 	signed int i; // [sp+4Ch] [bp-10h]@26
; 5895 : 
; 5896 : 	p = &ItemAttribute[m_Type];

  00004	0f b7 42 06	 movzx	 eax, WORD PTR [edx+6]
  00008	0f bf f8	 movsx	 edi, ax
  0000b	6b f7 70	 imul	 esi, edi, 112
  0000e	81 c6 00 00 00
	00		 add	 esi, OFFSET ?ItemAttribute@@3PAUITEM_ATTRIBUTE@@A ; ItemAttribute

; 5897 : 
; 5898 : 	if ( this->m_Type < 0 )

  00014	66 85 c0	 test	 ax, ax
  00017	0f 88 85 01 00
	00		 js	 $LN5@GetDetailI

; 5899 : 		return -1;
; 5900 : 
; 5901 : 
; 5902 : 	if ( this->m_Type < ITEMGET(1,0) )

  0001d	b9 00 02 00 00	 mov	 ecx, 512		; 00000200H
  00022	66 3b c1	 cmp	 ax, cx
  00025	7d 27		 jge	 SHORT $LN8@GetDetailI

; 5903 : 	{
; 5904 : 		if(this->m_TwoHand == 1)

  00027	80 7a 0c 01	 cmp	 BYTE PTR [edx+12], 1
  0002b	75 05		 jne	 SHORT $LN10@GetDetailI
$LN65@GetDetailI:
  0002d	5f		 pop	 edi

; 5905 : 		{
; 5906 : 			return 0;

  0002e	33 c0		 xor	 eax, eax
  00030	5e		 pop	 esi

; 5993 : }

  00031	c3		 ret	 0
$LN10@GetDetailI:

; 5907 : 		}
; 5908 : 		else
; 5909 : 		{
; 5910 : 			if( this->m_Type >= ITEMGET(0,32) && this->m_Type <= ITEMGET(0,35) )

  00032	66 83 f8 20	 cmp	 ax, 32			; 00000020H
  00036	7c 0e		 jl	 SHORT $LN12@GetDetailI
  00038	66 83 f8 23	 cmp	 ax, 35			; 00000023H
  0003c	7f 08		 jg	 SHORT $LN12@GetDetailI

; 5911 : 				return 12;

  0003e	5f		 pop	 edi
  0003f	b8 0c 00 00 00	 mov	 eax, 12			; 0000000cH
  00044	5e		 pop	 esi

; 5993 : }

  00045	c3		 ret	 0
$LN12@GetDetailI:
  00046	5f		 pop	 edi

; 5912 : 			else
; 5913 : 				return 1;

  00047	b8 01 00 00 00	 mov	 eax, 1
  0004c	5e		 pop	 esi

; 5993 : }

  0004d	c3		 ret	 0
$LN8@GetDetailI:

; 5914 : 		}
; 5915 : 	}
; 5916 : 	else if( m_Type < ITEMGET(2,0) )

  0004e	b9 00 04 00 00	 mov	 ecx, 1024		; 00000400H
  00053	66 3b c1	 cmp	 ax, cx
  00056	0f 8c 04 01 00
	00		 jl	 $LN39@GetDetailI

; 5917 : 	{
; 5918 : 
; 5919 : 	}
; 5920 : 	else if( m_Type < ITEMGET(3,0) )

  0005c	b9 00 06 00 00	 mov	 ecx, 1536		; 00000600H
  00061	66 3b c1	 cmp	 ax, cx
  00064	7d 2c		 jge	 SHORT $LN16@GetDetailI

; 5921 : 	{
; 5922 : 
; 5923 : 		if ( this->m_Type == ITEMGET(2,5) )

  00066	b9 05 04 00 00	 mov	 ecx, 1029		; 00000405H
  0006b	66 3b c1	 cmp	 ax, cx
  0006e	74 bd		 je	 SHORT $LN65@GetDetailI

; 5924 : 			return 0;
; 5925 : 
; 5926 : 		if ( this->m_Type == ITEMGET(2,6) )

  00070	b9 06 04 00 00	 mov	 ecx, 1030		; 00000406H
  00075	66 3b c1	 cmp	 ax, cx
  00078	0f 84 24 01 00
	00		 je	 $LN5@GetDetailI

; 5927 : 			return -1;
; 5928 : 
; 5929 : 		// force wave skill
; 5930 : 		if ( p->SkillType == 66 )

  0007e	83 7e 68 42	 cmp	 DWORD PTR [esi+104], 66	; 00000042H
  00082	b8 02 00 00 00	 mov	 eax, 2
  00087	b9 0b 00 00 00	 mov	 ecx, 11			; 0000000bH
  0008c	5f		 pop	 edi
  0008d	0f 44 c1	 cmove	 eax, ecx
  00090	5e		 pop	 esi

; 5993 : }

  00091	c3		 ret	 0
$LN16@GetDetailI:

; 5931 : 			return 11;
; 5932 : 		else
; 5933 : 			return 2;
; 5934 : 	}
; 5935 : 	else if(m_Type < ITEMGET(4,0) )

  00092	b9 00 08 00 00	 mov	 ecx, 2048		; 00000800H
  00097	66 3b c1	 cmp	 ax, cx
  0009a	7d 08		 jge	 SHORT $LN22@GetDetailI

; 5936 : 	{
; 5937 : 		return 3;

  0009c	5f		 pop	 edi
  0009d	b8 03 00 00 00	 mov	 eax, 3
  000a2	5e		 pop	 esi

; 5993 : }

  000a3	c3		 ret	 0
$LN22@GetDetailI:

; 5938 : 	}
; 5939 : 	else if(m_Type < ITEMGET(5,0) )

  000a4	b9 00 0a 00 00	 mov	 ecx, 2560		; 00000a00H
  000a9	66 3b c1	 cmp	 ax, cx
  000ac	7d 17		 jge	 SHORT $LN24@GetDetailI

; 5940 : 	{
; 5941 : 		if ( m_TwoHand == 1 )

  000ae	80 7a 0c 01	 cmp	 BYTE PTR [edx+12], 1
  000b2	0f 85 a8 00 00
	00		 jne	 $LN39@GetDetailI

; 5942 : 		{
; 5943 : 			if ( p->ItemSlot == 0)

  000b8	8b 46 64	 mov	 eax, DWORD PTR [esi+100]
  000bb	f7 d8		 neg	 eax
  000bd	5f		 pop	 edi
  000be	1b c0		 sbb	 eax, eax
  000c0	83 c0 08	 add	 eax, 8
  000c3	5e		 pop	 esi

; 5993 : }

  000c4	c3		 ret	 0
$LN24@GetDetailI:

; 5944 : 				return 8;
; 5945 : 			else
; 5946 : 				return 7;
; 5947 : 		}
; 5948 : 	}
; 5949 : 	else if ( m_Type < ITEMGET(6,0) )

  000c5	b9 00 0c 00 00	 mov	 ecx, 3072		; 00000c00H
  000ca	66 3b c1	 cmp	 ax, cx
  000cd	7d 7f		 jge	 SHORT $LN29@GetDetailI

; 5950 : 	{
; 5951 : 		nSum = 0;

  000cf	33 c9		 xor	 ecx, ecx
  000d1	53		 push	 ebx

; 5952 : 		for ( i = 0; i < MAX_TYPE_PLAYER; ++i )
; 5953 : 		{
; 5954 : 			if ( this->m_RequireClass[i] > 0 )

  000d2	33 db		 xor	 ebx, ebx
  000d4	38 4a 60	 cmp	 BYTE PTR [edx+96], cl
  000d7	0f 47 cb	 cmova	 ecx, ebx
  000da	80 7a 61 00	 cmp	 BYTE PTR [edx+97], 0
  000de	bb 01 00 00 00	 mov	 ebx, 1
  000e3	0f 47 cb	 cmova	 ecx, ebx
  000e6	80 7a 62 00	 cmp	 BYTE PTR [edx+98], 0
  000ea	5b		 pop	 ebx
  000eb	76 03		 jbe	 SHORT $LN56@GetDetailI

; 5955 : 				nSum += i;

  000ed	83 c1 02	 add	 ecx, 2
$LN56@GetDetailI:

; 5952 : 		for ( i = 0; i < MAX_TYPE_PLAYER; ++i )
; 5953 : 		{
; 5954 : 			if ( this->m_RequireClass[i] > 0 )

  000f0	80 7a 63 00	 cmp	 BYTE PTR [edx+99], 0
  000f4	76 03		 jbe	 SHORT $LN58@GetDetailI

; 5955 : 				nSum += i;

  000f6	83 c1 03	 add	 ecx, 3
$LN58@GetDetailI:

; 5952 : 		for ( i = 0; i < MAX_TYPE_PLAYER; ++i )
; 5953 : 		{
; 5954 : 			if ( this->m_RequireClass[i] > 0 )

  000f9	80 7a 64 00	 cmp	 BYTE PTR [edx+100], 0
  000fd	76 03		 jbe	 SHORT $LN60@GetDetailI

; 5955 : 				nSum += i;

  000ff	83 c1 04	 add	 ecx, 4
$LN60@GetDetailI:

; 5952 : 		for ( i = 0; i < MAX_TYPE_PLAYER; ++i )
; 5953 : 		{
; 5954 : 			if ( this->m_RequireClass[i] > 0 )

  00102	80 7a 65 00	 cmp	 BYTE PTR [edx+101], 0
  00106	76 03		 jbe	 SHORT $LN62@GetDetailI

; 5955 : 				nSum += i;

  00108	83 c1 05	 add	 ecx, 5
$LN62@GetDetailI:

; 5952 : 		for ( i = 0; i < MAX_TYPE_PLAYER; ++i )
; 5953 : 		{
; 5954 : 			if ( this->m_RequireClass[i] > 0 )

  0010b	80 7a 66 00	 cmp	 BYTE PTR [edx+102], 0
  0010f	76 03		 jbe	 SHORT $LN64@GetDetailI

; 5955 : 				nSum += i;

  00111	83 c1 06	 add	 ecx, 6
$LN64@GetDetailI:

; 5956 : 		}
; 5957 : 
; 5958 : 		if ( nSum == 5 )

  00114	83 f9 05	 cmp	 ecx, 5
  00117	75 26		 jne	 SHORT $LN32@GetDetailI

; 5959 : 		{
; 5960 : 			if ( this->m_Type != ITEMGET(5,0) )

  00119	b9 00 0a 00 00	 mov	 ecx, 2560		; 00000a00H
  0011e	66 3b c1	 cmp	 ax, cx
  00121	74 3d		 je	 SHORT $LN39@GetDetailI

; 5961 : 			{
; 5962 : 				if ( p->ItemSlot == 0 )

  00123	8b 46 64	 mov	 eax, DWORD PTR [esi+100]
  00126	85 c0		 test	 eax, eax
  00128	75 08		 jne	 SHORT $LN35@GetDetailI

; 5963 : 					return 9;

  0012a	5f		 pop	 edi
  0012b	b8 09 00 00 00	 mov	 eax, 9
  00130	5e		 pop	 esi

; 5993 : }

  00131	c3		 ret	 0
$LN35@GetDetailI:

; 5964 : 
; 5965 : 				if ( p->ItemSlot == 1 )

  00132	83 f8 01	 cmp	 eax, 1
  00135	75 29		 jne	 SHORT $LN39@GetDetailI

; 5966 : 					return 10;

  00137	5f		 pop	 edi
  00138	b8 0a 00 00 00	 mov	 eax, 10			; 0000000aH
  0013d	5e		 pop	 esi

; 5993 : }

  0013e	c3		 ret	 0
$LN32@GetDetailI:

; 5967 : 			}
; 5968 : 		}
; 5969 : 		else
; 5970 : 		{
; 5971 : 			if ( this->m_TwoHand == 1 )

  0013f	33 c0		 xor	 eax, eax
  00141	80 7a 0c 01	 cmp	 BYTE PTR [edx+12], 1
  00145	5f		 pop	 edi
  00146	0f 94 c0	 sete	 al
  00149	83 c0 04	 add	 eax, 4
  0014c	5e		 pop	 esi

; 5993 : }

  0014d	c3		 ret	 0
$LN29@GetDetailI:

; 5972 : 				return 5;
; 5973 : 			else
; 5974 : 				return 4;
; 5975 : 		}
; 5976 : 	}
; 5977 : 	else if ( m_Type < ITEMGET(7,0) )

  0014e	b9 00 0e 00 00	 mov	 ecx, 3584		; 00000e00H
  00153	66 3b c1	 cmp	 ax, cx
  00156	7d 08		 jge	 SHORT $LN39@GetDetailI

; 5978 : 	{
; 5979 : 		return 6;

  00158	5f		 pop	 edi
  00159	b8 06 00 00 00	 mov	 eax, 6
  0015e	5e		 pop	 esi

; 5993 : }

  0015f	c3		 ret	 0
$LN39@GetDetailI:

; 5980 : 	}
; 5981 : 
; 5982 : 	switch( m_Type )

  00160	8d 87 dc e7 ff
	ff		 lea	 eax, DWORD PTR [edi-6180]
  00166	83 f8 07	 cmp	 eax, 7
  00169	77 37		 ja	 SHORT $LN5@GetDetailI
  0016b	ff 24 85 00 00
	00 00		 jmp	 DWORD PTR $LN67@GetDetailI[eax*4]
$LN40@GetDetailI:
  00172	5f		 pop	 edi

; 5983 : 	{
; 5984 : 	case ITEMGET(12,36):	return 20;

  00173	b8 14 00 00 00	 mov	 eax, 20			; 00000014H
  00178	5e		 pop	 esi

; 5993 : }

  00179	c3		 ret	 0
$LN41@GetDetailI:
  0017a	5f		 pop	 edi

; 5985 : 	case ITEMGET(12,37):	return 21;

  0017b	b8 15 00 00 00	 mov	 eax, 21			; 00000015H
  00180	5e		 pop	 esi

; 5993 : }

  00181	c3		 ret	 0
$LN42@GetDetailI:
  00182	5f		 pop	 edi

; 5986 : 	case ITEMGET(12,38):	return 22;

  00183	b8 16 00 00 00	 mov	 eax, 22			; 00000016H
  00188	5e		 pop	 esi

; 5993 : }

  00189	c3		 ret	 0
$LN43@GetDetailI:
  0018a	5f		 pop	 edi

; 5987 : 	case ITEMGET(12,39):	return 23;

  0018b	b8 17 00 00 00	 mov	 eax, 23			; 00000017H
  00190	5e		 pop	 esi

; 5993 : }

  00191	c3		 ret	 0
$LN44@GetDetailI:
  00192	5f		 pop	 edi

; 5988 : 	case ITEMGET(12,40):	return 24;

  00193	b8 18 00 00 00	 mov	 eax, 24			; 00000018H
  00198	5e		 pop	 esi

; 5993 : }

  00199	c3		 ret	 0
$LN45@GetDetailI:
  0019a	5f		 pop	 edi

; 5989 : 	case ITEMGET(12,43):	return 25;

  0019b	b8 19 00 00 00	 mov	 eax, 25			; 00000019H
  001a0	5e		 pop	 esi

; 5993 : }

  001a1	c3		 ret	 0
$LN5@GetDetailI:
  001a2	5f		 pop	 edi

; 5990 : 	}
; 5991 : 	
; 5992 : 	return -1;

  001a3	83 c8 ff	 or	 eax, -1
  001a6	5e		 pop	 esi

; 5993 : }

  001a7	c3		 ret	 0
$LN67@GetDetailI:
  001a8	00 00 00 00	 DD	 $LN40@GetDetailI
  001ac	00 00 00 00	 DD	 $LN41@GetDetailI
  001b0	00 00 00 00	 DD	 $LN42@GetDetailI
  001b4	00 00 00 00	 DD	 $LN43@GetDetailI
  001b8	00 00 00 00	 DD	 $LN44@GetDetailI
  001bc	00 00 00 00	 DD	 $LN5@GetDetailI
  001c0	00 00 00 00	 DD	 $LN5@GetDetailI
  001c4	00 00 00 00	 DD	 $LN45@GetDetailI
?GetDetailItemType@CItem@@QAEHXZ ENDP			; CItem::GetDetailItemType
_TEXT	ENDS
; Function compile flags: /Ogtp
; File c:\users\michel\desktop\source\gameserver\common\zzzitem.cpp
;	COMDAT ?IsFullExcellent@CItem@@QAE_NXZ
_TEXT	SEGMENT
?IsFullExcellent@CItem@@QAE_NXZ PROC			; CItem::IsFullExcellent, COMDAT
; _this$ = ecx

; 5874 : bool CItem::IsFullExcellent() {

  00000	53		 push	 ebx

; 5878 : 		if((m_NewOption >> i) & 1) {

  00001	8a 99 93 00 00
	00		 mov	 bl, BYTE PTR [ecx+147]
  00007	56		 push	 esi
  00008	33 f6		 xor	 esi, esi
  0000a	33 c0		 xor	 eax, eax
  0000c	0f 1f 40 00	 npad	 4
$LL4@IsFullExce:
  00010	8a d3		 mov	 dl, bl
  00012	8a c8		 mov	 cl, al
  00014	d2 ea		 shr	 dl, cl
  00016	f6 c2 01	 test	 dl, 1
  00019	74 01		 je	 SHORT $LN2@IsFullExce

; 5879 : 			ExcellentCount++;

  0001b	46		 inc	 esi
$LN2@IsFullExce:

; 5875 : 	int ExcellentCount = 0;
; 5876 : 
; 5877 : 	for (int i = 0; i < 6; i++) {

  0001c	40		 inc	 eax
  0001d	83 f8 06	 cmp	 eax, 6
  00020	7c ee		 jl	 SHORT $LL4@IsFullExce

; 5880 : 		}
; 5881 : 	}
; 5882 : 
; 5883 : 	if (ExcellentCount >= 5) {

  00022	83 fe 05	 cmp	 esi, 5
  00025	5e		 pop	 esi
  00026	0f 9d c0	 setge	 al
  00029	5b		 pop	 ebx

; 5884 : 		return true;
; 5885 : 	}
; 5886 : 
; 5887 : 	return false;
; 5888 : }

  0002a	c3		 ret	 0
?IsFullExcellent@CItem@@QAE_NXZ ENDP			; CItem::IsFullExcellent
_TEXT	ENDS
; Function compile flags: /Ogtp
; File c:\users\michel\desktop\source\gameserver\common\zzzitem.cpp
;	COMDAT ?IsFullAncient@CItem@@QAEHXZ
_TEXT	SEGMENT
?IsFullAncient@CItem@@QAEHXZ PROC			; CItem::IsFullAncient, COMDAT
; _this$ = ecx

; 5864 : 	if( m_SetOption & 3 )

  00000	f6 81 aa 00 00
	00 03		 test	 BYTE PTR [ecx+170], 3
  00007	74 16		 je	 SHORT $LN3@IsFullAnci

; 5865 : 	{
; 5866 : 		if( m_Level >= 15 && m_Option3 == 7 )

  00009	66 83 79 08 0f	 cmp	 WORD PTR [ecx+8], 15	; 0000000fH
  0000e	7c 0f		 jl	 SHORT $LN3@IsFullAnci
  00010	80 b9 92 00 00
	00 07		 cmp	 BYTE PTR [ecx+146], 7
  00017	75 06		 jne	 SHORT $LN3@IsFullAnci

; 5867 : 		{
; 5868 : 			return TRUE;

  00019	b8 01 00 00 00	 mov	 eax, 1

; 5872 : }

  0001e	c3		 ret	 0
$LN3@IsFullAnci:

; 5869 : 		}
; 5870 : 	}
; 5871 : return FALSE;

  0001f	33 c0		 xor	 eax, eax

; 5872 : }

  00021	c3		 ret	 0
?IsFullAncient@CItem@@QAEHXZ ENDP			; CItem::IsFullAncient
_TEXT	ENDS
; Function compile flags: /Ogtp
; File c:\users\michel\desktop\source\gameserver\common\zzzitem.cpp
;	COMDAT ?GetExcOptCount@CItem@@QAEHXZ
_TEXT	SEGMENT
?GetExcOptCount@CItem@@QAEHXZ PROC			; CItem::GetExcOptCount, COMDAT
; _this$ = ecx

; 5837 : {

  00000	8b c1		 mov	 eax, ecx

; 5838 : 	if( (m_NewOption & 0x7F) == 0 )

  00002	8a 88 93 00 00
	00		 mov	 cl, BYTE PTR [eax+147]
  00008	f6 c1 7f	 test	 cl, 127			; 0000007fH
  0000b	75 03		 jne	 SHORT $LN5@GetExcOptC

; 5839 : 		return 0;

  0000d	33 c0		 xor	 eax, eax

; 5857 : 		}
; 5858 : 	}
; 5859 : return count;
; 5860 : }

  0000f	c3		 ret	 0
$LN5@GetExcOptC:

; 5840 : 
; 5841 : 	int excop = m_NewOption;
; 5842 : 
; 5843 : 	if( m_Type >= ITEMGET(12,0) && m_Type <= ITEMGET(12,6) )

  00010	0f b7 40 06	 movzx	 eax, WORD PTR [eax+6]
  00014	ba 00 18 00 00	 mov	 edx, 6144		; 00001800H
  00019	0f b6 c9	 movzx	 ecx, cl
  0001c	66 3b c2	 cmp	 ax, dx
  0001f	7c 0d		 jl	 SHORT $LN6@GetExcOptC
  00021	ba 06 18 00 00	 mov	 edx, 6150		; 00001806H
  00026	66 3b c2	 cmp	 ax, dx
  00029	7f 03		 jg	 SHORT $LN6@GetExcOptC

; 5844 : 		excop &= 0x1F;

  0002b	83 e1 1f	 and	 ecx, 31			; 0000001fH
$LN6@GetExcOptC:

; 5845 : 
; 5846 : 	if( m_Type >= ITEMGET(12,36) && m_Type <= ITEMGET(12,40) )

  0002e	ba 24 18 00 00	 mov	 edx, 6180		; 00001824H
  00033	66 3b c2	 cmp	 ax, dx
  00036	7c 0d		 jl	 SHORT $LN7@GetExcOptC
  00038	ba 28 18 00 00	 mov	 edx, 6184		; 00001828H
  0003d	66 3b c2	 cmp	 ax, dx
  00040	7f 03		 jg	 SHORT $LN7@GetExcOptC

; 5847 : 		excop &= 0x0F;

  00042	83 e1 0f	 and	 ecx, 15			; 0000000fH
$LN7@GetExcOptC:

; 5848 : 
; 5849 : 	int count = 0;

  00045	33 c0		 xor	 eax, eax

; 5850 : 
; 5851 : 	for(int i = 0; i < 6; i++)
; 5852 : 	{
; 5853 : 		if(excop & (1 << i))

  00047	f6 c1 01	 test	 cl, 1
  0004a	74 06		 je	 SHORT $LN2@GetExcOptC

; 5854 : 		{
; 5855 : 			excop -= (1 << i);

  0004c	49		 dec	 ecx

; 5856 : 			count++;

  0004d	b8 01 00 00 00	 mov	 eax, 1
$LN2@GetExcOptC:

; 5850 : 
; 5851 : 	for(int i = 0; i < 6; i++)
; 5852 : 	{
; 5853 : 		if(excop & (1 << i))

  00052	f6 c1 02	 test	 cl, 2
  00055	74 04		 je	 SHORT $LN17@GetExcOptC

; 5854 : 		{
; 5855 : 			excop -= (1 << i);

  00057	83 e9 02	 sub	 ecx, 2

; 5856 : 			count++;

  0005a	40		 inc	 eax
$LN17@GetExcOptC:

; 5850 : 
; 5851 : 	for(int i = 0; i < 6; i++)
; 5852 : 	{
; 5853 : 		if(excop & (1 << i))

  0005b	f6 c1 04	 test	 cl, 4
  0005e	74 04		 je	 SHORT $LN19@GetExcOptC

; 5854 : 		{
; 5855 : 			excop -= (1 << i);

  00060	83 e9 04	 sub	 ecx, 4

; 5856 : 			count++;

  00063	40		 inc	 eax
$LN19@GetExcOptC:

; 5850 : 
; 5851 : 	for(int i = 0; i < 6; i++)
; 5852 : 	{
; 5853 : 		if(excop & (1 << i))

  00064	f6 c1 08	 test	 cl, 8
  00067	74 04		 je	 SHORT $LN21@GetExcOptC

; 5854 : 		{
; 5855 : 			excop -= (1 << i);

  00069	83 e9 08	 sub	 ecx, 8

; 5856 : 			count++;

  0006c	40		 inc	 eax
$LN21@GetExcOptC:

; 5850 : 
; 5851 : 	for(int i = 0; i < 6; i++)
; 5852 : 	{
; 5853 : 		if(excop & (1 << i))

  0006d	f6 c1 10	 test	 cl, 16			; 00000010H
  00070	74 04		 je	 SHORT $LN23@GetExcOptC

; 5854 : 		{
; 5855 : 			excop -= (1 << i);

  00072	83 e9 10	 sub	 ecx, 16			; 00000010H

; 5856 : 			count++;

  00075	40		 inc	 eax
$LN23@GetExcOptC:

; 5850 : 
; 5851 : 	for(int i = 0; i < 6; i++)
; 5852 : 	{
; 5853 : 		if(excop & (1 << i))

  00076	f6 c1 20	 test	 cl, 32			; 00000020H
  00079	74 01		 je	 SHORT $LN1@GetExcOptC

; 5856 : 			count++;

  0007b	40		 inc	 eax
$LN1@GetExcOptC:

; 5857 : 		}
; 5858 : 	}
; 5859 : return count;
; 5860 : }

  0007c	c3		 ret	 0
?GetExcOptCount@CItem@@QAEHXZ ENDP			; CItem::GetExcOptCount
_TEXT	ENDS
; Function compile flags: /Ogtp
; File c:\users\michel\desktop\source\gameserver\common\zzzitem.cpp
;	COMDAT ?InitSocketItem@CItem@@QAEXE@Z
_TEXT	SEGMENT
_btCount$ = 8						; size = 1
?InitSocketItem@CItem@@QAEXE@Z PROC			; CItem::InitSocketItem, COMDAT
; _this$ = ecx

; 4111 : {

  00000	55		 push	 ebp
  00001	8b ec		 mov	 ebp, esp
  00003	56		 push	 esi
  00004	8b f1		 mov	 esi, ecx

; 4112 : 	if( g_SocketItem.IsSocketItem(this) == FALSE )

  00006	b9 00 00 00 00	 mov	 ecx, OFFSET ?g_SocketItem@@3VCSocketItems@@A ; g_SocketItem
  0000b	56		 push	 esi
  0000c	e8 00 00 00 00	 call	 ?IsSocketItem@CSocketItems@@QAE_NPAVCItem@@@Z ; CSocketItems::IsSocketItem
  00011	84 c0		 test	 al, al
  00013	74 2a		 je	 SHORT $LN1@InitSocket

; 4113 : 	{
; 4114 : 		return;
; 4115 : 	}
; 4116 : 
; 4117 : 	for(int n = 0; n < btCount; n++)

  00015	0f b6 4d 08	 movzx	 ecx, BYTE PTR _btCount$[ebp]
  00019	85 c9		 test	 ecx, ecx
  0001b	7e 1b		 jle	 SHORT $LN4@InitSocket
  0001d	8b d1		 mov	 edx, ecx
  0001f	b8 fe fe fe fe	 mov	 eax, -16843010		; fefefefeH
  00024	57		 push	 edi
  00025	c1 e9 02	 shr	 ecx, 2
  00028	8d be c8 00 00
	00		 lea	 edi, DWORD PTR [esi+200]
  0002e	f3 ab		 rep stosd
  00030	8b ca		 mov	 ecx, edx
  00032	83 e1 03	 and	 ecx, 3
  00035	f3 aa		 rep stosb
  00037	5f		 pop	 edi
$LN4@InitSocket:

; 4118 : 	{
; 4119 : 		m_SocketOption[n] = 0xFE;
; 4120 : 	}
; 4121 : 
; 4122 : 	m_SocketBonus = 0xFF;

  00038	c6 86 c7 00 00
	00 ff		 mov	 BYTE PTR [esi+199], 255	; 000000ffH
$LN1@InitSocket:
  0003f	5e		 pop	 esi

; 4123 : }

  00040	5d		 pop	 ebp
  00041	c2 04 00	 ret	 4
?InitSocketItem@CItem@@QAEXE@Z ENDP			; CItem::InitSocketItem
_TEXT	ENDS
; Function compile flags: /Ogtp
; File c:\users\michel\desktop\source\gameserver\common\zzzitem.cpp
;	COMDAT ?CheckDurabilityState@CItem@@QAEHXZ
_TEXT	SEGMENT
?CheckDurabilityState@CItem@@QAEHXZ PROC		; CItem::CheckDurabilityState, COMDAT
; _this$ = ecx

; 4059 : 	if ( m_Durability == 0.0f )

  00000	f3 0f 10 49 24	 movss	 xmm1, DWORD PTR [ecx+36]
  00005	0f 57 d2	 xorps	 xmm2, xmm2
  00008	0f 2e ca	 ucomiss xmm1, xmm2
  0000b	9f		 lahf
  0000c	f6 c4 44	 test	 ah, 68			; 00000044H
  0000f	7a 6c		 jp	 SHORT $LN2@CheckDurab

; 4060 : 	{
; 4061 : 		if ( m_CurrentDurabilityState != 1.0f )

  00011	f3 0f 10 81 a4
	00 00 00	 movss	 xmm0, DWORD PTR [ecx+164]
  00019	0f 2e 05 00 00
	00 00		 ucomiss xmm0, DWORD PTR __real@3f800000
  00020	9f		 lahf
  00021	f6 c4 44	 test	 ah, 68			; 00000044H
  00024	0f 8b ff 00 00
	00		 jnp	 $LN14@CheckDurab

; 4062 : 		{
; 4063 : 			m_CurrentDurabilityState = 1.0f;

  0002a	c7 81 a4 00 00
	00 00 00 80 3f	 mov	 DWORD PTR [ecx+164], 1065353216 ; 3f800000H
$LN16@CheckDurab:

; 4064 : 			Convert(m_Type, m_Option1, m_Option2, m_Option3, m_NewOption,

  00034	0f b6 81 c6 00
	00 00		 movzx	 eax, BYTE PTR [ecx+198]
  0003b	6a 03		 push	 3
  0003d	68 ff 00 00 00	 push	 255			; 000000ffH
  00042	6a 00		 push	 0
  00044	50		 push	 eax
  00045	0f b6 81 aa 00
	00 00		 movzx	 eax, BYTE PTR [ecx+170]
  0004c	50		 push	 eax
  0004d	0f b6 81 93 00
	00 00		 movzx	 eax, BYTE PTR [ecx+147]
  00054	50		 push	 eax
  00055	0f b6 81 92 00
	00 00		 movzx	 eax, BYTE PTR [ecx+146]
  0005c	50		 push	 eax
  0005d	0f b6 81 91 00
	00 00		 movzx	 eax, BYTE PTR [ecx+145]
  00064	50		 push	 eax
  00065	0f b6 81 90 00
	00 00		 movzx	 eax, BYTE PTR [ecx+144]
  0006c	50		 push	 eax
  0006d	0f bf 41 06	 movsx	 eax, WORD PTR [ecx+6]
  00071	50		 push	 eax
  00072	e8 00 00 00 00	 call	 ?Convert@CItem@@QAEXHEEEEEEPAEEE@Z ; CItem::Convert

; 4065 : 				m_SetOption, m_ItemOptionEx, 0,-1,CURRENT_DB_VERSION);
; 4066 : 			return true;

  00077	b8 01 00 00 00	 mov	 eax, 1

; 4108 : }

  0007c	c3		 ret	 0
$LN2@CheckDurab:

; 4067 : 		}
; 4068 : 	}
; 4069 : 	else if ( m_Durability < m_DurabilityState[2] )

  0007d	f3 0f 10 81 9c
	00 00 00	 movss	 xmm0, DWORD PTR [ecx+156]
  00085	0f 2f c1	 comiss	 xmm0, xmm1
  00088	76 25		 jbe	 SHORT $LN5@CheckDurab

; 4070 : 	{
; 4071 : 		if ( m_CurrentDurabilityState != 0.5f )

  0008a	f3 0f 10 81 a4
	00 00 00	 movss	 xmm0, DWORD PTR [ecx+164]
  00092	0f 2e 05 00 00
	00 00		 ucomiss xmm0, DWORD PTR __real@3f000000
  00099	9f		 lahf
  0009a	f6 c4 44	 test	 ah, 68			; 00000044H
  0009d	0f 8b 86 00 00
	00		 jnp	 $LN14@CheckDurab

; 4072 : 		{
; 4073 : 			m_CurrentDurabilityState = 0.5f;

  000a3	c7 81 a4 00 00
	00 00 00 00 3f	 mov	 DWORD PTR [ecx+164], 1056964608 ; 3f000000H

; 4074 : 			Convert(m_Type, m_Option1, m_Option2, m_Option3, m_NewOption,
; 4075 : 				m_SetOption,m_ItemOptionEx, 0,-1,CURRENT_DB_VERSION);
; 4076 : 			return true;

  000ad	eb 85		 jmp	 SHORT $LN16@CheckDurab
$LN5@CheckDurab:

; 4077 : 		}
; 4078 : 	}
; 4079 : 	else if ( m_Durability < m_DurabilityState[1] )

  000af	f3 0f 10 81 98
	00 00 00	 movss	 xmm0, DWORD PTR [ecx+152]
  000b7	0f 2f c1	 comiss	 xmm0, xmm1
  000ba	76 24		 jbe	 SHORT $LN8@CheckDurab

; 4080 : 	{
; 4081 : 		if ( m_CurrentDurabilityState != 0.3f )

  000bc	f3 0f 10 81 a4
	00 00 00	 movss	 xmm0, DWORD PTR [ecx+164]
  000c4	0f 2e 05 00 00
	00 00		 ucomiss xmm0, DWORD PTR __real@3e99999a
  000cb	9f		 lahf
  000cc	f6 c4 44	 test	 ah, 68			; 00000044H
  000cf	7b 58		 jnp	 SHORT $LN14@CheckDurab

; 4082 : 		{
; 4083 : 			m_CurrentDurabilityState = 0.3f;

  000d1	c7 81 a4 00 00
	00 9a 99 99 3e	 mov	 DWORD PTR [ecx+164], 1050253722 ; 3e99999aH

; 4084 : 			Convert(m_Type, m_Option1, m_Option2, m_Option3, m_NewOption,
; 4085 : 				m_SetOption,m_ItemOptionEx, 0,-1,CURRENT_DB_VERSION);
; 4086 : 			return true;

  000db	e9 54 ff ff ff	 jmp	 $LN16@CheckDurab
$LN8@CheckDurab:

; 4087 : 		}
; 4088 : 	}
; 4089 : 	else if ( m_Durability < m_DurabilityState[0] )

  000e0	f3 0f 10 81 94
	00 00 00	 movss	 xmm0, DWORD PTR [ecx+148]
  000e8	0f 2f c1	 comiss	 xmm0, xmm1

; 4090 : 	{
; 4091 : 		if ( m_CurrentDurabilityState != 0.2f )

  000eb	f3 0f 10 81 a4
	00 00 00	 movss	 xmm0, DWORD PTR [ecx+164]
  000f3	76 1c		 jbe	 SHORT $LN11@CheckDurab
  000f5	0f 2e 05 00 00
	00 00		 ucomiss xmm0, DWORD PTR __real@3e4ccccd
  000fc	9f		 lahf
  000fd	f6 c4 44	 test	 ah, 68			; 00000044H
  00100	7b 27		 jnp	 SHORT $LN14@CheckDurab

; 4092 : 		{
; 4093 : 			m_CurrentDurabilityState = 0.2f;

  00102	c7 81 a4 00 00
	00 cd cc 4c 3e	 mov	 DWORD PTR [ecx+164], 1045220557 ; 3e4ccccdH

; 4094 : 			Convert(m_Type, m_Option1, m_Option2, m_Option3, m_NewOption,
; 4095 : 				m_SetOption,m_ItemOptionEx, 0,-1,CURRENT_DB_VERSION);
; 4096 : 			return true;

  0010c	e9 23 ff ff ff	 jmp	 $LN16@CheckDurab
$LN11@CheckDurab:

; 4097 : 		}
; 4098 : 	}
; 4099 : 	else if ( m_CurrentDurabilityState != 0.0f )

  00111	0f 2e c2	 ucomiss xmm0, xmm2
  00114	9f		 lahf
  00115	f6 c4 44	 test	 ah, 68			; 00000044H
  00118	7b 0f		 jnp	 SHORT $LN14@CheckDurab

; 4100 : 	{
; 4101 : 		m_CurrentDurabilityState = 0;

  0011a	c7 81 a4 00 00
	00 00 00 00 00	 mov	 DWORD PTR [ecx+164], 0

; 4102 : 		Convert(m_Type, m_Option1, m_Option2, m_Option3, m_NewOption,
; 4103 : 			m_SetOption,m_ItemOptionEx, 0,-1,CURRENT_DB_VERSION);
; 4104 : 		return true;

  00124	e9 0b ff ff ff	 jmp	 $LN16@CheckDurab
$LN14@CheckDurab:

; 4105 : 	}
; 4106 : 
; 4107 : 	return false;

  00129	33 c0		 xor	 eax, eax

; 4108 : }

  0012b	c3		 ret	 0
?CheckDurabilityState@CItem@@QAEHXZ ENDP		; CItem::CheckDurabilityState
_TEXT	ENDS
; Function compile flags: /Ogtp
; File c:\users\michel\desktop\source\gameserver\common\zzzitem.cpp
;	COMDAT ?ArmorDurabilityDown@CItem@@QAEHHH@Z
_TEXT	SEGMENT
tv161 = -8						; size = 4
_plusdef$ = -4						; size = 4
_DecreaseDur$ = 8					; size = 4
_damagemin$ = 8						; size = 4
_aIndex$ = 12						; size = 4
?ArmorDurabilityDown@CItem@@QAEHHH@Z PROC		; CItem::ArmorDurabilityDown, COMDAT
; _this$ = ecx

; 3961 : {

  00000	55		 push	 ebp
  00001	8b ec		 mov	 ebp, esp
  00003	83 ec 08	 sub	 esp, 8
  00006	56		 push	 esi
  00007	8b f1		 mov	 esi, ecx
  00009	0f 57 c9	 xorps	 xmm1, xmm1

; 3962 : 	if ( m_Durability <= 0 )

  0000c	f3 0f 10 56 24	 movss	 xmm2, DWORD PTR [esi+36]
  00011	0f 2f ca	 comiss	 xmm1, xmm2
  00014	f3 0f 11 55 f8	 movss	 DWORD PTR tv161[ebp], xmm2
  00019	72 09		 jb	 SHORT $LN2@ArmorDurab
$LN29@ArmorDurab:

; 3963 : 	{
; 3964 : 		return 0;

  0001b	33 c0		 xor	 eax, eax
  0001d	5e		 pop	 esi

; 4051 : }

  0001e	8b e5		 mov	 esp, ebp
  00020	5d		 pop	 ebp
  00021	c2 08 00	 ret	 8
$LN2@ArmorDurab:

; 3965 : 	}
; 3966 : 
; 3967 : 	if ( m_Type == -1 )

  00024	0f b7 46 06	 movzx	 eax, WORD PTR [esi+6]
  00028	66 83 f8 ff	 cmp	 ax, -1
  0002c	74 ed		 je	 SHORT $LN29@ArmorDurab

; 3968 : 	{
; 3969 : 		return 0;
; 3970 : 	}
; 3971 : 
; 3972 : 	int def = m_DefenseOrigin;

  0002e	57		 push	 edi
  0002f	0f b7 7e 1e	 movzx	 edi, WORD PTR [esi+30]

; 3973 : 	int plusdef = 0;

  00033	c7 45 fc 00 00
	00 00		 mov	 DWORD PTR _plusdef$[ebp], 0

; 3974 : 	int DecreaseDur;
; 3975 : 
; 3976 : 	if ( def == 0 )

  0003a	85 ff		 test	 edi, edi
  0003c	75 18		 jne	 SHORT $LN4@ArmorDurab

; 3977 : 	{
; 3978 : 		LogAdd("def 0");

  0003e	68 00 00 00 00	 push	 OFFSET ??_C@_0M@ELCONOFE@def?$MA?L?50?$MA?L?$LE?Y?$AA@
  00043	ff 15 00 00 00
	00		 call	 DWORD PTR ?LogAdd@@3P6AXPADZZA ; LogAdd
  00049	83 c4 04	 add	 esp, 4
$LN21@ArmorDurab:

; 4043 : 		{
; 4044 : 			return 2;
; 4045 : 		}
; 4046 : 		
; 4047 : 		return 1;
; 4048 : 		
; 4049 : 	}
; 4050 : 	return 0;

  0004c	5f		 pop	 edi
  0004d	33 c0		 xor	 eax, eax
  0004f	5e		 pop	 esi

; 4051 : }

  00050	8b e5		 mov	 esp, ebp
  00052	5d		 pop	 ebp
  00053	c2 08 00	 ret	 8
$LN4@ArmorDurab:

; 3979 : 		return 0;
; 3980 : 	}
; 3981 : 
; 3982 : 	if ( m_Type >= ITEMGET(6,0) && m_Type < ITEMGET(7,0) )

  00056	b9 00 0c 00 00	 mov	 ecx, 3072		; 00000c00H
  0005b	66 3b c1	 cmp	 ax, cx
  0005e	7c 2f		 jl	 SHORT $LN5@ArmorDurab
  00060	b9 00 0e 00 00	 mov	 ecx, 3584		; 00000e00H
  00065	66 3b c1	 cmp	 ax, cx
  00068	7d 25		 jge	 SHORT $LN5@ArmorDurab

; 3983 : 	{
; 3984 : 		PlusSpecial(&plusdef, 82);

  0006a	6a 52		 push	 82			; 00000052H
  0006c	8d 45 fc	 lea	 eax, DWORD PTR _plusdef$[ebp]
  0006f	8b ce		 mov	 ecx, esi
  00071	50		 push	 eax
  00072	e8 00 00 00 00	 call	 ?PlusSpecial@CItem@@QAEXPAHH@Z ; CItem::PlusSpecial

; 3985 : 		DecreaseDur = damagemin/(def * 5+ plusdef);

  00077	8b 45 fc	 mov	 eax, DWORD PTR _plusdef$[ebp]

; 4015 : 		DecreaseDur = damagemin/(def * 3 + plusdef);

  0007a	f3 0f 10 55 f8	 movss	 xmm2, DWORD PTR tv161[ebp]
  0007f	8d 0c b8	 lea	 ecx, DWORD PTR [eax+edi*4]
  00082	8b 45 08	 mov	 eax, DWORD PTR _damagemin$[ebp]
  00085	03 cf		 add	 ecx, edi
  00087	99		 cdq
  00088	f7 f9		 idiv	 ecx
  0008a	e9 c3 00 00 00	 jmp	 $LN19@ArmorDurab
$LN5@ArmorDurab:

; 3986 : 	}
; 3987 : 	else if ( m_RequireClass[0] != 0 )	// Dark Wize

  0008f	80 7e 60 00	 cmp	 BYTE PTR [esi+96], 0
  00093	0f 85 8e 00 00
	00		 jne	 $LN27@ArmorDurab

; 3988 : 	{
; 3989 : 		PlusSpecial(&plusdef, 83);
; 3990 : 		DecreaseDur = damagemin/(def * 3 + plusdef);
; 3991 : 	}
; 3992 : 	else if ( m_RequireClass[1] != 0 )	// Dark Knight

  00099	80 7e 61 00	 cmp	 BYTE PTR [esi+97], 0
  0009d	0f 85 84 00 00
	00		 jne	 $LN27@ArmorDurab

; 3993 : 	{
; 3994 : 		PlusSpecial(&plusdef, 83);
; 3995 : 		DecreaseDur = damagemin/(def * 3 + plusdef);
; 3996 : 	}
; 3997 : 	else if ( m_RequireClass[2] != 0 )	// Elf

  000a3	80 7e 62 00	 cmp	 BYTE PTR [esi+98], 0
  000a7	74 23		 je	 SHORT $LN11@ArmorDurab

; 3998 : 	{
; 3999 : 		PlusSpecial(&plusdef, 83);

  000a9	6a 53		 push	 83			; 00000053H
  000ab	8d 45 fc	 lea	 eax, DWORD PTR _plusdef$[ebp]
  000ae	8b ce		 mov	 ecx, esi
  000b0	50		 push	 eax
  000b1	e8 00 00 00 00	 call	 ?PlusSpecial@CItem@@QAEXPAHH@Z ; CItem::PlusSpecial

; 4000 : 		DecreaseDur = damagemin/(def * 2 + plusdef);

  000b6	8b 45 fc	 mov	 eax, DWORD PTR _plusdef$[ebp]
  000b9	f3 0f 10 55 f8	 movss	 xmm2, DWORD PTR tv161[ebp]
  000be	8d 0c 78	 lea	 ecx, DWORD PTR [eax+edi*2]
  000c1	8b 45 08	 mov	 eax, DWORD PTR _damagemin$[ebp]
  000c4	99		 cdq
  000c5	f7 f9		 idiv	 ecx
  000c7	e9 86 00 00 00	 jmp	 $LN19@ArmorDurab
$LN11@ArmorDurab:

; 4001 : 	}
; 4002 : 	else if ( m_RequireClass[3] != 0 )	// MAgic Gladiator ( aka Magunsa )

  000cc	80 7e 63 00	 cmp	 BYTE PTR [esi+99], 0
  000d0	74 26		 je	 SHORT $LN13@ArmorDurab

; 4003 : 	{
; 4004 : 		PlusSpecial(&plusdef, 83);

  000d2	6a 53		 push	 83			; 00000053H
  000d4	8d 45 fc	 lea	 eax, DWORD PTR _plusdef$[ebp]
  000d7	8b ce		 mov	 ecx, esi
  000d9	50		 push	 eax
  000da	e8 00 00 00 00	 call	 ?PlusSpecial@CItem@@QAEXPAHH@Z ; CItem::PlusSpecial

; 4005 : 		DecreaseDur = damagemin/(def * 7 + plusdef);

  000df	8b 45 08	 mov	 eax, DWORD PTR _damagemin$[ebp]
  000e2	8d 0c fd 00 00
	00 00		 lea	 ecx, DWORD PTR [edi*8]
  000e9	f3 0f 10 55 f8	 movss	 xmm2, DWORD PTR tv161[ebp]
  000ee	2b cf		 sub	 ecx, edi
  000f0	03 4d fc	 add	 ecx, DWORD PTR _plusdef$[ebp]
  000f3	99		 cdq
  000f4	f7 f9		 idiv	 ecx
  000f6	eb 5a		 jmp	 SHORT $LN19@ArmorDurab
$LN13@ArmorDurab:

; 4006 : 	}
; 4007 : 	else if ( m_RequireClass[4] != 0 )	// Dark Lord

  000f8	80 7e 64 00	 cmp	 BYTE PTR [esi+100], 0
  000fc	74 23		 je	 SHORT $LN15@ArmorDurab

; 4008 : 	{
; 4009 : 		PlusSpecial(&plusdef, 83);

  000fe	6a 53		 push	 83			; 00000053H
  00100	8d 45 fc	 lea	 eax, DWORD PTR _plusdef$[ebp]
  00103	8b ce		 mov	 ecx, esi
  00105	50		 push	 eax
  00106	e8 00 00 00 00	 call	 ?PlusSpecial@CItem@@QAEXPAHH@Z ; CItem::PlusSpecial

; 4010 : 		DecreaseDur = damagemin/(def * 6 + plusdef);

  0010b	8b 45 fc	 mov	 eax, DWORD PTR _plusdef$[ebp]
  0010e	8d 0c 7f	 lea	 ecx, DWORD PTR [edi+edi*2]
  00111	f3 0f 10 55 f8	 movss	 xmm2, DWORD PTR tv161[ebp]
  00116	8d 0c 48	 lea	 ecx, DWORD PTR [eax+ecx*2]
  00119	8b 45 08	 mov	 eax, DWORD PTR _damagemin$[ebp]
  0011c	99		 cdq
  0011d	f7 f9		 idiv	 ecx
  0011f	eb 31		 jmp	 SHORT $LN19@ArmorDurab
$LN15@ArmorDurab:

; 4011 : 	}
; 4012 : 	else if ( m_RequireClass[5] != 0 )

  00121	80 7e 65 00	 cmp	 BYTE PTR [esi+101], 0
  00125	74 22		 je	 SHORT $LN17@ArmorDurab
$LN27@ArmorDurab:

; 4013 : 	{
; 4014 : 		PlusSpecial(&plusdef, 83);

  00127	6a 53		 push	 83			; 00000053H
  00129	8d 45 fc	 lea	 eax, DWORD PTR _plusdef$[ebp]
  0012c	8b ce		 mov	 ecx, esi
  0012e	50		 push	 eax
  0012f	e8 00 00 00 00	 call	 ?PlusSpecial@CItem@@QAEXPAHH@Z ; CItem::PlusSpecial

; 4015 : 		DecreaseDur = damagemin/(def * 3 + plusdef);

  00134	8b 45 fc	 mov	 eax, DWORD PTR _plusdef$[ebp]
  00137	f3 0f 10 55 f8	 movss	 xmm2, DWORD PTR tv161[ebp]
  0013c	8d 0c 78	 lea	 ecx, DWORD PTR [eax+edi*2]
  0013f	8b 45 08	 mov	 eax, DWORD PTR _damagemin$[ebp]
  00142	03 cf		 add	 ecx, edi
  00144	99		 cdq
  00145	f7 f9		 idiv	 ecx
  00147	eb 09		 jmp	 SHORT $LN19@ArmorDurab
$LN17@ArmorDurab:

; 4016 : 	}
; 4017 : 	else if ( m_RequireClass[6] != 0 )

  00149	80 7e 66 00	 cmp	 BYTE PTR [esi+102], 0
  0014d	75 d8		 jne	 SHORT $LN27@ArmorDurab

; 4018 : 	{
; 4019 : 		PlusSpecial(&plusdef, 83);
; 4020 : 		DecreaseDur = damagemin/(def * 3 + plusdef);

  0014f	8b 45 08	 mov	 eax, DWORD PTR _DecreaseDur$[ebp]
$LN19@ArmorDurab:

; 4021 : 	}
; 4022 : 
; 4023 : 	m_DurabilitySmall += DecreaseDur;
; 4024 : 
; 4025 : 	int DurCheck = 69;
; 4026 : 
; 4027 : 	if ( gObj[aIndex].m_MPSkillOpt.MpsDownDur1 > 0.0f )

  00152	69 4d 0c 40 27
	00 00		 imul	 ecx, DWORD PTR _aIndex$[ebp], 10048
  00159	ba 45 00 00 00	 mov	 edx, 69			; 00000045H
  0015e	66 01 46 28	 add	 WORD PTR [esi+40], ax
  00162	a1 00 00 00 00	 mov	 eax, DWORD PTR ?gObj@@3PAUOBJECTSTRUCT@@A ; gObj
  00167	66 8b 7e 28	 mov	 di, WORD PTR [esi+40]
  0016b	f3 0f 10 8c 01
	c8 06 00 00	 movss	 xmm1, DWORD PTR [ecx+eax+1736]
  00174	0f 2f 0d 00 00
	00 00		 comiss	 xmm1, DWORD PTR __real@00000000
  0017b	76 1c		 jbe	 SHORT $LN20@ArmorDurab

; 4028 : 	{
; 4029 : 		DurCheck += DurCheck*gObj[aIndex].m_MPSkillOpt.MpsDownDur1/100.0f;

  0017d	f3 0f 59 0d 00
	00 00 00	 mulss	 xmm1, DWORD PTR __real@428a0000
  00185	f3 0f 5e 0d 00
	00 00 00	 divss	 xmm1, DWORD PTR __real@42c80000
  0018d	f3 0f 58 0d 00
	00 00 00	 addss	 xmm1, DWORD PTR __real@428a0000
  00195	f3 0f 2c d1	 cvttss2si edx, xmm1
$LN20@ArmorDurab:

; 4030 : 	}
; 4031 : 
; 4032 : 	if ( m_DurabilitySmall > DurCheck )

  00199	0f b7 c7	 movzx	 eax, di
  0019c	3b c2		 cmp	 eax, edx
  0019e	0f 8e a8 fe ff
	ff		 jle	 $LN21@ArmorDurab

; 4033 : 	{
; 4034 : 		m_DurabilitySmall = 0;
; 4035 : 		m_Durability -= 1.0f;

  001a4	f3 0f 5c 15 00
	00 00 00	 subss	 xmm2, DWORD PTR __real@3f800000
  001ac	33 c0		 xor	 eax, eax
  001ae	0f 57 c9	 xorps	 xmm1, xmm1
  001b1	66 89 46 28	 mov	 WORD PTR [esi+40], ax

; 4036 : 
; 4037 : 		if ( m_Durability < 0.0f )

  001b5	0f 2f ca	 comiss	 xmm1, xmm2
  001b8	f3 0f 11 56 24	 movss	 DWORD PTR [esi+36], xmm2
  001bd	76 03		 jbe	 SHORT $LN22@ArmorDurab

; 4038 : 		{
; 4039 : 			m_Durability = 0;

  001bf	89 46 24	 mov	 DWORD PTR [esi+36], eax
$LN22@ArmorDurab:

; 4040 : 		}
; 4041 : 		
; 4042 : 		if ( CheckDurabilityState() != 0 )

  001c2	8b ce		 mov	 ecx, esi
  001c4	e8 00 00 00 00	 call	 ?CheckDurabilityState@CItem@@QAEHXZ ; CItem::CheckDurabilityState
  001c9	f7 d8		 neg	 eax
  001cb	5f		 pop	 edi
  001cc	1b c0		 sbb	 eax, eax
  001ce	f7 d8		 neg	 eax
  001d0	40		 inc	 eax
  001d1	5e		 pop	 esi

; 4051 : }

  001d2	8b e5		 mov	 esp, ebp
  001d4	5d		 pop	 ebp
  001d5	c2 08 00	 ret	 8
?ArmorDurabilityDown@CItem@@QAEHHH@Z ENDP		; CItem::ArmorDurabilityDown
_TEXT	ENDS
; Function compile flags: /Ogtp
; File c:\users\michel\desktop\source\gameserver\common\zzzitem.cpp
;	COMDAT ?StaffWeaponDurabilityDown@CItem@@QAEHHH@Z
_TEXT	SEGMENT
tv193 = -8						; size = 4
_plusmagic$ = -4					; size = 4
_defence$ = 8						; size = 4
_aIndex$ = 12						; size = 4
?StaffWeaponDurabilityDown@CItem@@QAEHHH@Z PROC		; CItem::StaffWeaponDurabilityDown, COMDAT
; _this$ = ecx

; 3910 : {

  00000	55		 push	 ebp
  00001	8b ec		 mov	 ebp, esp
  00003	83 ec 08	 sub	 esp, 8
  00006	57		 push	 edi
  00007	8b f9		 mov	 edi, ecx
  00009	0f 57 c9	 xorps	 xmm1, xmm1

; 3911 : 	if ( m_Durability <= 0 )

  0000c	f3 0f 10 47 24	 movss	 xmm0, DWORD PTR [edi+36]
  00011	0f 2f c8	 comiss	 xmm1, xmm0
  00014	f3 0f 11 45 f8	 movss	 DWORD PTR tv193[ebp], xmm0
  00019	72 09		 jb	 SHORT $LN2@StaffWeapo

; 3912 : 	{
; 3913 : 		return 0;

  0001b	33 c0		 xor	 eax, eax
  0001d	5f		 pop	 edi

; 3955 : }

  0001e	8b e5		 mov	 esp, ebp
  00020	5d		 pop	 ebp
  00021	c2 08 00	 ret	 8
$LN2@StaffWeapo:

; 3914 : 	}
; 3915 : 
; 3916 : 	int magic = m_Magic/2 + m_Level*2;

  00024	0f b7 4f 20	 movzx	 ecx, WORD PTR [edi+32]
  00028	0f bf 47 08	 movsx	 eax, WORD PTR [edi+8]
  0002c	d1 e9		 shr	 ecx, 1
  0002e	56		 push	 esi

; 3917 : 	int plusmagic = 0;
; 3918 : 	PlusSpecial(&plusmagic, 81);

  0002f	6a 51		 push	 81			; 00000051H
  00031	c7 45 fc 00 00
	00 00		 mov	 DWORD PTR _plusmagic$[ebp], 0
  00038	8d 34 41	 lea	 esi, DWORD PTR [ecx+eax*2]
  0003b	8b cf		 mov	 ecx, edi
  0003d	8d 45 fc	 lea	 eax, DWORD PTR _plusmagic$[ebp]
  00040	50		 push	 eax
  00041	e8 00 00 00 00	 call	 ?PlusSpecial@CItem@@QAEXPAHH@Z ; CItem::PlusSpecial

; 3919 : 	int div = magic + magic/3 + plusmagic;

  00046	b8 56 55 55 55	 mov	 eax, 1431655766		; 55555556H
  0004b	f7 ee		 imul	 esi
  0004d	8b ca		 mov	 ecx, edx
  0004f	c1 e9 1f	 shr	 ecx, 31			; 0000001fH
  00052	03 ca		 add	 ecx, edx
  00054	03 4d fc	 add	 ecx, DWORD PTR _plusmagic$[ebp]
  00057	03 ce		 add	 ecx, esi

; 3920 : 
; 3921 : 	if ( div == 0 )

  00059	0f 84 a8 00 00
	00		 je	 $LN5@StaffWeapo

; 3922 : 	{
; 3923 : 		return 0;
; 3924 : 	}
; 3925 : 
; 3926 : 	int DecreaseDur = defence/div;

  0005f	8b 45 08	 mov	 eax, DWORD PTR _defence$[ebp]
  00062	0f 57 d2	 xorps	 xmm2, xmm2
  00065	99		 cdq
  00066	f7 f9		 idiv	 ecx

; 3927 : 	DecreaseDur -= DecreaseDur * m_BonusDurability / 100;

  00068	0f b6 8f cd 00
	00 00		 movzx	 ecx, BYTE PTR [edi+205]
  0006f	8b f0		 mov	 esi, eax
  00071	b8 1f 85 eb 51	 mov	 eax, 1374389535		; 51eb851fH
  00076	0f af ce	 imul	 ecx, esi
  00079	f7 e9		 imul	 ecx

; 3928 : 	m_DurabilitySmall += DecreaseDur;
; 3929 : 
; 3930 : 	int DurCheck = 1050;
; 3931 : 
; 3932 : 	if ( gObj[aIndex].m_MPSkillOpt.MpsDownDur1 > 0.0f )

  0007b	69 4d 0c 40 27
	00 00		 imul	 ecx, DWORD PTR _aIndex$[ebp], 10048
  00082	c1 fa 05	 sar	 edx, 5
  00085	8b c2		 mov	 eax, edx
  00087	c1 e8 1f	 shr	 eax, 31			; 0000001fH
  0008a	03 c2		 add	 eax, edx
  0008c	ba 1a 04 00 00	 mov	 edx, 1050		; 0000041aH
  00091	2b f0		 sub	 esi, eax
  00093	66 01 77 28	 add	 WORD PTR [edi+40], si
  00097	a1 00 00 00 00	 mov	 eax, DWORD PTR ?gObj@@3PAUOBJECTSTRUCT@@A ; gObj
  0009c	66 8b 77 28	 mov	 si, WORD PTR [edi+40]
  000a0	f3 0f 10 8c 01
	c8 06 00 00	 movss	 xmm1, DWORD PTR [ecx+eax+1736]
  000a9	0f 2f ca	 comiss	 xmm1, xmm2
  000ac	76 1c		 jbe	 SHORT $LN4@StaffWeapo

; 3933 : 	{
; 3934 : 		DurCheck += DurCheck*gObj[aIndex].m_MPSkillOpt.MpsDownDur1/100.0f;

  000ae	f3 0f 59 0d 00
	00 00 00	 mulss	 xmm1, DWORD PTR __real@44834000
  000b6	f3 0f 5e 0d 00
	00 00 00	 divss	 xmm1, DWORD PTR __real@42c80000
  000be	f3 0f 58 0d 00
	00 00 00	 addss	 xmm1, DWORD PTR __real@44834000
  000c6	f3 0f 2c d1	 cvttss2si edx, xmm1
$LN4@StaffWeapo:

; 3935 : 	}
; 3936 : 
; 3937 : 	if ( m_DurabilitySmall > DurCheck )

  000ca	0f b7 c6	 movzx	 eax, si
  000cd	3b c2		 cmp	 eax, edx
  000cf	7e 36		 jle	 SHORT $LN5@StaffWeapo

; 3938 : 	{
; 3939 : 		m_DurabilitySmall = 0;
; 3940 : 		m_Durability -= 1.0f;

  000d1	f3 0f 10 45 f8	 movss	 xmm0, DWORD PTR tv193[ebp]
  000d6	33 c0		 xor	 eax, eax
  000d8	f3 0f 5c 05 00
	00 00 00	 subss	 xmm0, DWORD PTR __real@3f800000
  000e0	66 89 47 28	 mov	 WORD PTR [edi+40], ax

; 3941 : 
; 3942 : 		if ( m_Durability < 0.0f )

  000e4	0f 2f d0	 comiss	 xmm2, xmm0
  000e7	f3 0f 11 47 24	 movss	 DWORD PTR [edi+36], xmm0
  000ec	76 03		 jbe	 SHORT $LN6@StaffWeapo

; 3943 : 		{
; 3944 : 			m_Durability = 0;

  000ee	89 47 24	 mov	 DWORD PTR [edi+36], eax
$LN6@StaffWeapo:

; 3945 : 		}
; 3946 : 		
; 3947 : 		if ( CheckDurabilityState() != 0 )

  000f1	8b cf		 mov	 ecx, edi
  000f3	e8 00 00 00 00	 call	 ?CheckDurabilityState@CItem@@QAEHXZ ; CItem::CheckDurabilityState
  000f8	f7 d8		 neg	 eax
  000fa	5e		 pop	 esi
  000fb	1b c0		 sbb	 eax, eax
  000fd	f7 d8		 neg	 eax
  000ff	40		 inc	 eax
  00100	5f		 pop	 edi

; 3955 : }

  00101	8b e5		 mov	 esp, ebp
  00103	5d		 pop	 ebp
  00104	c2 08 00	 ret	 8
$LN5@StaffWeapo:
  00107	5e		 pop	 esi

; 3948 : 		{
; 3949 : 			return 2;
; 3950 : 		}
; 3951 : 		return 1;
; 3952 : 		
; 3953 : 	}
; 3954 : 	return 0;

  00108	33 c0		 xor	 eax, eax
  0010a	5f		 pop	 edi

; 3955 : }

  0010b	8b e5		 mov	 esp, ebp
  0010d	5d		 pop	 ebp
  0010e	c2 08 00	 ret	 8
?StaffWeaponDurabilityDown@CItem@@QAEHHH@Z ENDP		; CItem::StaffWeaponDurabilityDown
_TEXT	ENDS
; Function compile flags: /Ogtp
; File c:\users\michel\desktop\source\gameserver\common\zzzitem.cpp
;	COMDAT ?BowWeaponDurabilityDown@CItem@@QAEHHH@Z
_TEXT	SEGMENT
tv198 = -8						; size = 4
_plusdamage$ = -4					; size = 4
_defense$ = 8						; size = 4
_aIndex$ = 12						; size = 4
?BowWeaponDurabilityDown@CItem@@QAEHHH@Z PROC		; CItem::BowWeaponDurabilityDown, COMDAT
; _this$ = ecx

; 3860 : {

  00000	55		 push	 ebp
  00001	8b ec		 mov	 ebp, esp
  00003	83 ec 08	 sub	 esp, 8
  00006	57		 push	 edi
  00007	8b f9		 mov	 edi, ecx
  00009	0f 57 c9	 xorps	 xmm1, xmm1

; 3861 : 	if ( m_Durability <= 0 )

  0000c	f3 0f 10 47 24	 movss	 xmm0, DWORD PTR [edi+36]
  00011	0f 2f c8	 comiss	 xmm1, xmm0
  00014	f3 0f 11 45 f8	 movss	 DWORD PTR tv198[ebp], xmm0
  00019	72 09		 jb	 SHORT $LN2@BowWeaponD

; 3862 : 	{
; 3863 : 		return 0;

  0001b	33 c0		 xor	 eax, eax
  0001d	5f		 pop	 edi

; 3907 : }

  0001e	8b e5		 mov	 esp, ebp
  00020	5d		 pop	 ebp
  00021	c2 08 00	 ret	 8
$LN2@BowWeaponD:
  00024	56		 push	 esi

; 3864 : 	}
; 3865 : 
; 3866 : 	int damagemin = m_DamageMinOrigin;

  00025	0f b7 77 1c	 movzx	 esi, WORD PTR [edi+28]

; 3867 : 	int plusdamage = 0;
; 3868 : 	PlusSpecial(&plusdamage, 80);

  00029	8d 45 fc	 lea	 eax, DWORD PTR _plusdamage$[ebp]
  0002c	6a 50		 push	 80			; 00000050H
  0002e	50		 push	 eax
  0002f	c7 45 fc 00 00
	00 00		 mov	 DWORD PTR _plusdamage$[ebp], 0
  00036	e8 00 00 00 00	 call	 ?PlusSpecial@CItem@@QAEXPAHH@Z ; CItem::PlusSpecial

; 3869 : 	
; 3870 : 	int div = damagemin + damagemin/2 + plusdamage;

  0003b	8b c6		 mov	 eax, esi
  0003d	99		 cdq
  0003e	2b c2		 sub	 eax, edx
  00040	8b c8		 mov	 ecx, eax
  00042	d1 f9		 sar	 ecx, 1
  00044	03 4d fc	 add	 ecx, DWORD PTR _plusdamage$[ebp]
  00047	03 ce		 add	 ecx, esi

; 3871 : 
; 3872 : 	if ( div == 0 )

  00049	0f 84 aa 00 00
	00		 je	 $LN5@BowWeaponD

; 3873 : 	{
; 3874 : 		return 0;
; 3875 : 	}
; 3876 : 
; 3877 : 	int DecreaseDur = (defense*2)/div;

  0004f	8b 45 08	 mov	 eax, DWORD PTR _defense$[ebp]
  00052	0f 57 d2	 xorps	 xmm2, xmm2
  00055	03 c0		 add	 eax, eax
  00057	99		 cdq
  00058	f7 f9		 idiv	 ecx

; 3878 : 	DecreaseDur -= DecreaseDur * m_BonusDurability / 100;

  0005a	0f b6 8f cd 00
	00 00		 movzx	 ecx, BYTE PTR [edi+205]
  00061	8b f0		 mov	 esi, eax
  00063	b8 1f 85 eb 51	 mov	 eax, 1374389535		; 51eb851fH
  00068	0f af ce	 imul	 ecx, esi
  0006b	f7 e9		 imul	 ecx

; 3879 : 	m_DurabilitySmall += DecreaseDur;
; 3880 : 
; 3881 : 	int DurCheck = 780;
; 3882 : 
; 3883 : 	if ( gObj[aIndex].m_MPSkillOpt.MpsDownDur1 > 0.0f )

  0006d	69 4d 0c 40 27
	00 00		 imul	 ecx, DWORD PTR _aIndex$[ebp], 10048
  00074	c1 fa 05	 sar	 edx, 5
  00077	8b c2		 mov	 eax, edx
  00079	c1 e8 1f	 shr	 eax, 31			; 0000001fH
  0007c	03 c2		 add	 eax, edx
  0007e	ba 0c 03 00 00	 mov	 edx, 780		; 0000030cH
  00083	2b f0		 sub	 esi, eax
  00085	66 01 77 28	 add	 WORD PTR [edi+40], si
  00089	a1 00 00 00 00	 mov	 eax, DWORD PTR ?gObj@@3PAUOBJECTSTRUCT@@A ; gObj
  0008e	66 8b 77 28	 mov	 si, WORD PTR [edi+40]
  00092	f3 0f 10 8c 01
	c8 06 00 00	 movss	 xmm1, DWORD PTR [ecx+eax+1736]
  0009b	0f 2f ca	 comiss	 xmm1, xmm2
  0009e	76 1c		 jbe	 SHORT $LN4@BowWeaponD

; 3884 : 	{
; 3885 : 		DurCheck += DurCheck*gObj[aIndex].m_MPSkillOpt.MpsDownDur1/100.0f;

  000a0	f3 0f 59 0d 00
	00 00 00	 mulss	 xmm1, DWORD PTR __real@44430000
  000a8	f3 0f 5e 0d 00
	00 00 00	 divss	 xmm1, DWORD PTR __real@42c80000
  000b0	f3 0f 58 0d 00
	00 00 00	 addss	 xmm1, DWORD PTR __real@44430000
  000b8	f3 0f 2c d1	 cvttss2si edx, xmm1
$LN4@BowWeaponD:

; 3886 : 	}
; 3887 : 
; 3888 : 	if ( m_DurabilitySmall > DurCheck )

  000bc	0f b7 c6	 movzx	 eax, si
  000bf	3b c2		 cmp	 eax, edx
  000c1	7e 36		 jle	 SHORT $LN5@BowWeaponD

; 3889 : 	{
; 3890 : 		m_DurabilitySmall = 0;
; 3891 : 		m_Durability -= 1.0f;

  000c3	f3 0f 10 45 f8	 movss	 xmm0, DWORD PTR tv198[ebp]
  000c8	33 c0		 xor	 eax, eax
  000ca	f3 0f 5c 05 00
	00 00 00	 subss	 xmm0, DWORD PTR __real@3f800000
  000d2	66 89 47 28	 mov	 WORD PTR [edi+40], ax

; 3892 : 
; 3893 : 		if ( m_Durability < 0.0f )

  000d6	0f 2f d0	 comiss	 xmm2, xmm0
  000d9	f3 0f 11 47 24	 movss	 DWORD PTR [edi+36], xmm0
  000de	76 03		 jbe	 SHORT $LN6@BowWeaponD

; 3894 : 		{
; 3895 : 			m_Durability = 0;

  000e0	89 47 24	 mov	 DWORD PTR [edi+36], eax
$LN6@BowWeaponD:

; 3896 : 		}
; 3897 : 		
; 3898 : 		if ( CheckDurabilityState() != 0 )

  000e3	8b cf		 mov	 ecx, edi
  000e5	e8 00 00 00 00	 call	 ?CheckDurabilityState@CItem@@QAEHXZ ; CItem::CheckDurabilityState
  000ea	f7 d8		 neg	 eax
  000ec	5e		 pop	 esi
  000ed	1b c0		 sbb	 eax, eax
  000ef	f7 d8		 neg	 eax
  000f1	40		 inc	 eax
  000f2	5f		 pop	 edi

; 3907 : }

  000f3	8b e5		 mov	 esp, ebp
  000f5	5d		 pop	 ebp
  000f6	c2 08 00	 ret	 8
$LN5@BowWeaponD:
  000f9	5e		 pop	 esi

; 3899 : 		{
; 3900 : 			return 2;
; 3901 : 		}
; 3902 : 		
; 3903 : 		return 1;
; 3904 : 		
; 3905 : 	}
; 3906 : 	return 0;

  000fa	33 c0		 xor	 eax, eax
  000fc	5f		 pop	 edi

; 3907 : }

  000fd	8b e5		 mov	 esp, ebp
  000ff	5d		 pop	 ebp
  00100	c2 08 00	 ret	 8
?BowWeaponDurabilityDown@CItem@@QAEHHH@Z ENDP		; CItem::BowWeaponDurabilityDown
_TEXT	ENDS
; Function compile flags: /Ogtp
; File c:\users\michel\desktop\source\gameserver\common\zzzitem.cpp
;	COMDAT ?NormalWeaponDurabilityDown@CItem@@QAEHHH@Z
_TEXT	SEGMENT
tv200 = -8						; size = 4
_plusdamage$ = -4					; size = 4
_defense$ = 8						; size = 4
_aIndex$ = 12						; size = 4
?NormalWeaponDurabilityDown@CItem@@QAEHHH@Z PROC	; CItem::NormalWeaponDurabilityDown, COMDAT
; _this$ = ecx

; 3800 : {

  00000	55		 push	 ebp
  00001	8b ec		 mov	 ebp, esp
  00003	83 ec 08	 sub	 esp, 8
  00006	57		 push	 edi
  00007	8b f9		 mov	 edi, ecx
  00009	0f 57 c9	 xorps	 xmm1, xmm1

; 3801 : 	if ( m_Durability <= 0 )

  0000c	f3 0f 10 47 24	 movss	 xmm0, DWORD PTR [edi+36]
  00011	0f 2f c8	 comiss	 xmm1, xmm0
  00014	f3 0f 11 45 f8	 movss	 DWORD PTR tv200[ebp], xmm0
  00019	72 09		 jb	 SHORT $LN2@NormalWeap

; 3802 : 	{
; 3803 : 		return 0;

  0001b	33 c0		 xor	 eax, eax
  0001d	5f		 pop	 edi

; 3855 : }

  0001e	8b e5		 mov	 esp, ebp
  00020	5d		 pop	 ebp
  00021	c2 08 00	 ret	 8
$LN2@NormalWeap:
  00024	56		 push	 esi

; 3804 : 	}
; 3805 : 
; 3806 : 	int damagemin = m_DamageMinOrigin;

  00025	0f b7 77 1c	 movzx	 esi, WORD PTR [edi+28]

; 3807 : 	int plusdamage = 0;
; 3808 : 	PlusSpecial(&plusdamage, 80);

  00029	8d 45 fc	 lea	 eax, DWORD PTR _plusdamage$[ebp]
  0002c	6a 50		 push	 80			; 00000050H
  0002e	50		 push	 eax
  0002f	c7 45 fc 00 00
	00 00		 mov	 DWORD PTR _plusdamage$[ebp], 0
  00036	e8 00 00 00 00	 call	 ?PlusSpecial@CItem@@QAEXPAHH@Z ; CItem::PlusSpecial

; 3809 : 
; 3810 : 	if ( damagemin == 0 )

  0003b	85 f6		 test	 esi, esi
  0003d	75 18		 jne	 SHORT $LN3@NormalWeap

; 3811 : 	{
; 3812 : 		LogAdd("damagemin = 0!");

  0003f	68 00 00 00 00	 push	 OFFSET ??_C@_0P@KKGPKIJI@damagemin?5?$DN?50?$CB?$AA@
  00044	ff 15 00 00 00
	00		 call	 DWORD PTR ?LogAdd@@3P6AXPADZZA ; LogAdd
  0004a	83 c4 04	 add	 esp, 4
$LN6@NormalWeap:

; 3847 : 		{
; 3848 : 			return 2;
; 3849 : 		}
; 3850 : 		
; 3851 : 		return 1;
; 3852 : 		
; 3853 : 	}
; 3854 : 	return 0;

  0004d	5e		 pop	 esi
  0004e	33 c0		 xor	 eax, eax
  00050	5f		 pop	 edi

; 3855 : }

  00051	8b e5		 mov	 esp, ebp
  00053	5d		 pop	 ebp
  00054	c2 08 00	 ret	 8
$LN3@NormalWeap:

; 3813 : 		return 0;
; 3814 : 	}
; 3815 : 
; 3816 : 	int div = damagemin + damagemin/2 + plusdamage;

  00057	8b c6		 mov	 eax, esi
  00059	99		 cdq
  0005a	2b c2		 sub	 eax, edx
  0005c	8b c8		 mov	 ecx, eax
  0005e	d1 f9		 sar	 ecx, 1
  00060	03 4d fc	 add	 ecx, DWORD PTR _plusdamage$[ebp]
  00063	03 ce		 add	 ecx, esi

; 3817 : 
; 3818 : 	if ( div == 0 )

  00065	74 e6		 je	 SHORT $LN6@NormalWeap

; 3819 : 	{
; 3820 : 		return 0;
; 3821 : 	}
; 3822 : 
; 3823 : 	int DecreaseDur = (defense*2)/div;

  00067	8b 45 08	 mov	 eax, DWORD PTR _defense$[ebp]
  0006a	0f 57 d2	 xorps	 xmm2, xmm2
  0006d	03 c0		 add	 eax, eax
  0006f	99		 cdq
  00070	f7 f9		 idiv	 ecx

; 3824 : 
; 3825 : 	DecreaseDur -= (DecreaseDur * m_BonusDurability)/100;

  00072	0f b6 8f cd 00
	00 00		 movzx	 ecx, BYTE PTR [edi+205]
  00079	8b f0		 mov	 esi, eax
  0007b	b8 1f 85 eb 51	 mov	 eax, 1374389535		; 51eb851fH
  00080	0f af ce	 imul	 ecx, esi
  00083	f7 e9		 imul	 ecx

; 3826 : 
; 3827 : 	m_DurabilitySmall += DecreaseDur;
; 3828 : 
; 3829 : 	int DurCheck = 564;
; 3830 : 
; 3831 : 	if ( gObj[aIndex].m_MPSkillOpt.MpsDownDur1 > 0.0f )

  00085	69 4d 0c 40 27
	00 00		 imul	 ecx, DWORD PTR _aIndex$[ebp], 10048
  0008c	c1 fa 05	 sar	 edx, 5
  0008f	8b c2		 mov	 eax, edx
  00091	c1 e8 1f	 shr	 eax, 31			; 0000001fH
  00094	03 c2		 add	 eax, edx
  00096	ba 34 02 00 00	 mov	 edx, 564		; 00000234H
  0009b	2b f0		 sub	 esi, eax
  0009d	66 01 77 28	 add	 WORD PTR [edi+40], si
  000a1	a1 00 00 00 00	 mov	 eax, DWORD PTR ?gObj@@3PAUOBJECTSTRUCT@@A ; gObj
  000a6	66 8b 77 28	 mov	 si, WORD PTR [edi+40]
  000aa	f3 0f 10 8c 01
	c8 06 00 00	 movss	 xmm1, DWORD PTR [ecx+eax+1736]
  000b3	0f 2f ca	 comiss	 xmm1, xmm2
  000b6	76 1c		 jbe	 SHORT $LN5@NormalWeap

; 3832 : 	{
; 3833 : 		DurCheck += DurCheck*gObj[aIndex].m_MPSkillOpt.MpsDownDur1/100.0f;

  000b8	f3 0f 59 0d 00
	00 00 00	 mulss	 xmm1, DWORD PTR __real@440d0000
  000c0	f3 0f 5e 0d 00
	00 00 00	 divss	 xmm1, DWORD PTR __real@42c80000
  000c8	f3 0f 58 0d 00
	00 00 00	 addss	 xmm1, DWORD PTR __real@440d0000
  000d0	f3 0f 2c d1	 cvttss2si edx, xmm1
$LN5@NormalWeap:

; 3834 : 	}
; 3835 : 
; 3836 : 	if ( m_DurabilitySmall > DurCheck )

  000d4	0f b7 c6	 movzx	 eax, si
  000d7	3b c2		 cmp	 eax, edx
  000d9	0f 8e 6e ff ff
	ff		 jle	 $LN6@NormalWeap

; 3837 : 	{
; 3838 : 		m_DurabilitySmall = 0;
; 3839 : 		m_Durability -= 1.0f;

  000df	f3 0f 10 45 f8	 movss	 xmm0, DWORD PTR tv200[ebp]
  000e4	33 c0		 xor	 eax, eax
  000e6	f3 0f 5c 05 00
	00 00 00	 subss	 xmm0, DWORD PTR __real@3f800000
  000ee	66 89 47 28	 mov	 WORD PTR [edi+40], ax

; 3840 : 
; 3841 : 		if ( m_Durability < 0.0f )

  000f2	0f 2f d0	 comiss	 xmm2, xmm0
  000f5	f3 0f 11 47 24	 movss	 DWORD PTR [edi+36], xmm0
  000fa	76 03		 jbe	 SHORT $LN7@NormalWeap

; 3842 : 		{
; 3843 : 			m_Durability = 0;

  000fc	89 47 24	 mov	 DWORD PTR [edi+36], eax
$LN7@NormalWeap:

; 3844 : 		}
; 3845 : 
; 3846 : 		if ( CheckDurabilityState() != 0 )

  000ff	8b cf		 mov	 ecx, edi
  00101	e8 00 00 00 00	 call	 ?CheckDurabilityState@CItem@@QAEHXZ ; CItem::CheckDurabilityState
  00106	f7 d8		 neg	 eax
  00108	5e		 pop	 esi
  00109	1b c0		 sbb	 eax, eax
  0010b	f7 d8		 neg	 eax
  0010d	40		 inc	 eax
  0010e	5f		 pop	 edi

; 3855 : }

  0010f	8b e5		 mov	 esp, ebp
  00111	5d		 pop	 ebp
  00112	c2 08 00	 ret	 8
?NormalWeaponDurabilityDown@CItem@@QAEHHH@Z ENDP	; CItem::NormalWeaponDurabilityDown
_TEXT	ENDS
; Function compile flags: /Ogtp
; File c:\users\michel\desktop\source\gameserver\common\zzzitem.cpp
;	COMDAT ?DurabilityDown2@CItem@@QAEHHH@Z
_TEXT	SEGMENT
_dur$ = 8						; size = 4
_iIndex$ = 12						; size = 4
?DurabilityDown2@CItem@@QAEHHH@Z PROC			; CItem::DurabilityDown2, COMDAT
; _this$ = ecx

; 3762 : {

  00000	55		 push	 ebp
  00001	8b ec		 mov	 ebp, esp
  00003	8b d1		 mov	 edx, ecx
  00005	0f 57 db	 xorps	 xmm3, xmm3

; 3763 : 	if ( m_Durability <= 0 )

  00008	f3 0f 10 52 24	 movss	 xmm2, DWORD PTR [edx+36]
  0000d	0f 2f da	 comiss	 xmm3, xmm2
  00010	73 7f		 jae	 SHORT $LN4@Durability

; 3764 : 	{
; 3765 : 		return 0;
; 3766 : 	}
; 3767 : 
; 3768 : 	m_DurabilitySmall += dur;
; 3769 : 	int DurCheck = 1000;
; 3770 : 
; 3771 : 	if( gObj[iIndex].m_MPSkillOpt.MpsDownDur1 > 0.0f )

  00012	69 4d 0c 40 27
	00 00		 imul	 ecx, DWORD PTR _iIndex$[ebp], 10048
  00019	66 8b 45 08	 mov	 ax, WORD PTR _dur$[ebp]
  0001d	66 01 42 28	 add	 WORD PTR [edx+40], ax
  00021	a1 00 00 00 00	 mov	 eax, DWORD PTR ?gObj@@3PAUOBJECTSTRUCT@@A ; gObj
  00026	56		 push	 esi
  00027	57		 push	 edi
  00028	66 8b 7a 28	 mov	 di, WORD PTR [edx+40]
  0002c	be e8 03 00 00	 mov	 esi, 1000		; 000003e8H
  00031	f3 0f 10 8c 01
	c8 06 00 00	 movss	 xmm1, DWORD PTR [ecx+eax+1736]
  0003a	0f 2f cb	 comiss	 xmm1, xmm3
  0003d	76 1c		 jbe	 SHORT $LN3@Durability

; 3772 : 	{
; 3773 : 		DurCheck += DurCheck*gObj[iIndex].m_MPSkillOpt.MpsDownDur1/100.0f;

  0003f	f3 0f 59 0d 00
	00 00 00	 mulss	 xmm1, DWORD PTR __real@447a0000
  00047	f3 0f 5e 0d 00
	00 00 00	 divss	 xmm1, DWORD PTR __real@42c80000
  0004f	f3 0f 58 0d 00
	00 00 00	 addss	 xmm1, DWORD PTR __real@447a0000
  00057	f3 0f 2c f1	 cvttss2si esi, xmm1
$LN3@Durability:

; 3774 : 	}
; 3775 : 	
; 3776 : 	if ( m_DurabilitySmall > DurCheck )

  0005b	0f b7 c7	 movzx	 eax, di
  0005e	5f		 pop	 edi
  0005f	3b c6		 cmp	 eax, esi
  00061	5e		 pop	 esi
  00062	7e 2d		 jle	 SHORT $LN4@Durability

; 3777 : 	{
; 3778 : 		m_DurabilitySmall = 0;
; 3779 : 		m_Durability -= 1.0f;

  00064	f3 0f 5c 15 00
	00 00 00	 subss	 xmm2, DWORD PTR __real@3f800000
  0006c	33 c0		 xor	 eax, eax
  0006e	66 89 42 28	 mov	 WORD PTR [edx+40], ax

; 3780 : 
; 3781 : 		if ( m_Durability < 0.0f )

  00072	0f 2f da	 comiss	 xmm3, xmm2
  00075	f3 0f 11 52 24	 movss	 DWORD PTR [edx+36], xmm2
  0007a	76 03		 jbe	 SHORT $LN5@Durability

; 3782 : 		{
; 3783 : 			m_Durability = 0;

  0007c	89 42 24	 mov	 DWORD PTR [edx+36], eax
$LN5@Durability:

; 3784 : 		}
; 3785 : 
; 3786 : 		if ( CheckDurabilityState() != FALSE )

  0007f	8b ca		 mov	 ecx, edx
  00081	e8 00 00 00 00	 call	 ?CheckDurabilityState@CItem@@QAEHXZ ; CItem::CheckDurabilityState
  00086	f7 d8		 neg	 eax
  00088	1b c0		 sbb	 eax, eax
  0008a	f7 d8		 neg	 eax
  0008c	40		 inc	 eax

; 3794 : }

  0008d	5d		 pop	 ebp
  0008e	c2 08 00	 ret	 8
$LN4@Durability:

; 3787 : 		{
; 3788 : 			return 2;
; 3789 : 		}
; 3790 : 		return 1;
; 3791 : 	}
; 3792 : 	
; 3793 : 	return 0;

  00091	33 c0		 xor	 eax, eax

; 3794 : }

  00093	5d		 pop	 ebp
  00094	c2 08 00	 ret	 8
?DurabilityDown2@CItem@@QAEHHH@Z ENDP			; CItem::DurabilityDown2
_TEXT	ENDS
; Function compile flags: /Ogtp
; File c:\users\michel\desktop\source\gameserver\common\zzzitem.cpp
;	COMDAT ?DurabilityDown@CItem@@QAEHHH@Z
_TEXT	SEGMENT
_dur$ = 8						; size = 4
_iIndex$ = 12						; size = 4
?DurabilityDown@CItem@@QAEHHH@Z PROC			; CItem::DurabilityDown, COMDAT
; _this$ = ecx

; 3724 : {

  00000	55		 push	 ebp
  00001	8b ec		 mov	 ebp, esp
  00003	8b d1		 mov	 edx, ecx
  00005	0f 57 db	 xorps	 xmm3, xmm3

; 3725 : 	if ( m_Durability <= 0 )

  00008	f3 0f 10 4a 24	 movss	 xmm1, DWORD PTR [edx+36]
  0000d	0f 2f d9	 comiss	 xmm3, xmm1
  00010	72 06		 jb	 SHORT $LN2@Durability

; 3726 : 	{
; 3727 : 		return 0;

  00012	33 c0		 xor	 eax, eax

; 3756 : }

  00014	5d		 pop	 ebp
  00015	c2 08 00	 ret	 8
$LN2@Durability:

; 3728 : 	}
; 3729 : 
; 3730 : 	m_DurabilitySmall += dur;
; 3731 : 	int DurCheck = 564;
; 3732 : 
; 3733 : 	if ( gObj[iIndex].m_MPSkillOpt.MpsDownDur2 > 0.0f )

  00018	69 4d 0c 40 27
	00 00		 imul	 ecx, DWORD PTR _iIndex$[ebp], 10048
  0001f	66 8b 45 08	 mov	 ax, WORD PTR _dur$[ebp]
  00023	66 01 42 28	 add	 WORD PTR [edx+40], ax
  00027	a1 00 00 00 00	 mov	 eax, DWORD PTR ?gObj@@3PAUOBJECTSTRUCT@@A ; gObj
  0002c	56		 push	 esi
  0002d	57		 push	 edi
  0002e	66 8b 7a 28	 mov	 di, WORD PTR [edx+40]
  00032	be 34 02 00 00	 mov	 esi, 564		; 00000234H
  00037	f3 0f 10 94 01
	d0 06 00 00	 movss	 xmm2, DWORD PTR [ecx+eax+1744]
  00040	0f 2f d3	 comiss	 xmm2, xmm3
  00043	76 1c		 jbe	 SHORT $LN3@Durability

; 3734 : 	{
; 3735 : 		DurCheck += DurCheck*gObj[iIndex].m_MPSkillOpt.MpsDownDur2/100.0f;

  00045	f3 0f 59 15 00
	00 00 00	 mulss	 xmm2, DWORD PTR __real@440d0000
  0004d	f3 0f 5e 15 00
	00 00 00	 divss	 xmm2, DWORD PTR __real@42c80000
  00055	f3 0f 58 15 00
	00 00 00	 addss	 xmm2, DWORD PTR __real@440d0000
  0005d	f3 0f 2c f2	 cvttss2si esi, xmm2
$LN3@Durability:

; 3736 : 	}
; 3737 : 	
; 3738 : 	if ( m_DurabilitySmall > DurCheck )

  00061	0f b7 c7	 movzx	 eax, di
  00064	5f		 pop	 edi
  00065	3b c6		 cmp	 eax, esi
  00067	5e		 pop	 esi
  00068	7e 2d		 jle	 SHORT $LN4@Durability

; 3739 : 	{
; 3740 : 		m_DurabilitySmall = 0;
; 3741 : 		m_Durability -= 1.0f;

  0006a	f3 0f 5c 0d 00
	00 00 00	 subss	 xmm1, DWORD PTR __real@3f800000
  00072	33 c0		 xor	 eax, eax
  00074	66 89 42 28	 mov	 WORD PTR [edx+40], ax

; 3742 : 
; 3743 : 		if ( this ->m_Durability < 0.0f )

  00078	0f 2f d9	 comiss	 xmm3, xmm1
  0007b	f3 0f 11 4a 24	 movss	 DWORD PTR [edx+36], xmm1
  00080	76 03		 jbe	 SHORT $LN5@Durability

; 3744 : 		{
; 3745 : 			m_Durability = 0;

  00082	89 42 24	 mov	 DWORD PTR [edx+36], eax
$LN5@Durability:

; 3746 : 		}
; 3747 : 
; 3748 : 		if ( CheckDurabilityState() != FALSE )

  00085	8b ca		 mov	 ecx, edx
  00087	e8 00 00 00 00	 call	 ?CheckDurabilityState@CItem@@QAEHXZ ; CItem::CheckDurabilityState
  0008c	f7 d8		 neg	 eax
  0008e	1b c0		 sbb	 eax, eax
  00090	f7 d8		 neg	 eax
  00092	40		 inc	 eax

; 3756 : }

  00093	5d		 pop	 ebp
  00094	c2 08 00	 ret	 8
$LN4@Durability:

; 3749 : 		{
; 3750 : 			return 2;
; 3751 : 		}
; 3752 : 		return 1;
; 3753 : 	}
; 3754 : 	
; 3755 : 	return m_Durability;

  00097	f3 0f 2c c1	 cvttss2si eax, xmm1

; 3756 : }

  0009b	5d		 pop	 ebp
  0009c	c2 08 00	 ret	 8
?DurabilityDown@CItem@@QAEHHH@Z ENDP			; CItem::DurabilityDown
_TEXT	ENDS
; Function compile flags: /Ogtp
; File c:\users\michel\desktop\source\gameserver\common\zzzitem.cpp
;	COMDAT ?SimpleDurabilityDown@CItem@@QAEHH@Z
_TEXT	SEGMENT
_iDecValue$ = 8						; size = 4
?SimpleDurabilityDown@CItem@@QAEHH@Z PROC		; CItem::SimpleDurabilityDown, COMDAT
; _this$ = ecx

; 3705 : {

  00000	56		 push	 esi
  00001	8b f1		 mov	 esi, ecx
  00003	0f 57 c0	 xorps	 xmm0, xmm0

; 3706 : 	m_Durability -= 1.0f ;

  00006	f3 0f 10 4e 24	 movss	 xmm1, DWORD PTR [esi+36]
  0000b	f3 0f 5c 0d 00
	00 00 00	 subss	 xmm1, DWORD PTR __real@3f800000

; 3707 : 
; 3708 : 	if ( m_Durability < 0 )

  00013	0f 2f c1	 comiss	 xmm0, xmm1
  00016	f3 0f 11 4e 24	 movss	 DWORD PTR [esi+36], xmm1
  0001b	76 0d		 jbe	 SHORT $LN2@SimpleDura

; 3709 : 	{
; 3710 : 		m_Durability = 0.0f;

  0001d	c7 46 24 00 00
	00 00		 mov	 DWORD PTR [esi+36], 0

; 3711 : 		return 0;

  00024	33 c0		 xor	 eax, eax
  00026	5e		 pop	 esi

; 3720 : }

  00027	c2 04 00	 ret	 4
$LN2@SimpleDura:

; 3712 : 	}
; 3713 : 
; 3714 : 	if ( CheckDurabilityState() != 0 )

  0002a	e8 00 00 00 00	 call	 ?CheckDurabilityState@CItem@@QAEHXZ ; CItem::CheckDurabilityState
  0002f	85 c0		 test	 eax, eax

; 3715 : 	{
; 3716 : 		return 2;

  00031	b8 02 00 00 00	 mov	 eax, 2
  00036	75 05		 jne	 SHORT $LN1@SimpleDura

; 3717 : 	}
; 3718 : 
; 3719 : 	return m_Durability;

  00038	f3 0f 2c 46 24	 cvttss2si eax, DWORD PTR [esi+36]
$LN1@SimpleDura:
  0003d	5e		 pop	 esi

; 3720 : }

  0003e	c2 04 00	 ret	 4
?SimpleDurabilityDown@CItem@@QAEHH@Z ENDP		; CItem::SimpleDurabilityDown
_TEXT	ENDS
; Function compile flags: /Ogtp
; File c:\users\michel\desktop\source\gameserver\common\zzzitem.cpp
;	COMDAT ?IsFenrirSpecial@CItem@@QAEHXZ
_TEXT	SEGMENT
?IsFenrirSpecial@CItem@@QAEHXZ PROC			; CItem::IsFenrirSpecial, COMDAT
; _this$ = ecx

; 3657 : 	if ( m_Durability < 1.0f )

  00000	f3 0f 10 05 00
	00 00 00	 movss	 xmm0, DWORD PTR __real@3f800000
  00008	0f 2f 41 24	 comiss	 xmm0, DWORD PTR [ecx+36]
  0000c	76 03		 jbe	 SHORT $LN2@IsFenrirSp

; 3658 : 	{
; 3659 : 		return 0;

  0000e	33 c0		 xor	 eax, eax

; 3663 : 	{
; 3664 : 		return 1;
; 3665 : 	}
; 3666 : 
; 3667 : 	return 0;
; 3668 : }

  00010	c3		 ret	 0
$LN2@IsFenrirSp:

; 3660 : 	}
; 3661 : 
; 3662 : 	if ( (m_NewOption&4) == 4 )

  00011	0f b6 81 93 00
	00 00		 movzx	 eax, BYTE PTR [ecx+147]
  00018	c1 e8 02	 shr	 eax, 2
  0001b	83 e0 01	 and	 eax, 1

; 3663 : 	{
; 3664 : 		return 1;
; 3665 : 	}
; 3666 : 
; 3667 : 	return 0;
; 3668 : }

  0001e	c3		 ret	 0
?IsFenrirSpecial@CItem@@QAEHXZ ENDP			; CItem::IsFenrirSpecial
_TEXT	ENDS
; Function compile flags: /Ogtp
; File c:\users\michel\desktop\source\gameserver\common\zzzitem.cpp
;	COMDAT ?IsFenrirDecLastAttackDamage@CItem@@QAEHXZ
_TEXT	SEGMENT
?IsFenrirDecLastAttackDamage@CItem@@QAEHXZ PROC		; CItem::IsFenrirDecLastAttackDamage, COMDAT
; _this$ = ecx

; 3642 : 	if ( m_Durability < 1.0f )

  00000	f3 0f 10 05 00
	00 00 00	 movss	 xmm0, DWORD PTR __real@3f800000
  00008	0f 2f 41 24	 comiss	 xmm0, DWORD PTR [ecx+36]
  0000c	76 03		 jbe	 SHORT $LN2@IsFenrirDe

; 3643 : 	{
; 3644 : 		return 0;

  0000e	33 c0		 xor	 eax, eax

; 3648 : 	{
; 3649 : 		return 10;
; 3650 : 	}
; 3651 : 
; 3652 : 	return 0;
; 3653 : }

  00010	c3		 ret	 0
$LN2@IsFenrirDe:

; 3645 : 	}
; 3646 : 
; 3647 : 	if ( (m_NewOption&2) == 2 )

  00011	8a 81 93 00 00
	00		 mov	 al, BYTE PTR [ecx+147]
  00017	24 02		 and	 al, 2
  00019	0f b6 c0	 movzx	 eax, al
  0001c	f7 d8		 neg	 eax
  0001e	1b c0		 sbb	 eax, eax
  00020	83 e0 0a	 and	 eax, 10			; 0000000aH

; 3648 : 	{
; 3649 : 		return 10;
; 3650 : 	}
; 3651 : 
; 3652 : 	return 0;
; 3653 : }

  00023	c3		 ret	 0
?IsFenrirDecLastAttackDamage@CItem@@QAEHXZ ENDP		; CItem::IsFenrirDecLastAttackDamage
_TEXT	ENDS
; Function compile flags: /Ogtp
; File c:\users\michel\desktop\source\gameserver\common\zzzitem.cpp
;	COMDAT ?IsFenrirIncLastAttackDamage@CItem@@QAEHXZ
_TEXT	SEGMENT
?IsFenrirIncLastAttackDamage@CItem@@QAEHXZ PROC		; CItem::IsFenrirIncLastAttackDamage, COMDAT
; _this$ = ecx

; 3627 : 	if ( m_Durability < 1.0f )

  00000	f3 0f 10 05 00
	00 00 00	 movss	 xmm0, DWORD PTR __real@3f800000
  00008	0f 2f 41 24	 comiss	 xmm0, DWORD PTR [ecx+36]
  0000c	76 03		 jbe	 SHORT $LN2@IsFenrirIn

; 3628 : 	{
; 3629 : 		return 0;

  0000e	33 c0		 xor	 eax, eax

; 3633 : 	{
; 3634 : 		return 10;
; 3635 : 	}
; 3636 : 
; 3637 : 	return 0;
; 3638 : }

  00010	c3		 ret	 0
$LN2@IsFenrirIn:

; 3630 : 	}
; 3631 : 
; 3632 : 	if ( (m_NewOption&1) == 1 )

  00011	8a 81 93 00 00
	00		 mov	 al, BYTE PTR [ecx+147]
  00017	24 01		 and	 al, 1
  00019	0f b6 c0	 movzx	 eax, al
  0001c	f7 d8		 neg	 eax
  0001e	1b c0		 sbb	 eax, eax
  00020	83 e0 0a	 and	 eax, 10			; 0000000aH

; 3633 : 	{
; 3634 : 		return 10;
; 3635 : 	}
; 3636 : 
; 3637 : 	return 0;
; 3638 : }

  00023	c3		 ret	 0
?IsFenrirIncLastAttackDamage@CItem@@QAEHXZ ENDP		; CItem::IsFenrirIncLastAttackDamage
_TEXT	ENDS
; Function compile flags: /Ogtp
; File c:\users\michel\desktop\source\gameserver\common\zzzitem.cpp
;	COMDAT ?IsDinorantReduceAttackDamaege@CItem@@QAEHXZ
_TEXT	SEGMENT
?IsDinorantReduceAttackDamaege@CItem@@QAEHXZ PROC	; CItem::IsDinorantReduceAttackDamaege, COMDAT
; _this$ = ecx

; 3612 : 	if ( m_Durability  < 1.0f )

  00000	f3 0f 10 05 00
	00 00 00	 movss	 xmm0, DWORD PTR __real@3f800000
  00008	0f 2f 41 24	 comiss	 xmm0, DWORD PTR [ecx+36]
  0000c	76 03		 jbe	 SHORT $LN2@IsDinorant

; 3613 : 	{
; 3614 : 		return 0;

  0000e	33 c0		 xor	 eax, eax

; 3618 : 	{
; 3619 : 		return 5;
; 3620 : 	}
; 3621 : 	return 0;
; 3622 : }

  00010	c3		 ret	 0
$LN2@IsDinorant:

; 3615 : 	}
; 3616 : 
; 3617 : 	if ( (m_NewOption & 1 ) == 1 )

  00011	8a 81 93 00 00
	00		 mov	 al, BYTE PTR [ecx+147]
  00017	24 01		 and	 al, 1
  00019	0f b6 c0	 movzx	 eax, al
  0001c	f7 d8		 neg	 eax
  0001e	1b c0		 sbb	 eax, eax
  00020	83 e0 05	 and	 eax, 5

; 3618 : 	{
; 3619 : 		return 5;
; 3620 : 	}
; 3621 : 	return 0;
; 3622 : }

  00023	c3		 ret	 0
?IsDinorantReduceAttackDamaege@CItem@@QAEHXZ ENDP	; CItem::IsDinorantReduceAttackDamaege
_TEXT	ENDS
; Function compile flags: /Ogtp
; File c:\users\michel\desktop\source\gameserver\common\zzzitem.cpp
;	COMDAT ?IsWingOpGetManaToMoster@CItem@@QAEHXZ
_TEXT	SEGMENT
?IsWingOpGetManaToMoster@CItem@@QAEHXZ PROC		; CItem::IsWingOpGetManaToMoster, COMDAT
; _this$ = ecx

; 3595 : 	if ( m_Durability < 1.0f )

  00000	f3 0f 10 05 00
	00 00 00	 movss	 xmm0, DWORD PTR __real@3f800000
  00008	0f 2f 41 24	 comiss	 xmm0, DWORD PTR [ecx+36]
  0000c	77 3e		 ja	 SHORT $LN6@IsWingOpGe

; 3596 : 	{
; 3597 : 		return 0;
; 3598 : 	}
; 3599 : 
; 3600 : 	if( m_Type >= ITEMGET(12,3) && m_Type <= ITEMGET(12,6) || m_Type == ITEMGET(13,30) || m_Type == ITEMGET(12,42) )

  0000e	0f b7 41 06	 movzx	 eax, WORD PTR [ecx+6]
  00012	ba 03 18 00 00	 mov	 edx, 6147		; 00001803H
  00017	66 3b c2	 cmp	 ax, dx
  0001a	7c 0a		 jl	 SHORT $LN5@IsWingOpGe
  0001c	ba 06 18 00 00	 mov	 edx, 6150		; 00001806H
  00021	66 3b c2	 cmp	 ax, dx
  00024	7e 14		 jle	 SHORT $LN4@IsWingOpGe
$LN5@IsWingOpGe:
  00026	ba 1e 1a 00 00	 mov	 edx, 6686		; 00001a1eH
  0002b	66 3b c2	 cmp	 ax, dx
  0002e	74 0a		 je	 SHORT $LN4@IsWingOpGe
  00030	ba 2a 18 00 00	 mov	 edx, 6186		; 0000182aH
  00035	66 3b c2	 cmp	 ax, dx
  00038	75 12		 jne	 SHORT $LN6@IsWingOpGe
$LN4@IsWingOpGe:

; 3601 : 	{
; 3602 : 		if ( (m_NewOption & 16 ) == 1 )

  0003a	8a 81 93 00 00
	00		 mov	 al, BYTE PTR [ecx+147]
  00040	24 10		 and	 al, 16			; 00000010H
  00042	3c 01		 cmp	 al, 1
  00044	75 06		 jne	 SHORT $LN6@IsWingOpGe

; 3603 : 		{
; 3604 : 			return 10;

  00046	b8 0a 00 00 00	 mov	 eax, 10			; 0000000aH

; 3608 : }

  0004b	c3		 ret	 0
$LN6@IsWingOpGe:

; 3605 : 		}
; 3606 : 	}
; 3607 : 	return 0;

  0004c	33 c0		 xor	 eax, eax

; 3608 : }

  0004e	c3		 ret	 0
?IsWingOpGetManaToMoster@CItem@@QAEHXZ ENDP		; CItem::IsWingOpGetManaToMoster
_TEXT	ENDS
; Function compile flags: /Ogtp
; File c:\users\michel\desktop\source\gameserver\common\zzzitem.cpp
;	COMDAT ?Is3rdLevelWingMPRestore@CItem@@QAEHXZ
_TEXT	SEGMENT
?Is3rdLevelWingMPRestore@CItem@@QAEHXZ PROC		; CItem::Is3rdLevelWingMPRestore, COMDAT
; _this$ = ecx

; 5823 : 	if ( m_Type < ITEMGET(12,36) ||

  00000	0f b7 41 06	 movzx	 eax, WORD PTR [ecx+6]
  00004	ba 24 18 00 00	 mov	 edx, 6180		; 00001824H
  00009	66 3b c2	 cmp	 ax, dx
  0000c	7c 27		 jl	 SHORT $LN4@Is3rdLevel
  0000e	ba 28 18 00 00	 mov	 edx, 6184		; 00001828H
  00013	66 3b c2	 cmp	 ax, dx
  00016	7f 1d		 jg	 SHORT $LN4@Is3rdLevel

; 5824 : 		 m_Type > ITEMGET(12,40) )
; 5825 : 	{
; 5826 : 
; 5827 : 	}
; 5828 : 	else if ( m_Durability < 1.0f )

  00018	f3 0f 10 05 00
	00 00 00	 movss	 xmm0, DWORD PTR __real@3f800000
  00020	0f 2f 41 24	 comiss	 xmm0, DWORD PTR [ecx+36]
  00024	77 0f		 ja	 SHORT $LN4@Is3rdLevel

; 5829 : 	{
; 5830 : 
; 5831 : 	}
; 5832 : 	else if ( (m_NewOption & 8) == 8 ) return 5;

  00026	f6 81 93 00 00
	00 08		 test	 BYTE PTR [ecx+147], 8
  0002d	74 06		 je	 SHORT $LN4@Is3rdLevel
  0002f	b8 05 00 00 00	 mov	 eax, 5

; 5834 : }

  00034	c3		 ret	 0
$LN4@Is3rdLevel:

; 5833 : return 0;

  00035	33 c0		 xor	 eax, eax

; 5834 : }

  00037	c3		 ret	 0
?Is3rdLevelWingMPRestore@CItem@@QAEHXZ ENDP		; CItem::Is3rdLevelWingMPRestore
_TEXT	ENDS
; Function compile flags: /Ogtp
; File c:\users\michel\desktop\source\gameserver\common\zzzitem.cpp
;	COMDAT ?Is25LevelWingHPRestore@CItem@@QAEHXZ
_TEXT	SEGMENT
?Is25LevelWingHPRestore@CItem@@QAEHXZ PROC		; CItem::Is25LevelWingHPRestore, COMDAT
; _this$ = ecx

; 5808 : 	if ( m_Type < ITEMGET(12,262) ||

  00000	0f b7 41 06	 movzx	 eax, WORD PTR [ecx+6]
  00004	ba 06 19 00 00	 mov	 edx, 6406		; 00001906H
  00009	66 3b c2	 cmp	 ax, dx
  0000c	7c 27		 jl	 SHORT $LN4@Is25LevelW
  0000e	ba 09 19 00 00	 mov	 edx, 6409		; 00001909H
  00013	66 3b c2	 cmp	 ax, dx
  00016	7f 1d		 jg	 SHORT $LN4@Is25LevelW

; 5809 : 		 m_Type > ITEMGET(12,265) )
; 5810 : 	{
; 5811 : 
; 5812 : 	}
; 5813 : 	else if ( m_Durability < 1.0f )

  00018	f3 0f 10 05 00
	00 00 00	 movss	 xmm0, DWORD PTR __real@3f800000
  00020	0f 2f 41 24	 comiss	 xmm0, DWORD PTR [ecx+36]
  00024	77 0f		 ja	 SHORT $LN4@Is25LevelW

; 5814 : 	{
; 5815 : 
; 5816 : 	}
; 5817 : 	else if ( (m_NewOption & 2) == 2 ) return 5;

  00026	f6 81 93 00 00
	00 02		 test	 BYTE PTR [ecx+147], 2
  0002d	74 06		 je	 SHORT $LN4@Is25LevelW
  0002f	b8 05 00 00 00	 mov	 eax, 5

; 5819 : }

  00034	c3		 ret	 0
$LN4@Is25LevelW:

; 5818 : return 0;

  00035	33 c0		 xor	 eax, eax

; 5819 : }

  00037	c3		 ret	 0
?Is25LevelWingHPRestore@CItem@@QAEHXZ ENDP		; CItem::Is25LevelWingHPRestore
_TEXT	ENDS
; Function compile flags: /Ogtp
; File c:\users\michel\desktop\source\gameserver\common\zzzitem.cpp
;	COMDAT ?Is3rdLevelWingHPRestore@CItem@@QAEHXZ
_TEXT	SEGMENT
?Is3rdLevelWingHPRestore@CItem@@QAEHXZ PROC		; CItem::Is3rdLevelWingHPRestore, COMDAT
; _this$ = ecx

; 5793 : 	if ( m_Type < ITEMGET(12,36) ||

  00000	0f b7 41 06	 movzx	 eax, WORD PTR [ecx+6]
  00004	ba 24 18 00 00	 mov	 edx, 6180		; 00001824H
  00009	66 3b c2	 cmp	 ax, dx
  0000c	7c 27		 jl	 SHORT $LN4@Is3rdLevel
  0000e	ba 28 18 00 00	 mov	 edx, 6184		; 00001828H
  00013	66 3b c2	 cmp	 ax, dx
  00016	7f 1d		 jg	 SHORT $LN4@Is3rdLevel

; 5794 : 		 m_Type > ITEMGET(12,40) )
; 5795 : 	{
; 5796 : 
; 5797 : 	}
; 5798 : 	else if ( m_Durability < 1.0f )

  00018	f3 0f 10 05 00
	00 00 00	 movss	 xmm0, DWORD PTR __real@3f800000
  00020	0f 2f 41 24	 comiss	 xmm0, DWORD PTR [ecx+36]
  00024	77 0f		 ja	 SHORT $LN4@Is3rdLevel

; 5799 : 	{
; 5800 : 
; 5801 : 	}
; 5802 : 	else if ( (m_NewOption & 4) == 4 ) return 5;

  00026	f6 81 93 00 00
	00 04		 test	 BYTE PTR [ecx+147], 4
  0002d	74 06		 je	 SHORT $LN4@Is3rdLevel
  0002f	b8 05 00 00 00	 mov	 eax, 5

; 5804 : }

  00034	c3		 ret	 0
$LN4@Is3rdLevel:

; 5803 : return 0;

  00035	33 c0		 xor	 eax, eax

; 5804 : }

  00037	c3		 ret	 0
?Is3rdLevelWingHPRestore@CItem@@QAEHXZ ENDP		; CItem::Is3rdLevelWingHPRestore
_TEXT	ENDS
; Function compile flags: /Ogtp
; File c:\users\michel\desktop\source\gameserver\common\zzzitem.cpp
;	COMDAT ?Is3rdLevelWingReflect@CItem@@QAEHXZ
_TEXT	SEGMENT
?Is3rdLevelWingReflect@CItem@@QAEHXZ PROC		; CItem::Is3rdLevelWingReflect, COMDAT
; _this$ = ecx

; 5778 : 	if ( m_Type < ITEMGET(12,36) ||

  00000	0f b7 41 06	 movzx	 eax, WORD PTR [ecx+6]
  00004	ba 24 18 00 00	 mov	 edx, 6180		; 00001824H
  00009	66 3b c2	 cmp	 ax, dx
  0000c	7c 27		 jl	 SHORT $LN4@Is3rdLevel
  0000e	ba 28 18 00 00	 mov	 edx, 6184		; 00001828H
  00013	66 3b c2	 cmp	 ax, dx
  00016	7f 1d		 jg	 SHORT $LN4@Is3rdLevel

; 5779 : 		 m_Type > ITEMGET(12,40) )
; 5780 : 	{
; 5781 : 
; 5782 : 	}
; 5783 : 	else if ( m_Durability < 1.0f )

  00018	f3 0f 10 05 00
	00 00 00	 movss	 xmm0, DWORD PTR __real@3f800000
  00020	0f 2f 41 24	 comiss	 xmm0, DWORD PTR [ecx+36]
  00024	77 0f		 ja	 SHORT $LN4@Is3rdLevel

; 5784 : 	{
; 5785 : 
; 5786 : 	}
; 5787 : 	else if ( (m_NewOption & 2) == 2 ) return 5;

  00026	f6 81 93 00 00
	00 02		 test	 BYTE PTR [ecx+147], 2
  0002d	74 06		 je	 SHORT $LN4@Is3rdLevel
  0002f	b8 05 00 00 00	 mov	 eax, 5

; 5789 : }

  00034	c3		 ret	 0
$LN4@Is3rdLevel:

; 5788 : return 0;

  00035	33 c0		 xor	 eax, eax

; 5789 : }

  00037	c3		 ret	 0
?Is3rdLevelWingReflect@CItem@@QAEHXZ ENDP		; CItem::Is3rdLevelWingReflect
_TEXT	ENDS
; Function compile flags: /Ogtp
; File c:\users\michel\desktop\source\gameserver\common\zzzitem.cpp
;	COMDAT ?Is25WingOpGetOnePercentDamage@CItem@@QAEHXZ
_TEXT	SEGMENT
?Is25WingOpGetOnePercentDamage@CItem@@QAEHXZ PROC	; CItem::Is25WingOpGetOnePercentDamage, COMDAT
; _this$ = ecx

; 3689 : 	if( m_Type >= ITEMGET(12,262) && m_Type <= ITEMGET(12,265) )

  00000	0f b7 41 06	 movzx	 eax, WORD PTR [ecx+6]
  00004	ba 06 19 00 00	 mov	 edx, 6406		; 00001906H
  00009	66 3b c2	 cmp	 ax, dx
  0000c	7c 27		 jl	 SHORT $LN4@Is25WingOp
  0000e	ba 09 19 00 00	 mov	 edx, 6409		; 00001909H
  00013	66 3b c2	 cmp	 ax, dx
  00016	7f 1d		 jg	 SHORT $LN4@Is25WingOp

; 3690 : 	{
; 3691 : 		if( m_Durability < 1.0f )

  00018	f3 0f 10 05 00
	00 00 00	 movss	 xmm0, DWORD PTR __real@3f800000
  00020	0f 2f 41 24	 comiss	 xmm0, DWORD PTR [ecx+36]
  00024	77 0f		 ja	 SHORT $LN4@Is25WingOp

; 3692 : 		{
; 3693 : 			return 0;
; 3694 : 		}
; 3695 : 
; 3696 : 		if( (m_NewOption & 1) == 1 )

  00026	f6 81 93 00 00
	00 01		 test	 BYTE PTR [ecx+147], 1
  0002d	74 06		 je	 SHORT $LN4@Is25WingOp

; 3697 : 		{
; 3698 : 			return 3;

  0002f	b8 03 00 00 00	 mov	 eax, 3

; 3702 : }

  00034	c3		 ret	 0
$LN4@Is25WingOp:

; 3699 : 		}
; 3700 : 	}
; 3701 : return 0;

  00035	33 c0		 xor	 eax, eax

; 3702 : }

  00037	c3		 ret	 0
?Is25WingOpGetOnePercentDamage@CItem@@QAEHXZ ENDP	; CItem::Is25WingOpGetOnePercentDamage
_TEXT	ENDS
; Function compile flags: /Ogtp
; File c:\users\michel\desktop\source\gameserver\common\zzzitem.cpp
;	COMDAT ?Is3rdWingOpGetOnePercentDamage@CItem@@QAEHXZ
_TEXT	SEGMENT
?Is3rdWingOpGetOnePercentDamage@CItem@@QAEHXZ PROC	; CItem::Is3rdWingOpGetOnePercentDamage, COMDAT
; _this$ = ecx

; 3672 : 	if( (m_Type >= ITEMGET(12,36) && m_Type <= ITEMGET(12,40)) || m_Type == ITEMGET(12,43) )

  00000	0f b7 41 06	 movzx	 eax, WORD PTR [ecx+6]
  00004	ba 24 18 00 00	 mov	 edx, 6180		; 00001824H
  00009	66 3b c2	 cmp	 ax, dx
  0000c	7c 0a		 jl	 SHORT $LN4@Is3rdWingO
  0000e	ba 28 18 00 00	 mov	 edx, 6184		; 00001828H
  00013	66 3b c2	 cmp	 ax, dx
  00016	7e 0a		 jle	 SHORT $LN3@Is3rdWingO
$LN4@Is3rdWingO:
  00018	ba 2b 18 00 00	 mov	 edx, 6187		; 0000182bH
  0001d	66 3b c2	 cmp	 ax, dx
  00020	75 1d		 jne	 SHORT $LN6@Is3rdWingO
$LN3@Is3rdWingO:

; 3673 : 	{
; 3674 : 		if( m_Durability < 1.0f )

  00022	f3 0f 10 05 00
	00 00 00	 movss	 xmm0, DWORD PTR __real@3f800000
  0002a	0f 2f 41 24	 comiss	 xmm0, DWORD PTR [ecx+36]
  0002e	77 0f		 ja	 SHORT $LN6@Is3rdWingO

; 3675 : 		{
; 3676 : 			return 0;
; 3677 : 		}
; 3678 : 
; 3679 : 		if( (m_NewOption & 1) == 1 )

  00030	f6 81 93 00 00
	00 01		 test	 BYTE PTR [ecx+147], 1
  00037	74 06		 je	 SHORT $LN6@Is3rdWingO

; 3680 : 		{
; 3681 : 			return 5;

  00039	b8 05 00 00 00	 mov	 eax, 5

; 3685 : }

  0003e	c3		 ret	 0
$LN6@Is3rdWingO:

; 3682 : 		}
; 3683 : 	}
; 3684 : return 0;

  0003f	33 c0		 xor	 eax, eax

; 3685 : }

  00041	c3		 ret	 0
?Is3rdWingOpGetOnePercentDamage@CItem@@QAEHXZ ENDP	; CItem::Is3rdWingOpGetOnePercentDamage
_TEXT	ENDS
; Function compile flags: /Ogtp
; File c:\users\michel\desktop\source\gameserver\common\zzzitem.cpp
;	COMDAT ?IsWingOpGetOnePercentDamage@CItem@@QAEHXZ
_TEXT	SEGMENT
?IsWingOpGetOnePercentDamage@CItem@@QAEHXZ PROC		; CItem::IsWingOpGetOnePercentDamage, COMDAT
; _this$ = ecx

; 3578 : 	if ( m_Durability  < 1.0f )

  00000	f3 0f 10 05 00
	00 00 00	 movss	 xmm0, DWORD PTR __real@3f800000
  00008	0f 2f 41 24	 comiss	 xmm0, DWORD PTR [ecx+36]
  0000c	77 45		 ja	 SHORT $LN6@IsWingOpGe

; 3579 : 	{
; 3580 : 		return 0;
; 3581 : 	}
; 3582 : 	
; 3583 : 	if( m_Type >= ITEMGET(12,3) && m_Type <= ITEMGET(12,6) || m_Type == ITEMGET(13,30) || m_Type == ITEMGET(12,42) || m_Type == ITEMGET(12,49) )

  0000e	0f b7 41 06	 movzx	 eax, WORD PTR [ecx+6]
  00012	ba 03 18 00 00	 mov	 edx, 6147		; 00001803H
  00017	66 3b c2	 cmp	 ax, dx
  0001a	7c 0a		 jl	 SHORT $LN5@IsWingOpGe
  0001c	ba 06 18 00 00	 mov	 edx, 6150		; 00001806H
  00021	66 3b c2	 cmp	 ax, dx
  00024	7e 1e		 jle	 SHORT $LN4@IsWingOpGe
$LN5@IsWingOpGe:
  00026	ba 1e 1a 00 00	 mov	 edx, 6686		; 00001a1eH
  0002b	66 3b c2	 cmp	 ax, dx
  0002e	74 14		 je	 SHORT $LN4@IsWingOpGe
  00030	ba 2a 18 00 00	 mov	 edx, 6186		; 0000182aH
  00035	66 3b c2	 cmp	 ax, dx
  00038	74 0a		 je	 SHORT $LN4@IsWingOpGe
  0003a	ba 31 18 00 00	 mov	 edx, 6193		; 00001831H
  0003f	66 3b c2	 cmp	 ax, dx
  00042	75 0f		 jne	 SHORT $LN6@IsWingOpGe
$LN4@IsWingOpGe:

; 3584 : 	{
; 3585 : 		if ( (m_NewOption & 4)!= 0 )

  00044	f6 81 93 00 00
	00 04		 test	 BYTE PTR [ecx+147], 4
  0004b	74 06		 je	 SHORT $LN6@IsWingOpGe

; 3586 : 		{
; 3587 : 			return 3;

  0004d	b8 03 00 00 00	 mov	 eax, 3

; 3591 : }

  00052	c3		 ret	 0
$LN6@IsWingOpGe:

; 3588 : 		}
; 3589 : 	}
; 3590 : 	return 0;

  00053	33 c0		 xor	 eax, eax

; 3591 : }

  00055	c3		 ret	 0
?IsWingOpGetOnePercentDamage@CItem@@QAEHXZ ENDP		; CItem::IsWingOpGetOnePercentDamage
_TEXT	ENDS
; Function compile flags: /Ogtp
; File c:\users\michel\desktop\source\gameserver\common\zzzitem.cpp
;	COMDAT ?IsExtMonsterDieMana@CItem@@QAEHXZ
_TEXT	SEGMENT
?IsExtMonsterDieMana@CItem@@QAEHXZ PROC			; CItem::IsExtMonsterDieMana, COMDAT
; _this$ = ecx

; 3557 : 	if (m_Type >= ITEMGET(6, 0) && m_Type < ITEMGET(7, 0)) {

  00000	0f b7 41 06	 movzx	 eax, WORD PTR [ecx+6]
  00004	ba 00 0c 00 00	 mov	 edx, 3072		; 00000c00H
  00009	66 3b c2	 cmp	 ax, dx
  0000c	7c 0a		 jl	 SHORT $LN2@IsExtMonst
  0000e	ba 00 0e 00 00	 mov	 edx, 3584		; 00000e00H
  00013	66 3b c2	 cmp	 ax, dx
  00016	7c 22		 jl	 SHORT $LN5@IsExtMonst
$LN2@IsExtMonst:

; 3558 : 		return 0;
; 3559 : 	}
; 3560 : 
; 3561 : 	if ((m_NewOption & 1) == 1) {

  00018	f6 81 93 00 00
	00 01		 test	 BYTE PTR [ecx+147], 1
  0001f	74 19		 je	 SHORT $LN5@IsExtMonst

; 3562 : #if (ENABLETEST_ITEMEXCELLENTOPTION == 1)
; 3563 : 		int OptionValue = g_ItemExcellentOption.getOptionValue(m_Type, 5);

  00021	6a 05		 push	 5
  00023	50		 push	 eax
  00024	b9 00 00 00 00	 mov	 ecx, OFFSET ?g_ItemExcellentOption@@3VItemExcellentOption@@A ; g_ItemExcellentOption
  00029	e8 00 00 00 00	 call	 ?getOptionValue@ItemExcellentOption@@QAEHGE@Z ; ItemExcellentOption::getOptionValue

; 3564 : 		if (OptionValue == (int)-1) {

  0002e	83 f8 ff	 cmp	 eax, -1
  00031	b9 08 00 00 00	 mov	 ecx, 8
  00036	0f 44 c1	 cmove	 eax, ecx

; 3574 : }

  00039	c3		 ret	 0
$LN5@IsExtMonst:

; 3565 : 			return 8; // default value
; 3566 : 		} else {
; 3567 : 			return OptionValue;
; 3568 : 		}
; 3569 : #else
; 3570 : 		return 8;
; 3571 : #endif
; 3572 : 	}
; 3573 : 	return 0;

  0003a	33 c0		 xor	 eax, eax

; 3574 : }

  0003c	c3		 ret	 0
?IsExtMonsterDieMana@CItem@@QAEHXZ ENDP			; CItem::IsExtMonsterDieMana
_TEXT	ENDS
; Function compile flags: /Ogtp
; File c:\users\michel\desktop\source\gameserver\common\zzzitem.cpp
;	COMDAT ?IsExtMonsterDieLife@CItem@@QAEHXZ
_TEXT	SEGMENT
?IsExtMonsterDieLife@CItem@@QAEHXZ PROC			; CItem::IsExtMonsterDieLife, COMDAT
; _this$ = ecx

; 3541 : 	if ((m_NewOption & 2) == 2) {

  00000	f6 81 93 00 00
	00 02		 test	 BYTE PTR [ecx+147], 2
  00007	74 1d		 je	 SHORT $LN4@IsExtMonst

; 3542 : #if (ENABLETEST_ITEMEXCELLENTOPTION == 1)
; 3543 : 		int OptionValue = g_ItemExcellentOption.getOptionValue(m_Type, 4);

  00009	0f b7 41 06	 movzx	 eax, WORD PTR [ecx+6]
  0000d	b9 00 00 00 00	 mov	 ecx, OFFSET ?g_ItemExcellentOption@@3VItemExcellentOption@@A ; g_ItemExcellentOption
  00012	6a 04		 push	 4
  00014	50		 push	 eax
  00015	e8 00 00 00 00	 call	 ?getOptionValue@ItemExcellentOption@@QAEHGE@Z ; ItemExcellentOption::getOptionValue

; 3544 : 		if (OptionValue == (int)-1) {

  0001a	83 f8 ff	 cmp	 eax, -1
  0001d	b9 08 00 00 00	 mov	 ecx, 8
  00022	0f 44 c1	 cmove	 eax, ecx

; 3554 : }

  00025	c3		 ret	 0
$LN4@IsExtMonst:

; 3545 : 			return 8; // default value
; 3546 : 		} else {
; 3547 : 			return OptionValue;
; 3548 : 		}
; 3549 : #else
; 3550 : 		return 8;
; 3551 : #endif
; 3552 : 	}
; 3553 : 	return 0;

  00026	33 c0		 xor	 eax, eax

; 3554 : }

  00028	c3		 ret	 0
?IsExtMonsterDieLife@CItem@@QAEHXZ ENDP			; CItem::IsExtMonsterDieLife
_TEXT	ENDS
; Function compile flags: /Ogtp
; File c:\users\michel\desktop\source\gameserver\common\zzzitem.cpp
;	COMDAT ?IsExtAttackSpeed@CItem@@QAEHXZ
_TEXT	SEGMENT
?IsExtAttackSpeed@CItem@@QAEHXZ PROC			; CItem::IsExtAttackSpeed, COMDAT
; _this$ = ecx

; 3525 : 	if ((m_NewOption & 4) == 4) {

  00000	f6 81 93 00 00
	00 04		 test	 BYTE PTR [ecx+147], 4
  00007	74 1d		 je	 SHORT $LN4@IsExtAttac

; 3526 : #if (ENABLETEST_ITEMEXCELLENTOPTION == 1)
; 3527 : 		int OptionValue = g_ItemExcellentOption.getOptionValue(m_Type, 3);

  00009	0f b7 41 06	 movzx	 eax, WORD PTR [ecx+6]
  0000d	b9 00 00 00 00	 mov	 ecx, OFFSET ?g_ItemExcellentOption@@3VItemExcellentOption@@A ; g_ItemExcellentOption
  00012	6a 03		 push	 3
  00014	50		 push	 eax
  00015	e8 00 00 00 00	 call	 ?getOptionValue@ItemExcellentOption@@QAEHGE@Z ; ItemExcellentOption::getOptionValue

; 3528 : 		if (OptionValue == (int)-1) {

  0001a	83 f8 ff	 cmp	 eax, -1
  0001d	b9 07 00 00 00	 mov	 ecx, 7
  00022	0f 44 c1	 cmove	 eax, ecx

; 3538 : }

  00025	c3		 ret	 0
$LN4@IsExtAttac:

; 3529 : 			return 7; // default value
; 3530 : 		} else {
; 3531 : 			return OptionValue;
; 3532 : 		}
; 3533 : #else
; 3534 : 		return 7;
; 3535 : #endif
; 3536 : 	}
; 3537 : 	return 0;

  00026	33 c0		 xor	 eax, eax

; 3538 : }

  00028	c3		 ret	 0
?IsExtAttackSpeed@CItem@@QAEHXZ ENDP			; CItem::IsExtAttackSpeed
_TEXT	ENDS
; Function compile flags: /Ogtp
; File c:\users\michel\desktop\source\gameserver\common\zzzitem.cpp
;	COMDAT ?IsExtAttackRate2@CItem@@QAEHXZ
_TEXT	SEGMENT
?IsExtAttackRate2@CItem@@QAEHXZ PROC			; CItem::IsExtAttackRate2, COMDAT
; _this$ = ecx

; 3509 : 	if ((m_NewOption & 8) == 8) {

  00000	f6 81 93 00 00
	00 08		 test	 BYTE PTR [ecx+147], 8
  00007	74 1d		 je	 SHORT $LN4@IsExtAttac

; 3510 : #if (ENABLETEST_ITEMEXCELLENTOPTION == 1)
; 3511 : 		int OptionValue = g_ItemExcellentOption.getOptionValue(m_Type, 2);

  00009	0f b7 41 06	 movzx	 eax, WORD PTR [ecx+6]
  0000d	b9 00 00 00 00	 mov	 ecx, OFFSET ?g_ItemExcellentOption@@3VItemExcellentOption@@A ; g_ItemExcellentOption
  00012	6a 02		 push	 2
  00014	50		 push	 eax
  00015	e8 00 00 00 00	 call	 ?getOptionValue@ItemExcellentOption@@QAEHGE@Z ; ItemExcellentOption::getOptionValue

; 3512 : 		if (OptionValue == (int)-1) {

  0001a	83 f8 ff	 cmp	 eax, -1
  0001d	b9 02 00 00 00	 mov	 ecx, 2
  00022	0f 44 c1	 cmove	 eax, ecx

; 3522 : }

  00025	c3		 ret	 0
$LN4@IsExtAttac:

; 3513 : 			return 2; // default value
; 3514 : 		} else {
; 3515 : 			return OptionValue;
; 3516 : 		}
; 3517 : #else
; 3518 : 		return 2;
; 3519 : #endif
; 3520 : 	}
; 3521 : 	return 0;

  00026	33 c0		 xor	 eax, eax

; 3522 : }

  00028	c3		 ret	 0
?IsExtAttackRate2@CItem@@QAEHXZ ENDP			; CItem::IsExtAttackRate2
_TEXT	ENDS
; Function compile flags: /Ogtp
; File c:\users\michel\desktop\source\gameserver\common\zzzitem.cpp
;	COMDAT ?IsExtAttackRate@CItem@@QAEHXZ
_TEXT	SEGMENT
?IsExtAttackRate@CItem@@QAEHXZ PROC			; CItem::IsExtAttackRate, COMDAT
; _this$ = ecx

; 3493 : 	if ((m_NewOption & 0x10) == 0x10) {

  00000	f6 81 93 00 00
	00 10		 test	 BYTE PTR [ecx+147], 16	; 00000010H
  00007	74 1d		 je	 SHORT $LN4@IsExtAttac

; 3494 : #if (ENABLETEST_ITEMEXCELLENTOPTION == 1)
; 3495 : 		int OptionValue = g_ItemExcellentOption.getOptionValue(m_Type, 1);

  00009	0f b7 41 06	 movzx	 eax, WORD PTR [ecx+6]
  0000d	b9 00 00 00 00	 mov	 ecx, OFFSET ?g_ItemExcellentOption@@3VItemExcellentOption@@A ; g_ItemExcellentOption
  00012	6a 01		 push	 1
  00014	50		 push	 eax
  00015	e8 00 00 00 00	 call	 ?getOptionValue@ItemExcellentOption@@QAEHGE@Z ; ItemExcellentOption::getOptionValue

; 3496 : 		if (OptionValue == (int)-1) {

  0001a	83 f8 ff	 cmp	 eax, -1
  0001d	b9 14 00 00 00	 mov	 ecx, 20			; 00000014H
  00022	0f 44 c1	 cmove	 eax, ecx

; 3506 : }

  00025	c3		 ret	 0
$LN4@IsExtAttac:

; 3497 : 			return 20; // default value
; 3498 : 		} else {
; 3499 : 			return OptionValue;
; 3500 : 		}
; 3501 : #else
; 3502 : 		return 20;
; 3503 : #endif
; 3504 : 	}
; 3505 : 	return 0;

  00026	33 c0		 xor	 eax, eax

; 3506 : }

  00028	c3		 ret	 0
?IsExtAttackRate@CItem@@QAEHXZ ENDP			; CItem::IsExtAttackRate
_TEXT	ENDS
; Function compile flags: /Ogtp
; File c:\users\michel\desktop\source\gameserver\common\zzzitem.cpp
;	COMDAT ?IsExtExcellentDamage@CItem@@QAEHXZ
_TEXT	SEGMENT
?IsExtExcellentDamage@CItem@@QAEHXZ PROC		; CItem::IsExtExcellentDamage, COMDAT
; _this$ = ecx

; 3473 : 	if ((m_Type >= ITEMGET(6, 0) ) && (m_Type < ITEMGET(7, 0))) {

  00000	0f b7 41 06	 movzx	 eax, WORD PTR [ecx+6]
  00004	ba 00 0c 00 00	 mov	 edx, 3072		; 00000c00H
  00009	66 3b c2	 cmp	 ax, dx
  0000c	7c 0a		 jl	 SHORT $LN2@IsExtExcel
  0000e	ba 00 0e 00 00	 mov	 edx, 3584		; 00000e00H
  00013	66 3b c2	 cmp	 ax, dx
  00016	7c 22		 jl	 SHORT $LN5@IsExtExcel
$LN2@IsExtExcel:

; 3474 : 		return 0;
; 3475 : 	}
; 3476 : 
; 3477 : 	if (( m_NewOption & 0x20 ) == 0x20) {

  00018	f6 81 93 00 00
	00 20		 test	 BYTE PTR [ecx+147], 32	; 00000020H
  0001f	74 19		 je	 SHORT $LN5@IsExtExcel

; 3478 : #if (ENABLETEST_ITEMEXCELLENTOPTION == 1)
; 3479 : 		int OptionValue = g_ItemExcellentOption.getOptionValue(m_Type, 0);

  00021	6a 00		 push	 0
  00023	50		 push	 eax
  00024	b9 00 00 00 00	 mov	 ecx, OFFSET ?g_ItemExcellentOption@@3VItemExcellentOption@@A ; g_ItemExcellentOption
  00029	e8 00 00 00 00	 call	 ?getOptionValue@ItemExcellentOption@@QAEHGE@Z ; ItemExcellentOption::getOptionValue

; 3480 : 		if (OptionValue == (int)-1) {

  0002e	83 f8 ff	 cmp	 eax, -1
  00031	b9 0a 00 00 00	 mov	 ecx, 10			; 0000000aH
  00036	0f 44 c1	 cmove	 eax, ecx

; 3490 : }

  00039	c3		 ret	 0
$LN5@IsExtExcel:

; 3481 : 			return 10; // default value
; 3482 : 		} else {
; 3483 : 			return OptionValue;
; 3484 : 		}
; 3485 : #else
; 3486 : 		return 10;
; 3487 : #endif
; 3488 : 	}
; 3489 : 	return 0;

  0003a	33 c0		 xor	 eax, eax

; 3490 : }

  0003c	c3		 ret	 0
?IsExtExcellentDamage@CItem@@QAEHXZ ENDP		; CItem::IsExtExcellentDamage
_TEXT	ENDS
; Function compile flags: /Ogtp
; File c:\users\michel\desktop\source\gameserver\common\zzzitem.cpp
;	COMDAT ?IsExtMonsterMoney@CItem@@QAEHXZ
_TEXT	SEGMENT
?IsExtMonsterMoney@CItem@@QAEHXZ PROC			; CItem::IsExtMonsterMoney, COMDAT
; _this$ = ecx

; 3457 : 	if ((m_NewOption & 1) == 1) {

  00000	f6 81 93 00 00
	00 01		 test	 BYTE PTR [ecx+147], 1
  00007	74 1d		 je	 SHORT $LN4@IsExtMonst

; 3458 : #if (ENABLETEST_ITEMEXCELLENTOPTION == 1)
; 3459 : 		int OptionValue = g_ItemExcellentOption.getOptionValue(m_Type, 5);

  00009	0f b7 41 06	 movzx	 eax, WORD PTR [ecx+6]
  0000d	b9 00 00 00 00	 mov	 ecx, OFFSET ?g_ItemExcellentOption@@3VItemExcellentOption@@A ; g_ItemExcellentOption
  00012	6a 05		 push	 5
  00014	50		 push	 eax
  00015	e8 00 00 00 00	 call	 ?getOptionValue@ItemExcellentOption@@QAEHGE@Z ; ItemExcellentOption::getOptionValue

; 3460 : 		if (OptionValue == (int)-1) {

  0001a	83 f8 ff	 cmp	 eax, -1
  0001d	b9 1e 00 00 00	 mov	 ecx, 30			; 0000001eH
  00022	0f 44 c1	 cmove	 eax, ecx

; 3470 : }

  00025	c3		 ret	 0
$LN4@IsExtMonst:

; 3461 : 			return 30; // default value
; 3462 : 		} else {
; 3463 : 			return OptionValue;
; 3464 : 		}
; 3465 : #else
; 3466 : 		return 30;
; 3467 : #endif
; 3468 : 	}
; 3469 : 	return 0;

  00026	33 c0		 xor	 eax, eax

; 3470 : }

  00028	c3		 ret	 0
?IsExtMonsterMoney@CItem@@QAEHXZ ENDP			; CItem::IsExtMonsterMoney
_TEXT	ENDS
; Function compile flags: /Ogtp
; File c:\users\michel\desktop\source\gameserver\common\zzzitem.cpp
;	COMDAT ?IsExtDefenseSuccessfull@CItem@@QAEHXZ
_TEXT	SEGMENT
?IsExtDefenseSuccessfull@CItem@@QAEHXZ PROC		; CItem::IsExtDefenseSuccessfull, COMDAT
; _this$ = ecx

; 3441 : 	if ((m_NewOption & 2) == 2) {

  00000	f6 81 93 00 00
	00 02		 test	 BYTE PTR [ecx+147], 2
  00007	74 1d		 je	 SHORT $LN4@IsExtDefen

; 3442 : #if (ENABLETEST_ITEMEXCELLENTOPTION == 1)
; 3443 : 		int OptionValue = g_ItemExcellentOption.getOptionValue(m_Type, 4);

  00009	0f b7 41 06	 movzx	 eax, WORD PTR [ecx+6]
  0000d	b9 00 00 00 00	 mov	 ecx, OFFSET ?g_ItemExcellentOption@@3VItemExcellentOption@@A ; g_ItemExcellentOption
  00012	6a 04		 push	 4
  00014	50		 push	 eax
  00015	e8 00 00 00 00	 call	 ?getOptionValue@ItemExcellentOption@@QAEHGE@Z ; ItemExcellentOption::getOptionValue

; 3444 : 		if (OptionValue == (int)-1) {

  0001a	83 f8 ff	 cmp	 eax, -1
  0001d	b9 0a 00 00 00	 mov	 ecx, 10			; 0000000aH
  00022	0f 44 c1	 cmove	 eax, ecx

; 3454 : }

  00025	c3		 ret	 0
$LN4@IsExtDefen:

; 3445 : 			return 10; // default value
; 3446 : 		} else {
; 3447 : 			return OptionValue;
; 3448 : 		}
; 3449 : #else
; 3450 : 		return 10;
; 3451 : #endif
; 3452 : 	}
; 3453 : 	return 0;

  00026	33 c0		 xor	 eax, eax

; 3454 : }

  00028	c3		 ret	 0
?IsExtDefenseSuccessfull@CItem@@QAEHXZ ENDP		; CItem::IsExtDefenseSuccessfull
_TEXT	ENDS
; Function compile flags: /Ogtp
; File c:\users\michel\desktop\source\gameserver\common\zzzitem.cpp
;	COMDAT ?IsExtDamageReflect@CItem@@QAEHXZ
_TEXT	SEGMENT
?IsExtDamageReflect@CItem@@QAEHXZ PROC			; CItem::IsExtDamageReflect, COMDAT
; _this$ = ecx

; 3425 : 	if ((m_NewOption & 4) == 4) {

  00000	f6 81 93 00 00
	00 04		 test	 BYTE PTR [ecx+147], 4
  00007	74 1d		 je	 SHORT $LN4@IsExtDamag

; 3426 : #if (ENABLETEST_ITEMEXCELLENTOPTION == 1)
; 3427 : 		int OptionValue = g_ItemExcellentOption.getOptionValue(m_Type, 3);

  00009	0f b7 41 06	 movzx	 eax, WORD PTR [ecx+6]
  0000d	b9 00 00 00 00	 mov	 ecx, OFFSET ?g_ItemExcellentOption@@3VItemExcellentOption@@A ; g_ItemExcellentOption
  00012	6a 03		 push	 3
  00014	50		 push	 eax
  00015	e8 00 00 00 00	 call	 ?getOptionValue@ItemExcellentOption@@QAEHGE@Z ; ItemExcellentOption::getOptionValue

; 3428 : 		if (OptionValue == (int)-1) {

  0001a	83 f8 ff	 cmp	 eax, -1
  0001d	b9 05 00 00 00	 mov	 ecx, 5
  00022	0f 44 c1	 cmove	 eax, ecx

; 3438 : }

  00025	c3		 ret	 0
$LN4@IsExtDamag:

; 3429 : 			return 5; // default value
; 3430 : 		} else {
; 3431 : 			return OptionValue;
; 3432 : 		}
; 3433 : #else
; 3434 : 		return 5;
; 3435 : #endif
; 3436 : 	}
; 3437 : 	return 0;

  00026	33 c0		 xor	 eax, eax

; 3438 : }

  00028	c3		 ret	 0
?IsExtDamageReflect@CItem@@QAEHXZ ENDP			; CItem::IsExtDamageReflect
_TEXT	ENDS
; Function compile flags: /Ogtp
; File c:\users\michel\desktop\source\gameserver\common\zzzitem.cpp
;	COMDAT ?IsExtDamageMinus@CItem@@QAEHXZ
_TEXT	SEGMENT
?IsExtDamageMinus@CItem@@QAEHXZ PROC			; CItem::IsExtDamageMinus, COMDAT
; _this$ = ecx

; 3409 : 	if ((m_NewOption & 8) == 8) {

  00000	f6 81 93 00 00
	00 08		 test	 BYTE PTR [ecx+147], 8
  00007	74 1d		 je	 SHORT $LN4@IsExtDamag

; 3410 : #if (ENABLETEST_ITEMEXCELLENTOPTION == 1)
; 3411 : 		int OptionValue = g_ItemExcellentOption.getOptionValue(m_Type, 2);

  00009	0f b7 41 06	 movzx	 eax, WORD PTR [ecx+6]
  0000d	b9 00 00 00 00	 mov	 ecx, OFFSET ?g_ItemExcellentOption@@3VItemExcellentOption@@A ; g_ItemExcellentOption
  00012	6a 02		 push	 2
  00014	50		 push	 eax
  00015	e8 00 00 00 00	 call	 ?getOptionValue@ItemExcellentOption@@QAEHGE@Z ; ItemExcellentOption::getOptionValue

; 3412 : 		if (OptionValue == (int)-1) {

  0001a	83 f8 ff	 cmp	 eax, -1
  0001d	b9 04 00 00 00	 mov	 ecx, 4
  00022	0f 44 c1	 cmove	 eax, ecx

; 3422 : }

  00025	c3		 ret	 0
$LN4@IsExtDamag:

; 3413 : 			return 4; // default value
; 3414 : 		} else {
; 3415 : 			return OptionValue;
; 3416 : 		}
; 3417 : #else
; 3418 : 		return 4;
; 3419 : #endif
; 3420 : 	}
; 3421 : 	return 0;

  00026	33 c0		 xor	 eax, eax

; 3422 : }

  00028	c3		 ret	 0
?IsExtDamageMinus@CItem@@QAEHXZ ENDP			; CItem::IsExtDamageMinus
_TEXT	ENDS
; Function compile flags: /Ogtp
; File c:\users\michel\desktop\source\gameserver\common\zzzitem.cpp
;	COMDAT ?IsExtManaAdd@CItem@@QAEHXZ
_TEXT	SEGMENT
?IsExtManaAdd@CItem@@QAEHXZ PROC			; CItem::IsExtManaAdd, COMDAT
; _this$ = ecx

; 3393 : 	if ((m_NewOption & 0x10) == 0x10) {

  00000	f6 81 93 00 00
	00 10		 test	 BYTE PTR [ecx+147], 16	; 00000010H
  00007	74 1d		 je	 SHORT $LN4@IsExtManaA

; 3394 : #if (ENABLETEST_ITEMEXCELLENTOPTION == 1)
; 3395 : 		int OptionValue = g_ItemExcellentOption.getOptionValue(m_Type, 1);

  00009	0f b7 41 06	 movzx	 eax, WORD PTR [ecx+6]
  0000d	b9 00 00 00 00	 mov	 ecx, OFFSET ?g_ItemExcellentOption@@3VItemExcellentOption@@A ; g_ItemExcellentOption
  00012	6a 01		 push	 1
  00014	50		 push	 eax
  00015	e8 00 00 00 00	 call	 ?getOptionValue@ItemExcellentOption@@QAEHGE@Z ; ItemExcellentOption::getOptionValue

; 3396 : 		if (OptionValue == (int)-1) {

  0001a	83 f8 ff	 cmp	 eax, -1
  0001d	b9 04 00 00 00	 mov	 ecx, 4
  00022	0f 44 c1	 cmove	 eax, ecx

; 3406 : }

  00025	c3		 ret	 0
$LN4@IsExtManaA:

; 3397 : 			return 4; // default value
; 3398 : 		} else {
; 3399 : 			return OptionValue;
; 3400 : 		}
; 3401 : #else
; 3402 : 		return 4;
; 3403 : #endif
; 3404 : 	}
; 3405 : 	return 0;

  00026	33 c0		 xor	 eax, eax

; 3406 : }

  00028	c3		 ret	 0
?IsExtManaAdd@CItem@@QAEHXZ ENDP			; CItem::IsExtManaAdd
_TEXT	ENDS
; Function compile flags: /Ogtp
; File c:\users\michel\desktop\source\gameserver\common\zzzitem.cpp
;	COMDAT ?IsExtLifeAdd@CItem@@QAEHXZ
_TEXT	SEGMENT
?IsExtLifeAdd@CItem@@QAEHXZ PROC			; CItem::IsExtLifeAdd, COMDAT
; _this$ = ecx

; 3377 : 	if ((m_NewOption & 0x20) == 32) {

  00000	f6 81 93 00 00
	00 20		 test	 BYTE PTR [ecx+147], 32	; 00000020H
  00007	74 1d		 je	 SHORT $LN4@IsExtLifeA

; 3378 : #if (ENABLETEST_ITEMEXCELLENTOPTION == 1)
; 3379 : 		int OptionValue = g_ItemExcellentOption.getOptionValue(m_Type, 0);

  00009	0f b7 41 06	 movzx	 eax, WORD PTR [ecx+6]
  0000d	b9 00 00 00 00	 mov	 ecx, OFFSET ?g_ItemExcellentOption@@3VItemExcellentOption@@A ; g_ItemExcellentOption
  00012	6a 00		 push	 0
  00014	50		 push	 eax
  00015	e8 00 00 00 00	 call	 ?getOptionValue@ItemExcellentOption@@QAEHGE@Z ; ItemExcellentOption::getOptionValue

; 3380 : 		if (OptionValue == (int)-1) {

  0001a	83 f8 ff	 cmp	 eax, -1
  0001d	b9 04 00 00 00	 mov	 ecx, 4
  00022	0f 44 c1	 cmove	 eax, ecx

; 3390 : }

  00025	c3		 ret	 0
$LN4@IsExtLifeA:

; 3381 : 			return 4; // default value
; 3382 : 		} else {
; 3383 : 			return OptionValue;
; 3384 : 		}
; 3385 : #else
; 3386 : 		return 4;
; 3387 : #endif
; 3388 : 	}
; 3389 : 	return 0;

  00026	33 c0		 xor	 eax, eax

; 3390 : }

  00028	c3		 ret	 0
?IsExtLifeAdd@CItem@@QAEHXZ ENDP			; CItem::IsExtLifeAdd
_TEXT	ENDS
; Function compile flags: /Ogtp
; File c:\users\michel\desktop\source\gameserver\common\zzzitem.cpp
;	COMDAT ?IsExtItem@CItem@@QAEHXZ
_TEXT	SEGMENT
?IsExtItem@CItem@@QAEHXZ PROC				; CItem::IsExtItem, COMDAT
; _this$ = ecx

; 3363 : 	if ( m_Type == ITEMGET(13,37) )

  00000	b8 25 1a 00 00	 mov	 eax, 6693		; 00001a25H
  00005	66 39 41 06	 cmp	 WORD PTR [ecx+6], ax
  00009	75 03		 jne	 SHORT $LN2@IsExtItem

; 3364 : 	{
; 3365 : 		return FALSE;

  0000b	33 c0		 xor	 eax, eax

; 3369 : 	{
; 3370 : 		return TRUE;
; 3371 : 	}
; 3372 : 
; 3373 : 	return FALSE;
; 3374 : }

  0000d	c3		 ret	 0
$LN2@IsExtItem:

; 3366 : 	}
; 3367 : 
; 3368 : 	if ( (m_NewOption & 0x7F)!= 0 )

  0000e	f6 81 93 00 00
	00 7f		 test	 BYTE PTR [ecx+147], 127	; 0000007fH
  00015	b8 00 00 00 00	 mov	 eax, 0
  0001a	0f 95 c0	 setne	 al

; 3369 : 	{
; 3370 : 		return TRUE;
; 3371 : 	}
; 3372 : 
; 3373 : 	return FALSE;
; 3374 : }

  0001d	c3		 ret	 0
?IsExtItem@CItem@@QAEHXZ ENDP				; CItem::IsExtItem
_TEXT	ENDS
; Function compile flags: /Ogtp
; File c:\users\michel\desktop\source\gameserver\common\zzzitem.cpp
;	COMDAT ?GetNumber@CItem@@QAEKXZ
_TEXT	SEGMENT
?GetNumber@CItem@@QAEKXZ PROC				; CItem::GetNumber, COMDAT
; _this$ = ecx

; 1779 : 	return m_Number;

  00000	8b 01		 mov	 eax, DWORD PTR [ecx]

; 1780 : }

  00002	c3		 ret	 0
?GetNumber@CItem@@QAEKXZ ENDP				; CItem::GetNumber
_TEXT	ENDS
; Function compile flags: /Ogtp
; File c:\users\michel\desktop\source\gameserver\common\zzzitem.cpp
;	COMDAT ?PlusSpecialSetRing@CItem@@QAEXPAE@Z
_TEXT	SEGMENT
_Value$ = 8						; size = 4
?PlusSpecialSetRing@CItem@@QAEXPAE@Z PROC		; CItem::PlusSpecialSetRing, COMDAT
; _this$ = ecx

; 2856 : {

  00000	55		 push	 ebp
  00001	8b ec		 mov	 ebp, esp
  00003	56		 push	 esi
  00004	8b f1		 mov	 esi, ecx
  00006	57		 push	 edi

; 2857 : 	if ( m_Type < 0 )

  00007	0f b7 7e 06	 movzx	 edi, WORD PTR [esi+6]
  0000b	66 85 ff	 test	 di, di
  0000e	78 56		 js	 SHORT $LN1@PlusSpecia

; 2858 : 	{
; 2859 : 		return;
; 2860 : 	}
; 2861 : 
; 2862 : 	if ( IsSetItem() == FALSE )

  00010	e8 00 00 00 00	 call	 ?IsSetItem@CItem@@QAEHXZ ; CItem::IsSetItem
  00015	85 c0		 test	 eax, eax
  00017	74 4d		 je	 SHORT $LN1@PlusSpecia

; 2863 : 	{
; 2864 : 		return;
; 2865 : 	}
; 2866 : 
; 2867 : 	if ( m_Durability == 0.0f)

  00019	f3 0f 10 46 24	 movss	 xmm0, DWORD PTR [esi+36]
  0001e	0f 2e 05 00 00
	00 00		 ucomiss xmm0, DWORD PTR __real@00000000
  00025	9f		 lahf
  00026	f6 c4 44	 test	 ah, 68			; 00000044H
  00029	7b 3b		 jnp	 SHORT $LN1@PlusSpecia

; 2868 : 	{
; 2869 : 		return;
; 2870 : 	}
; 2871 : 
; 2872 : 	if ( m_IsValidItem == false )

  0002b	80 be ac 00 00
	00 00		 cmp	 BYTE PTR [esi+172], 0
  00032	74 32		 je	 SHORT $LN1@PlusSpecia

; 2873 : 	{
; 2874 : 		return;
; 2875 : 	}
; 2876 : 
; 2877 : 	LPITEM_ATTRIBUTE p = &ItemAttribute[m_Type];

  00034	0f bf c7	 movsx	 eax, di
  00037	6b c0 70	 imul	 eax, eax, 112
  0003a	05 00 00 00 00	 add	 eax, OFFSET ?ItemAttribute@@3PAUITEM_ATTRIBUTE@@A ; ItemAttribute

; 2878 : 
; 2879 : 	if ( p->ResistanceType == -1 )

  0003f	0f b6 78 62	 movzx	 edi, BYTE PTR [eax+98]
  00043	83 ff ff	 cmp	 edi, -1
  00046	74 1e		 je	 SHORT $LN1@PlusSpecia

; 2880 : 	{
; 2881 : 		return;
; 2882 : 	}
; 2883 : 
; 2884 : 	BYTE iValue = 5;
; 2885 : 	Value[p->ResistanceType] += iValue - (BYTE)( iValue * m_CurrentDurabilityState);

  00048	f3 0f 10 86 a4
	00 00 00	 movss	 xmm0, DWORD PTR [esi+164]
  00050	b1 05		 mov	 cl, 5
  00052	f3 0f 59 05 00
	00 00 00	 mulss	 xmm0, DWORD PTR __real@40a00000
  0005a	8b 55 08	 mov	 edx, DWORD PTR _Value$[ebp]
  0005d	f3 0f 2c c0	 cvttss2si eax, xmm0
  00061	2a c8		 sub	 cl, al
  00063	00 0c 17	 add	 BYTE PTR [edi+edx], cl
$LN1@PlusSpecia:
  00066	5f		 pop	 edi
  00067	5e		 pop	 esi

; 2886 : 
; 2887 : }

  00068	5d		 pop	 ebp
  00069	c2 04 00	 ret	 4
?PlusSpecialSetRing@CItem@@QAEXPAE@Z ENDP		; CItem::PlusSpecialSetRing
_TEXT	ENDS
; Function compile flags: /Ogtp
; File c:\users\michel\desktop\source\gameserver\common\zzzitem.cpp
;	COMDAT ?GetWeaponType@CItem@@QAEHXZ
_TEXT	SEGMENT
?GetWeaponType@CItem@@QAEHXZ PROC			; CItem::GetWeaponType, COMDAT
; _this$ = ecx

; 3051 : 	if ( m_Type <= ITEMGET(5,0) )

  00000	0f b7 49 06	 movzx	 ecx, WORD PTR [ecx+6]
  00004	b8 00 0a 00 00	 mov	 eax, 2560		; 00000a00H
  00009	66 3b c8	 cmp	 cx, ax
  0000c	7f 06		 jg	 SHORT $LN2@GetWeaponT

; 3052 : 	{
; 3053 : 		return 1;

  0000e	b8 01 00 00 00	 mov	 eax, 1

; 3057 : 	{
; 3058 : 		return 2;
; 3059 : 	}
; 3060 : 	return 0;
; 3061 : }

  00013	c3		 ret	 0
$LN2@GetWeaponT:
  00014	56		 push	 esi

; 3054 : 	}
; 3055 : 
; 3056 : 	if ( m_Type <= ITEMGET(6,0) )

  00015	be 00 0c 00 00	 mov	 esi, 3072		; 00000c00H
  0001a	33 c0		 xor	 eax, eax
  0001c	66 3b ce	 cmp	 cx, si
  0001f	ba 02 00 00 00	 mov	 edx, 2
  00024	5e		 pop	 esi
  00025	0f 4e c2	 cmovle	 eax, edx

; 3057 : 	{
; 3058 : 		return 2;
; 3059 : 	}
; 3060 : 	return 0;
; 3061 : }

  00028	c3		 ret	 0
?GetWeaponType@CItem@@QAEHXZ ENDP			; CItem::GetWeaponType
_TEXT	ENDS
; Function compile flags: /Ogtp
; File c:\users\michel\desktop\source\gameserver\common\zzzitem.cpp
;	COMDAT ?SetItemPlusSpecialStat@CItem@@QAEXPAGH@Z
_TEXT	SEGMENT
_Value$ = 8						; size = 4
_Special$ = 12						; size = 4
?SetItemPlusSpecialStat@CItem@@QAEXPAGH@Z PROC		; CItem::SetItemPlusSpecialStat, COMDAT
; _this$ = ecx

; 3008 : {

  00000	55		 push	 ebp
  00001	8b ec		 mov	 ebp, esp
  00003	8b d1		 mov	 edx, ecx

; 3009 : 	if ( m_Type < 0 )

  00005	66 83 7a 06 00	 cmp	 WORD PTR [edx+6], 0
  0000a	7c 7e		 jl	 SHORT $LN3@SetItemPlu

; 3010 : 	{
; 3011 : 		return;
; 3012 : 	}
; 3013 : 
; 3014 : 	if ( m_Durability == 0.0f )

  0000c	f3 0f 10 42 24	 movss	 xmm0, DWORD PTR [edx+36]
  00011	0f 2e 05 00 00
	00 00		 ucomiss xmm0, DWORD PTR __real@00000000
  00018	9f		 lahf
  00019	f6 c4 44	 test	 ah, 68			; 00000044H
  0001c	7b 6c		 jnp	 SHORT $LN3@SetItemPlu

; 3015 : 	{
; 3016 : 		return;
; 3017 : 	}
; 3018 : 
; 3019 : 	for ( int i =0;i<m_SpecialNum;i++)

  0001e	57		 push	 edi
  0001f	33 ff		 xor	 edi, edi
  00021	80 7a 30 00	 cmp	 BYTE PTR [edx+48], 0
  00025	76 62		 jbe	 SHORT $LN17@SetItemPlu
  00027	8b 4d 0c	 mov	 ecx, DWORD PTR _Special$[ebp]
  0002a	53		 push	 ebx
  0002b	8b 5d 08	 mov	 ebx, DWORD PTR _Value$[ebp]
  0002e	56		 push	 esi
  0002f	8d 72 32	 lea	 esi, DWORD PTR [edx+50]
$LL4@SetItemPlu:

; 3020 : 	{
; 3021 : 		if ( m_Special[i] == Special )

  00032	0f b7 06	 movzx	 eax, WORD PTR [esi]
  00035	3b c1		 cmp	 eax, ecx
  00037	75 42		 jne	 SHORT $LN2@SetItemPlu

; 3022 : 		{
; 3023 : 			switch ( Special )

  00039	8d 81 3c ff ff
	ff		 lea	 eax, DWORD PTR [ecx-196]
  0003f	83 f8 03	 cmp	 eax, 3
  00042	77 21		 ja	 SHORT $LN11@SetItemPlu

; 3024 : 			{
; 3025 : 				case 0xC4:
; 3026 : 				case 0xC5:
; 3027 : 				case 0xC6:
; 3028 : 				case 0xC7:
; 3029 : 					{
; 3030 : 						int lc3 = m_SetAddStat;

  00044	0f b6 8a ab 00
	00 00		 movzx	 ecx, BYTE PTR [edx+171]
  0004b	66 0f 6e c1	 movd	 xmm0, ecx

; 3031 : 						*Value += lc3 - (int)(lc3 * m_CurrentDurabilityState);

  0004f	0f 5b c0	 cvtdq2ps xmm0, xmm0
  00052	f3 0f 59 82 a4
	00 00 00	 mulss	 xmm0, DWORD PTR [edx+164]
  0005a	f3 0f 2c c0	 cvttss2si eax, xmm0
  0005e	2b c8		 sub	 ecx, eax
  00060	66 01 0b	 add	 WORD PTR [ebx], cx

; 3032 : 					}
; 3033 : 					break;

  00063	eb 13		 jmp	 SHORT $LN19@SetItemPlu
$LN11@SetItemPlu:

; 3034 : 
; 3035 : 				default:
; 3036 : 					*Value += m_Option3*3;

  00065	0f b6 8a 92 00
	00 00		 movzx	 ecx, BYTE PTR [edx+146]
  0006c	66 8b c1	 mov	 ax, cx
  0006f	66 03 c9	 add	 cx, cx
  00072	66 03 c1	 add	 ax, cx
  00075	66 01 03	 add	 WORD PTR [ebx], ax
$LN19@SetItemPlu:
  00078	8b 4d 0c	 mov	 ecx, DWORD PTR _Special$[ebp]
$LN2@SetItemPlu:

; 3015 : 	{
; 3016 : 		return;
; 3017 : 	}
; 3018 : 
; 3019 : 	for ( int i =0;i<m_SpecialNum;i++)

  0007b	0f b6 42 30	 movzx	 eax, BYTE PTR [edx+48]
  0007f	47		 inc	 edi
  00080	83 c6 02	 add	 esi, 2
  00083	3b f8		 cmp	 edi, eax
  00085	7c ab		 jl	 SHORT $LL4@SetItemPlu
  00087	5e		 pop	 esi
  00088	5b		 pop	 ebx
$LN17@SetItemPlu:
  00089	5f		 pop	 edi
$LN3@SetItemPlu:

; 3037 : 			}
; 3038 : 		}
; 3039 : 	}
; 3040 : }

  0008a	5d		 pop	 ebp
  0008b	c2 08 00	 ret	 8
?SetItemPlusSpecialStat@CItem@@QAEXPAGH@Z ENDP		; CItem::SetItemPlusSpecialStat
_TEXT	ENDS
; Function compile flags: /Ogtp
; File c:\users\michel\desktop\source\gameserver\common\zzzitem.cpp
;	COMDAT ?PlusSpecialPercentEx@CItem@@QAEXPAHHH@Z
_TEXT	SEGMENT
_Value$ = 8						; size = 4
_SourceValue$ = 12					; size = 4
_Special$ = 16						; size = 4
?PlusSpecialPercentEx@CItem@@QAEXPAHHH@Z PROC		; CItem::PlusSpecialPercentEx, COMDAT
; _this$ = ecx

; 2977 : {

  00000	55		 push	 ebp
  00001	8b ec		 mov	 ebp, esp
  00003	56		 push	 esi
  00004	8b f1		 mov	 esi, ecx

; 2978 : 	if ( m_Type < 0 )

  00006	66 83 7e 06 00	 cmp	 WORD PTR [esi+6], 0
  0000b	7c 74		 jl	 SHORT $LN3@PlusSpecia

; 2979 : 	{
; 2980 : 		return;
; 2981 : 	}
; 2982 : 
; 2983 : 	if ( m_Durability == 0.0f )

  0000d	f3 0f 10 46 24	 movss	 xmm0, DWORD PTR [esi+36]
  00012	0f 2e 05 00 00
	00 00		 ucomiss xmm0, DWORD PTR __real@00000000
  00019	9f		 lahf
  0001a	f6 c4 44	 test	 ah, 68			; 00000044H
  0001d	7b 62		 jnp	 SHORT $LN3@PlusSpecia

; 2984 : 	{
; 2985 : 		return;
; 2986 : 	}
; 2987 : 
; 2988 : 	if ( m_IsValidItem == false  )

  0001f	80 be ac 00 00
	00 00		 cmp	 BYTE PTR [esi+172], 0
  00026	74 59		 je	 SHORT $LN3@PlusSpecia

; 2989 : 	{
; 2990 : 		return;
; 2991 : 	}
; 2992 : 
; 2993 : 	for ( int i =0;i<m_SpecialNum;i++)

  00028	57		 push	 edi
  00029	33 ff		 xor	 edi, edi
  0002b	80 7e 30 00	 cmp	 BYTE PTR [esi+48], 0
  0002f	76 4f		 jbe	 SHORT $LN14@PlusSpecia
  00031	53		 push	 ebx
  00032	8d 5e 32	 lea	 ebx, DWORD PTR [esi+50]
$LL4@PlusSpecia:

; 2994 : 	{
; 2995 : 		if ( m_Special[i] == Special )

  00035	0f b7 03	 movzx	 eax, WORD PTR [ebx]
  00038	3b 45 10	 cmp	 eax, DWORD PTR _Special$[ebp]
  0003b	75 36		 jne	 SHORT $LN2@PlusSpecia

; 2996 : 		{
; 2997 : 			int lc3 = SourceValue * m_Option3/100;

  0003d	0f b6 8e 92 00
	00 00		 movzx	 ecx, BYTE PTR [esi+146]
  00044	b8 1f 85 eb 51	 mov	 eax, 1374389535		; 51eb851fH
  00049	0f af 4d 0c	 imul	 ecx, DWORD PTR _SourceValue$[ebp]
  0004d	f7 e9		 imul	 ecx
  0004f	c1 fa 05	 sar	 edx, 5
  00052	8b ca		 mov	 ecx, edx
  00054	c1 e9 1f	 shr	 ecx, 31			; 0000001fH
  00057	03 ca		 add	 ecx, edx
  00059	66 0f 6e c1	 movd	 xmm0, ecx

; 2998 : 			*Value += lc3 - (int)(lc3 * m_CurrentDurabilityState );

  0005d	0f 5b c0	 cvtdq2ps xmm0, xmm0
  00060	f3 0f 59 86 a4
	00 00 00	 mulss	 xmm0, DWORD PTR [esi+164]
  00068	f3 0f 2c c0	 cvttss2si eax, xmm0
  0006c	2b c8		 sub	 ecx, eax
  0006e	8b 45 08	 mov	 eax, DWORD PTR _Value$[ebp]
  00071	01 08		 add	 DWORD PTR [eax], ecx
$LN2@PlusSpecia:

; 2989 : 	{
; 2990 : 		return;
; 2991 : 	}
; 2992 : 
; 2993 : 	for ( int i =0;i<m_SpecialNum;i++)

  00073	0f b6 46 30	 movzx	 eax, BYTE PTR [esi+48]
  00077	47		 inc	 edi
  00078	83 c3 02	 add	 ebx, 2
  0007b	3b f8		 cmp	 edi, eax
  0007d	7c b6		 jl	 SHORT $LL4@PlusSpecia
  0007f	5b		 pop	 ebx
$LN14@PlusSpecia:
  00080	5f		 pop	 edi
$LN3@PlusSpecia:
  00081	5e		 pop	 esi

; 2999 : 		}
; 3000 : 	}
; 3001 : }

  00082	5d		 pop	 ebp
  00083	c2 0c 00	 ret	 12			; 0000000cH
?PlusSpecialPercentEx@CItem@@QAEXPAHHH@Z ENDP		; CItem::PlusSpecialPercentEx
_TEXT	ENDS
; Function compile flags: /Ogtp
; File c:\users\michel\desktop\source\gameserver\common\zzzitem.cpp
;	COMDAT ?PlusSpecialPercent@CItem@@QAEXPAHHG@Z
_TEXT	SEGMENT
_this$1$ = -4						; size = 4
_Value$ = 8						; size = 4
_Special$ = 12						; size = 4
_Percent$ = 16						; size = 2
?PlusSpecialPercent@CItem@@QAEXPAHHG@Z PROC		; CItem::PlusSpecialPercent, COMDAT
; _this$ = ecx

; 2961 : {

  00000	55		 push	 ebp
  00001	8b ec		 mov	 ebp, esp
  00003	51		 push	 ecx
  00004	8b c1		 mov	 eax, ecx
  00006	89 45 fc	 mov	 DWORD PTR _this$1$[ebp], eax

; 2962 : 	if ( m_Type < 0 )

  00009	66 83 78 06 00	 cmp	 WORD PTR [eax+6], 0
  0000e	7c 4e		 jl	 SHORT $LN3@PlusSpecia

; 2963 : 	{
; 2964 : 		return;
; 2965 : 	}
; 2966 : 
; 2967 : 	for (int i=0;i<m_SpecialNum;i++)

  00010	56		 push	 esi
  00011	33 f6		 xor	 esi, esi
  00013	80 78 30 00	 cmp	 BYTE PTR [eax+48], 0
  00017	76 44		 jbe	 SHORT $LN12@PlusSpecia
  00019	53		 push	 ebx
  0001a	57		 push	 edi
  0001b	8d 58 32	 lea	 ebx, DWORD PTR [eax+50]
  0001e	66 90		 npad	 2
$LL4@PlusSpecia:

; 2968 : 	{
; 2969 : 		if ( m_Special[i] == Special )

  00020	0f b7 03	 movzx	 eax, WORD PTR [ebx]
  00023	3b 45 0c	 cmp	 eax, DWORD PTR _Special$[ebp]
  00026	75 24		 jne	 SHORT $LN2@PlusSpecia

; 2970 : 		{
; 2971 : 			*Value += (*Value * Percent)/ 100;

  00028	8b 45 08	 mov	 eax, DWORD PTR _Value$[ebp]
  0002b	0f b7 4d 10	 movzx	 ecx, WORD PTR _Percent$[ebp]
  0002f	8b 38		 mov	 edi, DWORD PTR [eax]
  00031	b8 1f 85 eb 51	 mov	 eax, 1374389535		; 51eb851fH
  00036	0f af cf	 imul	 ecx, edi
  00039	f7 e9		 imul	 ecx
  0003b	8b 4d 08	 mov	 ecx, DWORD PTR _Value$[ebp]
  0003e	c1 fa 05	 sar	 edx, 5
  00041	8b c2		 mov	 eax, edx
  00043	c1 e8 1f	 shr	 eax, 31			; 0000001fH
  00046	03 c2		 add	 eax, edx
  00048	03 c7		 add	 eax, edi
  0004a	89 01		 mov	 DWORD PTR [ecx], eax
$LN2@PlusSpecia:

; 2963 : 	{
; 2964 : 		return;
; 2965 : 	}
; 2966 : 
; 2967 : 	for (int i=0;i<m_SpecialNum;i++)

  0004c	8b 45 fc	 mov	 eax, DWORD PTR _this$1$[ebp]
  0004f	46		 inc	 esi
  00050	83 c3 02	 add	 ebx, 2
  00053	0f b6 40 30	 movzx	 eax, BYTE PTR [eax+48]
  00057	3b f0		 cmp	 esi, eax
  00059	7c c5		 jl	 SHORT $LL4@PlusSpecia
  0005b	5f		 pop	 edi
  0005c	5b		 pop	 ebx
$LN12@PlusSpecia:
  0005d	5e		 pop	 esi
$LN3@PlusSpecia:

; 2972 : 		}
; 2973 : 	}
; 2974 : }

  0005e	8b e5		 mov	 esp, ebp
  00060	5d		 pop	 ebp
  00061	c2 0c 00	 ret	 12			; 0000000cH
?PlusSpecialPercent@CItem@@QAEXPAHHG@Z ENDP		; CItem::PlusSpecialPercent
_TEXT	ENDS
; Function compile flags: /Ogtp
; File c:\users\michel\desktop\source\gameserver\common\zzzitem.cpp
;	COMDAT ?PlusSpecial@CItem@@QAEXPAHH@Z
_TEXT	SEGMENT
_Value$ = 8						; size = 4
_Special$ = 12						; size = 4
?PlusSpecial@CItem@@QAEXPAHH@Z PROC			; CItem::PlusSpecial, COMDAT
; _this$ = ecx

; 2892 : {

  00000	55		 push	 ebp
  00001	8b ec		 mov	 ebp, esp
  00003	8b d1		 mov	 edx, ecx

; 2893 : 	if ( m_Type < 0 )

  00005	66 83 7a 06 00	 cmp	 WORD PTR [edx+6], 0
  0000a	0f 8c e0 00 00
	00		 jl	 $LN3@PlusSpecia

; 2894 : 	{
; 2895 : 		return;
; 2896 : 	}
; 2897 : 
; 2898 : 	if ( m_Durability == 0.0f)

  00010	f3 0f 10 42 24	 movss	 xmm0, DWORD PTR [edx+36]
  00015	0f 2e 05 00 00
	00 00		 ucomiss xmm0, DWORD PTR __real@00000000
  0001c	9f		 lahf
  0001d	f6 c4 44	 test	 ah, 68			; 00000044H
  00020	0f 8b ca 00 00
	00		 jnp	 $LN3@PlusSpecia

; 2899 : 	{
; 2900 : 		return;
; 2901 : 	}
; 2902 : 
; 2903 : 	if ( m_IsValidItem == false )

  00026	80 ba ac 00 00
	00 00		 cmp	 BYTE PTR [edx+172], 0
  0002d	0f 84 bd 00 00
	00		 je	 $LN3@PlusSpecia

; 2904 : 	{
; 2905 : 		return;
; 2906 : 	}
; 2907 : 
; 2908 : 	for (int i =0;i<m_SpecialNum;i++)

  00033	53		 push	 ebx
  00034	33 db		 xor	 ebx, ebx
  00036	38 5a 30	 cmp	 BYTE PTR [edx+48], bl
  00039	0f 86 b0 00 00
	00		 jbe	 $LN25@PlusSpecia
  0003f	8b 4d 0c	 mov	 ecx, DWORD PTR _Special$[ebp]
  00042	56		 push	 esi
  00043	8b 75 08	 mov	 esi, DWORD PTR _Value$[ebp]
  00046	57		 push	 edi
  00047	8d 7a 32	 lea	 edi, DWORD PTR [edx+50]
  0004a	66 0f 1f 44 00
	00		 npad	 6
$LL4@PlusSpecia:

; 2909 : 	{
; 2910 : 		if ( m_Special[i] == Special )

  00050	0f b7 07	 movzx	 eax, WORD PTR [edi]
  00053	3b c1		 cmp	 eax, ecx
  00055	0f 85 82 00 00
	00		 jne	 $LN2@PlusSpecia

; 2911 : 		{
; 2912 : 			switch ( Special )

  0005b	8d 41 b0	 lea	 eax, DWORD PTR [ecx-80]
  0005e	83 f8 78	 cmp	 eax, 120		; 00000078H
  00061	77 6e		 ja	 SHORT $LN18@PlusSpecia
  00063	0f b6 80 00 00
	00 00		 movzx	 eax, BYTE PTR $LN24@PlusSpecia[eax]
  0006a	ff 24 85 00 00
	00 00		 jmp	 DWORD PTR $LN30@PlusSpecia[eax*4]
$LN11@PlusSpecia:

; 2913 : 			{
; 2914 : 				case 82:
; 2915 : 					{
; 2916 : 						int lc3 = m_Option3 * 5;

  00071	0f b6 82 92 00
	00 00		 movzx	 eax, BYTE PTR [edx+146]
  00078	8d 0c 80	 lea	 ecx, DWORD PTR [eax+eax*4]
$LN28@PlusSpecia:

; 2917 : 						*Value += lc3 - (int)( lc3 * m_CurrentDurabilityState );

  0007b	66 0f 6e c1	 movd	 xmm0, ecx
  0007f	0f 5b c0	 cvtdq2ps xmm0, xmm0
  00082	f3 0f 59 82 a4
	00 00 00	 mulss	 xmm0, DWORD PTR [edx+164]
  0008a	f3 0f 2c c0	 cvttss2si eax, xmm0
  0008e	2b c8		 sub	 ecx, eax
  00090	01 0e		 add	 DWORD PTR [esi], ecx

; 2918 : 					}
; 2919 : 					break;

  00092	8b 4d 0c	 mov	 ecx, DWORD PTR _Special$[ebp]
  00095	eb 46		 jmp	 SHORT $LN2@PlusSpecia
$LN12@PlusSpecia:

; 2920 : 
; 2921 : 				case 84:
; 2922 : 					* Value += 4;

  00097	83 06 04	 add	 DWORD PTR [esi], 4

; 2923 : 					break;

  0009a	eb 41		 jmp	 SHORT $LN2@PlusSpecia
$LN13@PlusSpecia:

; 2924 : 
; 2925 : 				case 81:
; 2926 : 				case 80:
; 2927 : 				case 83:
; 2928 : 				case 113:
; 2929 : 					{
; 2930 : 						int lc4 = m_Option3*4;

  0009c	0f b6 8a 92 00
	00 00		 movzx	 ecx, BYTE PTR [edx+146]
  000a3	c1 e1 02	 shl	 ecx, 2

; 2931 : 						*Value += lc4 - (int)( lc4 * m_CurrentDurabilityState );
; 2932 : 					}
; 2933 : 					break;

  000a6	eb d3		 jmp	 SHORT $LN28@PlusSpecia
$LN14@PlusSpecia:

; 2934 : 
; 2935 : 				case 100:
; 2936 : 				case 101:
; 2937 : 					*Value =  *Value + m_Level * 5 + 50;

  000a8	0f bf 42 08	 movsx	 eax, WORD PTR [edx+8]
  000ac	83 c0 0a	 add	 eax, 10			; 0000000aH
  000af	8d 04 80	 lea	 eax, DWORD PTR [eax+eax*4]

; 2938 : 					break;

  000b2	eb 27		 jmp	 SHORT $LN27@PlusSpecia
$LN15@PlusSpecia:

; 2939 : 
; 2940 : 				case 103:
; 2941 : 					*Value += 50;

  000b4	83 06 32	 add	 DWORD PTR [esi], 50	; 00000032H

; 2942 : 					break;

  000b7	eb 24		 jmp	 SHORT $LN2@PlusSpecia
$LN16@PlusSpecia:

; 2943 : 
; 2944 : 				case 105:
; 2945 : 					*Value =  *Value + m_Level * 5 + 10;

  000b9	0f bf 42 08	 movsx	 eax, WORD PTR [edx+8]
  000bd	83 c0 02	 add	 eax, 2
  000c0	8d 04 80	 lea	 eax, DWORD PTR [eax+eax*4]

; 2946 : 					break;

  000c3	eb 16		 jmp	 SHORT $LN27@PlusSpecia
$LN17@PlusSpecia:

; 2947 : 
; 2948 : 				case 200:
; 2949 : 					*Value = *Value + (m_Level+1) * 100;

  000c5	0f bf 42 08	 movsx	 eax, WORD PTR [edx+8]
  000c9	6b c0 64	 imul	 eax, eax, 100
  000cc	83 c0 64	 add	 eax, 100		; 00000064H

; 2950 : 					break;

  000cf	eb 0a		 jmp	 SHORT $LN27@PlusSpecia
$LN18@PlusSpecia:

; 2951 : 
; 2952 : 				default:
; 2953 : 					*Value = *Value + (m_Option3*4);

  000d1	0f b6 82 92 00
	00 00		 movzx	 eax, BYTE PTR [edx+146]
  000d8	c1 e0 02	 shl	 eax, 2
$LN27@PlusSpecia:
  000db	01 06		 add	 DWORD PTR [esi], eax
$LN2@PlusSpecia:

; 2904 : 	{
; 2905 : 		return;
; 2906 : 	}
; 2907 : 
; 2908 : 	for (int i =0;i<m_SpecialNum;i++)

  000dd	0f b6 42 30	 movzx	 eax, BYTE PTR [edx+48]
  000e1	43		 inc	 ebx
  000e2	83 c7 02	 add	 edi, 2
  000e5	3b d8		 cmp	 ebx, eax
  000e7	0f 8c 63 ff ff
	ff		 jl	 $LL4@PlusSpecia
  000ed	5f		 pop	 edi
  000ee	5e		 pop	 esi
$LN25@PlusSpecia:
  000ef	5b		 pop	 ebx
$LN3@PlusSpecia:

; 2954 : 					break;
; 2955 : 			}
; 2956 : 		}
; 2957 : 	}
; 2958 : }

  000f0	5d		 pop	 ebp
  000f1	c2 08 00	 ret	 8
$LN30@PlusSpecia:
  000f4	00 00 00 00	 DD	 $LN13@PlusSpecia
  000f8	00 00 00 00	 DD	 $LN11@PlusSpecia
  000fc	00 00 00 00	 DD	 $LN12@PlusSpecia
  00100	00 00 00 00	 DD	 $LN14@PlusSpecia
  00104	00 00 00 00	 DD	 $LN15@PlusSpecia
  00108	00 00 00 00	 DD	 $LN16@PlusSpecia
  0010c	00 00 00 00	 DD	 $LN17@PlusSpecia
  00110	00 00 00 00	 DD	 $LN18@PlusSpecia
$LN24@PlusSpecia:
  00114	00		 DB	 0
  00115	00		 DB	 0
  00116	01		 DB	 1
  00117	00		 DB	 0
  00118	02		 DB	 2
  00119	07		 DB	 7
  0011a	07		 DB	 7
  0011b	07		 DB	 7
  0011c	07		 DB	 7
  0011d	07		 DB	 7
  0011e	07		 DB	 7
  0011f	07		 DB	 7
  00120	07		 DB	 7
  00121	07		 DB	 7
  00122	07		 DB	 7
  00123	07		 DB	 7
  00124	07		 DB	 7
  00125	07		 DB	 7
  00126	07		 DB	 7
  00127	07		 DB	 7
  00128	03		 DB	 3
  00129	03		 DB	 3
  0012a	07		 DB	 7
  0012b	04		 DB	 4
  0012c	07		 DB	 7
  0012d	05		 DB	 5
  0012e	07		 DB	 7
  0012f	07		 DB	 7
  00130	07		 DB	 7
  00131	07		 DB	 7
  00132	07		 DB	 7
  00133	07		 DB	 7
  00134	07		 DB	 7
  00135	00		 DB	 0
  00136	07		 DB	 7
  00137	07		 DB	 7
  00138	07		 DB	 7
  00139	07		 DB	 7
  0013a	07		 DB	 7
  0013b	07		 DB	 7
  0013c	07		 DB	 7
  0013d	07		 DB	 7
  0013e	07		 DB	 7
  0013f	07		 DB	 7
  00140	07		 DB	 7
  00141	07		 DB	 7
  00142	07		 DB	 7
  00143	07		 DB	 7
  00144	07		 DB	 7
  00145	07		 DB	 7
  00146	07		 DB	 7
  00147	07		 DB	 7
  00148	07		 DB	 7
  00149	07		 DB	 7
  0014a	07		 DB	 7
  0014b	07		 DB	 7
  0014c	07		 DB	 7
  0014d	07		 DB	 7
  0014e	07		 DB	 7
  0014f	07		 DB	 7
  00150	07		 DB	 7
  00151	07		 DB	 7
  00152	07		 DB	 7
  00153	07		 DB	 7
  00154	07		 DB	 7
  00155	07		 DB	 7
  00156	07		 DB	 7
  00157	07		 DB	 7
  00158	07		 DB	 7
  00159	07		 DB	 7
  0015a	07		 DB	 7
  0015b	07		 DB	 7
  0015c	07		 DB	 7
  0015d	07		 DB	 7
  0015e	07		 DB	 7
  0015f	07		 DB	 7
  00160	07		 DB	 7
  00161	07		 DB	 7
  00162	07		 DB	 7
  00163	07		 DB	 7
  00164	07		 DB	 7
  00165	07		 DB	 7
  00166	07		 DB	 7
  00167	07		 DB	 7
  00168	07		 DB	 7
  00169	07		 DB	 7
  0016a	07		 DB	 7
  0016b	07		 DB	 7
  0016c	07		 DB	 7
  0016d	07		 DB	 7
  0016e	07		 DB	 7
  0016f	07		 DB	 7
  00170	07		 DB	 7
  00171	07		 DB	 7
  00172	07		 DB	 7
  00173	07		 DB	 7
  00174	07		 DB	 7
  00175	07		 DB	 7
  00176	07		 DB	 7
  00177	07		 DB	 7
  00178	07		 DB	 7
  00179	07		 DB	 7
  0017a	07		 DB	 7
  0017b	07		 DB	 7
  0017c	07		 DB	 7
  0017d	07		 DB	 7
  0017e	07		 DB	 7
  0017f	07		 DB	 7
  00180	07		 DB	 7
  00181	07		 DB	 7
  00182	07		 DB	 7
  00183	07		 DB	 7
  00184	07		 DB	 7
  00185	07		 DB	 7
  00186	07		 DB	 7
  00187	07		 DB	 7
  00188	07		 DB	 7
  00189	07		 DB	 7
  0018a	07		 DB	 7
  0018b	07		 DB	 7
  0018c	06		 DB	 6
?PlusSpecial@CItem@@QAEXPAHH@Z ENDP			; CItem::PlusSpecial
_TEXT	ENDS
; Function compile flags: /Ogtp
; File c:\users\michel\desktop\source\gameserver\common\zzzitem.cpp
;	COMDAT ?GetLevel@CItem@@QAEHXZ
_TEXT	SEGMENT
?GetLevel@CItem@@QAEHXZ PROC				; CItem::GetLevel, COMDAT
; _this$ = ecx

; 1774 : 	return ItemAttribute[m_Type].Level;

  00000	0f bf 41 06	 movsx	 eax, WORD PTR [ecx+6]
  00004	6b c0 70	 imul	 eax, eax, 112
  00007	0f b6 80 22 00
	00 00		 movzx	 eax, BYTE PTR ?ItemAttribute@@3PAUITEM_ATTRIBUTE@@A[eax+34]

; 1775 : }

  0000e	c3		 ret	 0
?GetLevel@CItem@@QAEHXZ ENDP				; CItem::GetLevel
_TEXT	ENDS
; Function compile flags: /Ogtp
; File c:\users\michel\desktop\source\gameserver\common\zzzitem.cpp
;	COMDAT ?GetName@CItem@@QAEPADXZ
_TEXT	SEGMENT
?GetName@CItem@@QAEPADXZ PROC				; CItem::GetName, COMDAT
; _this$ = ecx

; 2850 : 	return &ItemAttribute[m_Type].Name[0];

  00000	0f bf 41 06	 movsx	 eax, WORD PTR [ecx+6]
  00004	6b c0 70	 imul	 eax, eax, 112
  00007	05 00 00 00 00	 add	 eax, OFFSET ?ItemAttribute@@3PAUITEM_ATTRIBUTE@@A ; ItemAttribute

; 2851 : }

  0000c	c3		 ret	 0
?GetName@CItem@@QAEPADXZ ENDP				; CItem::GetName
_TEXT	ENDS
; Function compile flags: /Ogtp
; File c:\users\michel\desktop\source\gameserver\common\zzzitem.cpp
;	COMDAT ?IsClass@CItem@@QAEHDHH@Z
_TEXT	SEGMENT
_aClass$ = 8						; size = 1
_ChangeUP$ = 12						; size = 4
_ChangeUP2$ = 16					; size = 4
?IsClass@CItem@@QAEHDHH@Z PROC				; CItem::IsClass, COMDAT
; _this$ = ecx

; 2818 : {

  00000	55		 push	 ebp
  00001	8b ec		 mov	 ebp, esp

; 2819 : 	if ((aClass < 0) || (aClass >= MAX_TYPE_PLAYER ))

  00003	8a 45 08	 mov	 al, BYTE PTR _aClass$[ebp]
  00006	3c 06		 cmp	 al, 6

; 2823 : 	}
; 2824 : 	
; 2825 : 	int requireclass=m_RequireClass[aClass];

  00008	0f be c0	 movsx	 eax, al
  0000b	77 34		 ja	 SHORT $LN3@IsClass
  0000d	0f b6 4c 08 60	 movzx	 ecx, BYTE PTR [eax+ecx+96]

; 2826 : 	if (requireclass == 0)

  00012	85 c9		 test	 ecx, ecx
  00014	74 44		 je	 SHORT $LN11@IsClass

; 2827 : 	{
; 2828 : 		return 0;
; 2829 : 	}
; 2830 : 
; 2831 : 	if ( requireclass >= 3 )

  00016	83 f9 03	 cmp	 ecx, 3
  00019	7c 10		 jl	 SHORT $LN5@IsClass

; 2832 : 	{
; 2833 : 		if( requireclass != ChangeUP2 + 2 )

  0001b	8b 45 10	 mov	 eax, DWORD PTR _ChangeUP2$[ebp]
  0001e	83 c0 02	 add	 eax, 2
  00021	3b c8		 cmp	 ecx, eax
  00023	74 13		 je	 SHORT $LN9@IsClass

; 2822 : 		return 0;

  00025	33 c0		 xor	 eax, eax

; 2846 : }

  00027	5d		 pop	 ebp
  00028	c2 0c 00	 ret	 12			; 0000000cH
$LN5@IsClass:

; 2834 : 		{
; 2835 : 			return false;
; 2836 : 		}
; 2837 : 	}
; 2838 : 	else if (requireclass > 1)

  0002b	83 f9 01	 cmp	 ecx, 1
  0002e	7e 08		 jle	 SHORT $LN9@IsClass

; 2839 : 	{
; 2840 : 		if ( requireclass  != (ChangeUP+1) )

  00030	8b 45 0c	 mov	 eax, DWORD PTR _ChangeUP$[ebp]
  00033	40		 inc	 eax
  00034	3b c8		 cmp	 ecx, eax
  00036	75 22		 jne	 SHORT $LN11@IsClass
$LN9@IsClass:

; 2841 : 		{
; 2842 : 			return false;
; 2843 : 		}
; 2844 : 	}
; 2845 : 	return 1;

  00038	b8 01 00 00 00	 mov	 eax, 1

; 2846 : }

  0003d	5d		 pop	 ebp
  0003e	c2 0c 00	 ret	 12			; 0000000cH
$LN3@IsClass:

; 2820 : 	{
; 2821 : 		LogAdd("  : %d (%s %d)", aClass, __FILE__, __LINE__); //   : %d (%s %d)

  00041	68 05 0b 00 00	 push	 2821			; 00000b05H
  00046	68 00 00 00 00	 push	 OFFSET ??_C@_0BG@LGADFPBA@?4?4?2common?2zzzitem?4cpp?$AA@
  0004b	50		 push	 eax
  0004c	68 00 00 00 00	 push	 OFFSET ??_C@_0BJ@IGGPIOPD@?E?$KM?$LH?$KB?$LN?$LK?5?$LP?$KB?$LH?$KP?5?3?5?$CFd?5?$CI?$CFs?5?$CFd?$CJ?$AA@
  00051	ff 15 00 00 00
	00		 call	 DWORD PTR ?LogAdd@@3P6AXPADZZA ; LogAdd
  00057	83 c4 10	 add	 esp, 16			; 00000010H
$LN11@IsClass:

; 2822 : 		return 0;

  0005a	33 c0		 xor	 eax, eax

; 2846 : }

  0005c	5d		 pop	 ebp
  0005d	c2 0c 00	 ret	 12			; 0000000cH
?IsClass@CItem@@QAEHDHH@Z ENDP				; CItem::IsClass
_TEXT	ENDS
; Function compile flags: /Ogtp
; File c:\users\michel\desktop\source\gameserver\common\zzzitem.cpp
;	COMDAT ?ItemCurseDamage@CItem@@QAEHXZ
_TEXT	SEGMENT
?ItemCurseDamage@CItem@@QAEHXZ PROC			; CItem::ItemCurseDamage, COMDAT
; _this$ = ecx

; 2796 : 	int CurseDamage;
; 2797 : 
; 2798 : 	if( m_Type < 0 )

  00000	66 83 79 06 00	 cmp	 WORD PTR [ecx+6], 0
  00005	7d 03		 jge	 SHORT $LN2@ItemCurseD
$LN5@ItemCurseD:

; 2799 : 	{
; 2800 : 		return FALSE;

  00007	33 c0		 xor	 eax, eax

; 2809 : return CurseDamage;
; 2810 : }

  00009	c3		 ret	 0
$LN2@ItemCurseD:

; 2801 : 	}
; 2802 : 
; 2803 : 	if( m_IsValidItem == FALSE )

  0000a	80 b9 ac 00 00
	00 00		 cmp	 BYTE PTR [ecx+172], 0
  00011	74 f4		 je	 SHORT $LN5@ItemCurseD

; 2804 : 	{
; 2805 : 		return FALSE;
; 2806 : 	}
; 2807 : 
; 2808 : 	CurseDamage = m_CurseMagic;

  00013	0f b7 41 22	 movzx	 eax, WORD PTR [ecx+34]

; 2809 : return CurseDamage;
; 2810 : }

  00017	c3		 ret	 0
?ItemCurseDamage@CItem@@QAEHXZ ENDP			; CItem::ItemCurseDamage
_TEXT	ENDS
; Function compile flags: /Ogtp
; File c:\users\michel\desktop\source\gameserver\common\zzzitem.cpp
;	COMDAT ?ItemDefense@CItem@@QAEHXZ
_TEXT	SEGMENT
_Defense$ = -4						; size = 4
?ItemDefense@CItem@@QAEHXZ PROC				; CItem::ItemDefense, COMDAT
; _this$ = ecx

; 2768 : {

  00000	55		 push	 ebp
  00001	8b ec		 mov	 ebp, esp
  00003	51		 push	 ecx

; 2769 : 	int Defense;
; 2770 : 	
; 2771 : 	if (m_Type < 0)

  00004	66 83 79 06 00	 cmp	 WORD PTR [ecx+6], 0
  00009	7d 06		 jge	 SHORT $LN2@ItemDefens
$LN9@ItemDefens:

; 2772 : 	{
; 2773 : 		return 0;

  0000b	33 c0		 xor	 eax, eax

; 2790 : 		}
; 2791 : 	}
; 2792 : }

  0000d	8b e5		 mov	 esp, ebp
  0000f	5d		 pop	 ebp
  00010	c3		 ret	 0
$LN2@ItemDefens:

; 2774 : 	}
; 2775 : 	else
; 2776 : 	{
; 2777 : 		if (m_IsValidItem == false)

  00011	80 b9 ac 00 00
	00 00		 cmp	 BYTE PTR [ecx+172], 0
  00018	74 f1		 je	 SHORT $LN9@ItemDefens

; 2778 : 		{
; 2779 : 			return 0;
; 2780 : 		}
; 2781 : 		else if (m_bExpired)

  0001a	80 b9 d0 00 00
	00 00		 cmp	 BYTE PTR [ecx+208], 0
  00021	75 e8		 jne	 SHORT $LN9@ItemDefens

; 2782 : 		{
; 2783 : 			return 0;
; 2784 : 		}
; 2785 : 		else
; 2786 : 		{
; 2787 : 			Defense=m_Defense;

  00023	0f b7 41 16	 movzx	 eax, WORD PTR [ecx+22]
  00027	89 45 fc	 mov	 DWORD PTR _Defense$[ebp], eax

; 2788 : 			PlusSpecial(&Defense, 83);

  0002a	8d 45 fc	 lea	 eax, DWORD PTR _Defense$[ebp]
  0002d	6a 53		 push	 83			; 00000053H
  0002f	50		 push	 eax
  00030	e8 00 00 00 00	 call	 ?PlusSpecial@CItem@@QAEXPAHH@Z ; CItem::PlusSpecial

; 2789 : 			return Defense;

  00035	8b 45 fc	 mov	 eax, DWORD PTR _Defense$[ebp]

; 2790 : 		}
; 2791 : 	}
; 2792 : }

  00038	8b e5		 mov	 esp, ebp
  0003a	5d		 pop	 ebp
  0003b	c3		 ret	 0
?ItemDefense@CItem@@QAEHXZ ENDP				; CItem::ItemDefense
_TEXT	ENDS
; Function compile flags: /Ogtp
; File c:\users\michel\desktop\source\gameserver\common\zzzitem.cpp
;	COMDAT ?ItemDamageMin@CItem@@QAEHXZ
_TEXT	SEGMENT
_damagemin$ = -4					; size = 4
?ItemDamageMin@CItem@@QAEHXZ PROC			; CItem::ItemDamageMin, COMDAT
; _this$ = ecx

; 2751 : {

  00000	55		 push	 ebp
  00001	8b ec		 mov	 ebp, esp
  00003	51		 push	 ecx

; 2752 : 	int damagemin;
; 2753 : 	
; 2754 : 	if (m_Type < 0)

  00004	66 83 79 06 00	 cmp	 WORD PTR [ecx+6], 0
  00009	7d 06		 jge	 SHORT $LN2@ItemDamage

; 2755 : 	{
; 2756 : 		return 0;

  0000b	33 c0		 xor	 eax, eax

; 2763 : 	}
; 2764 : }

  0000d	8b e5		 mov	 esp, ebp
  0000f	5d		 pop	 ebp
  00010	c3		 ret	 0
$LN2@ItemDamage:

; 2757 : 	}
; 2758 : 	else
; 2759 : 	{
; 2760 : 		damagemin=m_DamageMinOrigin;

  00011	0f b7 41 1c	 movzx	 eax, WORD PTR [ecx+28]
  00015	89 45 fc	 mov	 DWORD PTR _damagemin$[ebp], eax

; 2761 : 		PlusSpecial(&damagemin, 80);

  00018	8d 45 fc	 lea	 eax, DWORD PTR _damagemin$[ebp]
  0001b	6a 50		 push	 80			; 00000050H
  0001d	50		 push	 eax
  0001e	e8 00 00 00 00	 call	 ?PlusSpecial@CItem@@QAEXPAHH@Z ; CItem::PlusSpecial

; 2762 : 		return damagemin;

  00023	8b 45 fc	 mov	 eax, DWORD PTR _damagemin$[ebp]

; 2763 : 	}
; 2764 : }

  00026	8b e5		 mov	 esp, ebp
  00028	5d		 pop	 ebp
  00029	c3		 ret	 0
?ItemDamageMin@CItem@@QAEHXZ ENDP			; CItem::ItemDamageMin
_TEXT	ENDS
; Function compile flags: /Ogtp
; File c:\users\michel\desktop\source\gameserver\common\zzzitem.cpp
;	COMDAT ?PetItemLevelDown@CItem@@QAEHH@Z
_TEXT	SEGMENT
_exp$ = 8						; size = 4
?PetItemLevelDown@CItem@@QAEHH@Z PROC			; CItem::PetItemLevelDown, COMDAT
; _this$ = ecx

; 3265 : {

  00000	55		 push	 ebp
  00001	8b ec		 mov	 ebp, esp
  00003	56		 push	 esi
  00004	8b f1		 mov	 esi, ecx

; 3266 : 	if ( m_IsLoadPetItemInfo == FALSE )

  00006	83 be b4 00 00
	00 00		 cmp	 DWORD PTR [esi+180], 0
  0000d	75 07		 jne	 SHORT $LN6@PetItemLev
$LN26@PetItemLev:

; 3267 : 	{
; 3268 : 		return FALSE;

  0000f	33 c0		 xor	 eax, eax
  00011	5e		 pop	 esi

; 3321 : }

  00012	5d		 pop	 ebp
  00013	c2 04 00	 ret	 4
$LN6@PetItemLev:

; 3269 : 	}
; 3270 : 
; 3271 : 	if ( m_PetItem_Level < 2 )

  00016	8b 96 b8 00 00
	00		 mov	 edx, DWORD PTR [esi+184]
  0001c	83 fa 02	 cmp	 edx, 2
  0001f	7c ee		 jl	 SHORT $LN26@PetItemLev

; 3272 : 	{
; 3273 : 		return FALSE;
; 3274 : 	}
; 3275 : 
; 3276 : 	m_PetItem_Exp -= exp;

  00021	8b 45 08	 mov	 eax, DWORD PTR _exp$[ebp]
  00024	29 86 bc 00 00
	00		 sub	 DWORD PTR [esi+188], eax

; 3277 : 	m_PetItem_Level--;

  0002a	8d 42 ff	 lea	 eax, DWORD PTR [edx-1]

; 3278 : 
; 3279 : 	if ( m_Type == ITEMGET(13,4) )

  0002d	0f b7 56 06	 movzx	 edx, WORD PTR [esi+6]
  00031	8b 8e bc 00 00
	00		 mov	 ecx, DWORD PTR [esi+188]
  00037	57		 push	 edi
  00038	bf 04 1a 00 00	 mov	 edi, 6660		; 00001a04H
  0003d	89 86 b8 00 00
	00		 mov	 DWORD PTR [esi+184], eax
  00043	66 3b d7	 cmp	 dx, di
  00046	75 1a		 jne	 SHORT $LN8@PetItemLev

; 3280 : 	{
; 3281 : 		int petlevel = m_PetItem_Level;
; 3282 : 		int petexp = gPetItemExp.m_DarkHorseExpTable[petlevel];
; 3283 : 
; 3284 : 		while ( m_PetItem_Exp <= petexp )

  00048	3b 0c 85 d0 00
	00 00		 cmp	 ecx, DWORD PTR ?gPetItemExp@@3VCPetItemExp@@A[eax*4+208]
  0004f	7f 33		 jg	 SHORT $LN25@PetItemLev
$LL2@PetItemLev:

; 3285 : 		{
; 3286 : 			if ( petlevel <= 1 )

  00051	83 f8 01	 cmp	 eax, 1
  00054	7e 2e		 jle	 SHORT $LN25@PetItemLev

; 3287 : 			{
; 3288 : 				break;
; 3289 : 			}
; 3290 : 
; 3291 : 			petlevel--;

  00056	48		 dec	 eax
  00057	3b 0c 85 d0 00
	00 00		 cmp	 ecx, DWORD PTR ?gPetItemExp@@3VCPetItemExp@@A[eax*4+208]
  0005e	7e f1		 jle	 SHORT $LL2@PetItemLev

; 3292 : 			petexp = gPetItemExp.m_DarkHorseExpTable[petlevel];
; 3293 : 		}
; 3294 : 
; 3295 : 		m_PetItem_Level = petlevel;

  00060	eb 22		 jmp	 SHORT $LN25@PetItemLev
$LN8@PetItemLev:

; 3296 : 	}
; 3297 : 	else if ( m_Type == ITEMGET(13,5) )

  00062	bf 05 1a 00 00	 mov	 edi, 6661		; 00001a05H
  00067	66 3b d7	 cmp	 dx, di
  0006a	75 1e		 jne	 SHORT $LN11@PetItemLev

; 3298 : 	{
; 3299 : 		int petlevel = m_PetItem_Level;
; 3300 : 		int petexp = gPetItemExp.m_DarkSpiritExpTable[petlevel];
; 3301 : 
; 3302 : 		while ( m_PetItem_Exp <= petexp )

  0006c	3b 0c 85 00 00
	00 00		 cmp	 ecx, DWORD PTR ?gPetItemExp@@3VCPetItemExp@@A[eax*4]
  00073	7f 0f		 jg	 SHORT $LN25@PetItemLev
$LL4@PetItemLev:

; 3303 : 		{
; 3304 : 			if ( petlevel <= 1 )

  00075	83 f8 01	 cmp	 eax, 1
  00078	7e 0a		 jle	 SHORT $LN25@PetItemLev

; 3305 : 			{
; 3306 : 				break;
; 3307 : 			}
; 3308 : 
; 3309 : 			petlevel--;

  0007a	48		 dec	 eax
  0007b	3b 0c 85 00 00
	00 00		 cmp	 ecx, DWORD PTR ?gPetItemExp@@3VCPetItemExp@@A[eax*4]
  00082	7e f1		 jle	 SHORT $LL4@PetItemLev
$LN25@PetItemLev:

; 3310 : 			petexp = gPetItemExp.m_DarkSpiritExpTable[petlevel];
; 3311 : 		}
; 3312 : 
; 3313 : 		m_PetItem_Level = petlevel;

  00084	89 86 b8 00 00
	00		 mov	 DWORD PTR [esi+184], eax
$LN11@PetItemLev:

; 3314 : 	}
; 3315 : 
; 3316 : 	Convert(m_Type, m_Option1, m_Option2,

  0008a	0f b6 86 c6 00
	00 00		 movzx	 eax, BYTE PTR [esi+198]
  00091	8b ce		 mov	 ecx, esi
  00093	6a 03		 push	 3
  00095	68 ff 00 00 00	 push	 255			; 000000ffH
  0009a	6a 00		 push	 0
  0009c	50		 push	 eax
  0009d	0f b6 86 aa 00
	00 00		 movzx	 eax, BYTE PTR [esi+170]
  000a4	50		 push	 eax
  000a5	0f b6 86 93 00
	00 00		 movzx	 eax, BYTE PTR [esi+147]
  000ac	50		 push	 eax
  000ad	0f b6 86 92 00
	00 00		 movzx	 eax, BYTE PTR [esi+146]
  000b4	50		 push	 eax
  000b5	0f b6 86 91 00
	00 00		 movzx	 eax, BYTE PTR [esi+145]
  000bc	50		 push	 eax
  000bd	0f b6 86 90 00
	00 00		 movzx	 eax, BYTE PTR [esi+144]
  000c4	50		 push	 eax
  000c5	0f bf c2	 movsx	 eax, dx
  000c8	50		 push	 eax
  000c9	e8 00 00 00 00	 call	 ?Convert@CItem@@QAEXHEEEEEEPAEEE@Z ; CItem::Convert

; 3317 : 		m_Option3, m_NewOption, m_SetOption, m_ItemOptionEx, 0,-1,CURRENT_DB_VERSION);
; 3318 : 	PetValue();

  000ce	8b ce		 mov	 ecx, esi
  000d0	e8 00 00 00 00	 call	 ?PetValue@CItem@@QAEXXZ	; CItem::PetValue
  000d5	5f		 pop	 edi

; 3319 : 
; 3320 : 	return TRUE;

  000d6	b8 01 00 00 00	 mov	 eax, 1
  000db	5e		 pop	 esi

; 3321 : }

  000dc	5d		 pop	 ebp
  000dd	c2 04 00	 ret	 4
?PetItemLevelDown@CItem@@QAEHH@Z ENDP			; CItem::PetItemLevelDown
_TEXT	ENDS
; Function compile flags: /Ogtp
; File c:\users\michel\desktop\source\gameserver\common\zzzitem.cpp
;	COMDAT ?PetValue@CItem@@QAEXXZ
_TEXT	SEGMENT
?PetValue@CItem@@QAEXXZ PROC				; CItem::PetValue, COMDAT
; _this$ = ecx

; 3327 : {

  00000	56		 push	 esi
  00001	8b f1		 mov	 esi, ecx

; 3328 : 	if ( m_Type == ITEMGET(13,4) )

  00003	b9 04 1a 00 00	 mov	 ecx, 6660		; 00001a04H
  00008	0f b7 46 06	 movzx	 eax, WORD PTR [esi+6]
  0000c	66 3b c1	 cmp	 ax, cx
  0000f	75 0c		 jne	 SHORT $LN2@PetValue

; 3329 : 	{
; 3330 : 		m_SellMoney = m_PetItem_Level * 2000000;

  00011	69 86 b8 00 00
	00 80 84 1e 00	 imul	 eax, DWORD PTR [esi+184], 2000000
  0001b	eb 14		 jmp	 SHORT $LN12@PetValue
$LN2@PetValue:

; 3331 : 	}
; 3332 : 	else if ( m_Type == ITEMGET(13,5) )

  0001d	b9 05 1a 00 00	 mov	 ecx, 6661		; 00001a05H
  00022	66 3b c1	 cmp	 ax, cx
  00025	75 0d		 jne	 SHORT $LN4@PetValue

; 3333 : 	{
; 3334 : 		m_SellMoney = m_PetItem_Level * 1000000;

  00027	69 86 b8 00 00
	00 40 42 0f 00	 imul	 eax, DWORD PTR [esi+184], 1000000
$LN12@PetValue:
  00031	89 46 74	 mov	 DWORD PTR [esi+116], eax
$LN4@PetValue:

; 3335 : 	}	
; 3336 : 
; 3337 : 	m_BuyMoney = m_SellMoney;

  00034	8b 4e 74	 mov	 ecx, DWORD PTR [esi+116]

; 3338 : 	m_SellMoney /= 3;

  00037	b8 ab aa aa aa	 mov	 eax, -1431655765	; aaaaaaabH
  0003c	f7 e1		 mul	 ecx
  0003e	89 4e 78	 mov	 DWORD PTR [esi+120], ecx
  00041	d1 ea		 shr	 edx, 1
  00043	89 56 74	 mov	 DWORD PTR [esi+116], edx

; 3339 : 
; 3340 : 	if ( m_SellMoney >= 1000 )

  00046	81 fa e8 03 00
	00		 cmp	 edx, 1000		; 000003e8H
  0004c	72 12		 jb	 SHORT $LN5@PetValue

; 3341 : 	{
; 3342 : 		m_SellMoney = m_SellMoney / 100 * 100;

  0004e	b8 1f 85 eb 51	 mov	 eax, 1374389535		; 51eb851fH
  00053	f7 e2		 mul	 edx
  00055	c1 ea 05	 shr	 edx, 5
  00058	6b c2 64	 imul	 eax, edx, 100
  0005b	89 46 74	 mov	 DWORD PTR [esi+116], eax
  0005e	eb 17		 jmp	 SHORT $LN7@PetValue
$LN5@PetValue:

; 3343 : 	}
; 3344 : 	else if ( m_SellMoney >= 100 )

  00060	83 fa 64	 cmp	 edx, 100		; 00000064H
  00063	72 12		 jb	 SHORT $LN7@PetValue

; 3345 : 	{
; 3346 : 		m_SellMoney = m_SellMoney / 10 * 10;

  00065	b8 cd cc cc cc	 mov	 eax, -858993459		; cccccccdH
  0006a	f7 e2		 mul	 edx
  0006c	c1 ea 03	 shr	 edx, 3
  0006f	8d 0c 92	 lea	 ecx, DWORD PTR [edx+edx*4]
  00072	03 c9		 add	 ecx, ecx
  00074	89 4e 74	 mov	 DWORD PTR [esi+116], ecx
$LN7@PetValue:

; 3347 : 	}
; 3348 : 
; 3349 : 	if ( m_BuyMoney >= 1000 )

  00077	8b 4e 78	 mov	 ecx, DWORD PTR [esi+120]
  0007a	81 f9 e8 03 00
	00		 cmp	 ecx, 1000		; 000003e8H
  00080	72 12		 jb	 SHORT $LN8@PetValue

; 3350 : 	{
; 3351 : 		m_BuyMoney = m_BuyMoney / 100 * 100;

  00082	b8 1f 85 eb 51	 mov	 eax, 1374389535		; 51eb851fH
  00087	f7 e1		 mul	 ecx
  00089	c1 ea 05	 shr	 edx, 5
  0008c	6b c2 64	 imul	 eax, edx, 100

; 3354 : 	{
; 3355 : 		m_BuyMoney = m_BuyMoney / 10 * 10;

  0008f	89 46 78	 mov	 DWORD PTR [esi+120], eax
  00092	5e		 pop	 esi

; 3356 : 	}
; 3357 : }

  00093	c3		 ret	 0
$LN8@PetValue:

; 3352 : 	}
; 3353 : 	else if ( m_BuyMoney >= 100 )

  00094	83 f9 64	 cmp	 ecx, 100		; 00000064H
  00097	72 12		 jb	 SHORT $LN10@PetValue

; 3354 : 	{
; 3355 : 		m_BuyMoney = m_BuyMoney / 10 * 10;

  00099	b8 cd cc cc cc	 mov	 eax, -858993459		; cccccccdH
  0009e	f7 e1		 mul	 ecx
  000a0	c1 ea 03	 shr	 edx, 3
  000a3	8d 04 92	 lea	 eax, DWORD PTR [edx+edx*4]
  000a6	03 c0		 add	 eax, eax
  000a8	89 46 78	 mov	 DWORD PTR [esi+120], eax
$LN10@PetValue:
  000ab	5e		 pop	 esi

; 3356 : 	}
; 3357 : }

  000ac	c3		 ret	 0
?PetValue@CItem@@QAEXXZ ENDP				; CItem::PetValue
_TEXT	ENDS
; Function compile flags: /Ogtp
; File c:\users\michel\desktop\source\gameserver\common\zzzitem.cpp
;	COMDAT ?DecPetItemExp@CItem@@QAEHH@Z
_TEXT	SEGMENT
_percent$ = 8						; size = 4
?DecPetItemExp@CItem@@QAEHH@Z PROC			; CItem::DecPetItemExp, COMDAT
; _this$ = ecx

; 3194 : {

  00000	55		 push	 ebp
  00001	8b ec		 mov	 ebp, esp
  00003	56		 push	 esi
  00004	8b f1		 mov	 esi, ecx

; 3195 : 	if ( m_IsLoadPetItemInfo == 0 )

  00006	83 be b4 00 00
	00 00		 cmp	 DWORD PTR [esi+180], 0
  0000d	75 07		 jne	 SHORT $LN2@DecPetItem

; 3196 : 	{
; 3197 : 		return FALSE;

  0000f	33 c0		 xor	 eax, eax
  00011	5e		 pop	 esi

; 3261 : }

  00012	5d		 pop	 ebp
  00013	c2 04 00	 ret	 4
$LN2@DecPetItem:
  00016	57		 push	 edi

; 3198 : 	}
; 3199 : 
; 3200 : 	if ( m_PetItem_Level < 1 )

  00017	8b be b8 00 00
	00		 mov	 edi, DWORD PTR [esi+184]
  0001d	83 ff 01	 cmp	 edi, 1
  00020	7d 66		 jge	 SHORT $LN3@DecPetItem

; 3201 : 	{
; 3202 : 		m_PetItem_Level = 1;
; 3203 : 		m_PetItem_Exp = 0;
; 3204 : 		Convert(m_Type, m_Option1, m_Option2,

  00022	0f b6 86 c6 00
	00 00		 movzx	 eax, BYTE PTR [esi+198]
  00029	6a 03		 push	 3
  0002b	68 ff 00 00 00	 push	 255			; 000000ffH
  00030	6a 00		 push	 0
  00032	50		 push	 eax
  00033	0f b6 86 aa 00
	00 00		 movzx	 eax, BYTE PTR [esi+170]
  0003a	50		 push	 eax
  0003b	0f b6 86 93 00
	00 00		 movzx	 eax, BYTE PTR [esi+147]
  00042	50		 push	 eax
  00043	0f b6 86 92 00
	00 00		 movzx	 eax, BYTE PTR [esi+146]
  0004a	50		 push	 eax
  0004b	0f b6 86 91 00
	00 00		 movzx	 eax, BYTE PTR [esi+145]
  00052	50		 push	 eax
  00053	0f b6 86 90 00
	00 00		 movzx	 eax, BYTE PTR [esi+144]
  0005a	50		 push	 eax
  0005b	0f bf 46 06	 movsx	 eax, WORD PTR [esi+6]
  0005f	50		 push	 eax
  00060	c7 86 b8 00 00
	00 01 00 00 00	 mov	 DWORD PTR [esi+184], 1
  0006a	c7 86 bc 00 00
	00 00 00 00 00	 mov	 DWORD PTR [esi+188], 0

; 3218 : 		{
; 3219 : 			m_PetItem_Level = 1;
; 3220 : 			m_PetItem_Exp = 0;
; 3221 : 			Convert(m_Type, m_Option1, m_Option2,

  00074	e8 00 00 00 00	 call	 ?Convert@CItem@@QAEXHEEEEEEPAEEE@Z ; CItem::Convert

; 3222 : 				m_Option3, m_NewOption, m_SetOption, m_ItemOptionEx, 0,-1,CURRENT_DB_VERSION);
; 3223 : 			PetValue();

  00079	8b ce		 mov	 ecx, esi
  0007b	e8 00 00 00 00	 call	 ?PetValue@CItem@@QAEXXZ	; CItem::PetValue
  00080	5f		 pop	 edi

; 3257 : 		}
; 3258 : 	}
; 3259 : 
; 3260 : 	return FALSE;

  00081	33 c0		 xor	 eax, eax
  00083	5e		 pop	 esi

; 3261 : }

  00084	5d		 pop	 ebp
  00085	c2 04 00	 ret	 4
$LN3@DecPetItem:

; 3205 : 			m_Option3, m_NewOption, m_SetOption, m_ItemOptionEx, 0,-1,CURRENT_DB_VERSION);
; 3206 : 		PetValue();
; 3207 : 
; 3208 : 		return FALSE;
; 3209 : 	}
; 3210 : 
; 3211 : 	if ( m_Type == ITEMGET(13,4) )

  00088	0f b7 46 06	 movzx	 eax, WORD PTR [esi+6]
  0008c	b9 04 1a 00 00	 mov	 ecx, 6660		; 00001a04H
  00091	66 3b c1	 cmp	 ax, cx
  00094	0f 85 ee 00 00
	00		 jne	 $LN4@DecPetItem

; 3212 : 	{
; 3213 : 		int exp = gPetItemExp.m_DarkHorseExpTable[1+m_PetItem_Level] - gPetItemExp.m_DarkHorseExpTable[m_PetItem_Level];

  0009a	8b 0c bd d4 00
	00 00		 mov	 ecx, DWORD PTR ?gPetItemExp@@3VCPetItemExp@@A[edi*4+212]

; 3214 : 		exp = exp * percent/100;

  000a1	b8 e1 7a 14 ae	 mov	 eax, -1374389535	; ae147ae1H
  000a6	2b 0c bd d0 00
	00 00		 sub	 ecx, DWORD PTR ?gPetItemExp@@3VCPetItemExp@@A[edi*4+208]
  000ad	0f af 4d 08	 imul	 ecx, DWORD PTR _percent$[ebp]
  000b1	f7 e9		 imul	 ecx
  000b3	c1 fa 05	 sar	 edx, 5
  000b6	8b c2		 mov	 eax, edx
  000b8	c1 e8 1f	 shr	 eax, 31			; 0000001fH
  000bb	03 c2		 add	 eax, edx

; 3215 : 		m_PetItem_Exp -= exp;

  000bd	01 86 bc 00 00
	00		 add	 DWORD PTR [esi+188], eax
  000c3	8b 86 bc 00 00
	00		 mov	 eax, DWORD PTR [esi+188]

; 3216 : 
; 3217 : 		if ( m_PetItem_Exp < 0 )

  000c9	79 68		 jns	 SHORT $LN6@DecPetItem

; 3218 : 		{
; 3219 : 			m_PetItem_Level = 1;
; 3220 : 			m_PetItem_Exp = 0;
; 3221 : 			Convert(m_Type, m_Option1, m_Option2,

  000cb	0f b6 86 c6 00
	00 00		 movzx	 eax, BYTE PTR [esi+198]
  000d2	6a 03		 push	 3
  000d4	68 ff 00 00 00	 push	 255			; 000000ffH
  000d9	6a 00		 push	 0
  000db	50		 push	 eax
  000dc	0f b6 86 aa 00
	00 00		 movzx	 eax, BYTE PTR [esi+170]
  000e3	50		 push	 eax
  000e4	0f b6 86 93 00
	00 00		 movzx	 eax, BYTE PTR [esi+147]
  000eb	50		 push	 eax
  000ec	0f b6 86 92 00
	00 00		 movzx	 eax, BYTE PTR [esi+146]
  000f3	50		 push	 eax
  000f4	0f b6 86 91 00
	00 00		 movzx	 eax, BYTE PTR [esi+145]
  000fb	50		 push	 eax
  000fc	0f b6 86 90 00
	00 00		 movzx	 eax, BYTE PTR [esi+144]
  00103	50		 push	 eax
  00104	c7 86 b8 00 00
	00 01 00 00 00	 mov	 DWORD PTR [esi+184], 1
  0010e	c7 86 bc 00 00
	00 00 00 00 00	 mov	 DWORD PTR [esi+188], 0
  00118	68 04 1a 00 00	 push	 6660			; 00001a04H
$LN15@DecPetItem:
  0011d	8b ce		 mov	 ecx, esi
  0011f	e8 00 00 00 00	 call	 ?Convert@CItem@@QAEXHEEEEEEPAEEE@Z ; CItem::Convert

; 3222 : 				m_Option3, m_NewOption, m_SetOption, m_ItemOptionEx, 0,-1,CURRENT_DB_VERSION);
; 3223 : 			PetValue();

  00124	8b ce		 mov	 ecx, esi
  00126	e8 00 00 00 00	 call	 ?PetValue@CItem@@QAEXXZ	; CItem::PetValue
$LN12@DecPetItem:

; 3257 : 		}
; 3258 : 	}
; 3259 : 
; 3260 : 	return FALSE;

  0012b	5f		 pop	 edi
  0012c	33 c0		 xor	 eax, eax
  0012e	5e		 pop	 esi

; 3261 : }

  0012f	5d		 pop	 ebp
  00130	c2 04 00	 ret	 4
$LN6@DecPetItem:

; 3224 : 		}
; 3225 : 		else if ( m_PetItem_Exp < gPetItemExp.m_DarkHorseExpTable[m_PetItem_Level] )

  00133	3b 04 bd d0 00
	00 00		 cmp	 eax, DWORD PTR ?gPetItemExp@@3VCPetItemExp@@A[edi*4+208]
  0013a	7d ef		 jge	 SHORT $LN12@DecPetItem

; 3226 : 		{
; 3227 : 			m_PetItem_Level--;
; 3228 : 			Convert(m_Type, m_Option1, m_Option2,

  0013c	6a 03		 push	 3
  0013e	68 ff 00 00 00	 push	 255			; 000000ffH
  00143	6a 00		 push	 0
  00145	8d 47 ff	 lea	 eax, DWORD PTR [edi-1]
  00148	89 86 b8 00 00
	00		 mov	 DWORD PTR [esi+184], eax
  0014e	0f b6 86 c6 00
	00 00		 movzx	 eax, BYTE PTR [esi+198]
  00155	50		 push	 eax
  00156	0f b6 86 aa 00
	00 00		 movzx	 eax, BYTE PTR [esi+170]
  0015d	50		 push	 eax
  0015e	0f b6 86 93 00
	00 00		 movzx	 eax, BYTE PTR [esi+147]
  00165	50		 push	 eax
  00166	0f b6 86 92 00
	00 00		 movzx	 eax, BYTE PTR [esi+146]
  0016d	50		 push	 eax
  0016e	0f b6 86 91 00
	00 00		 movzx	 eax, BYTE PTR [esi+145]
  00175	50		 push	 eax
  00176	0f b6 86 90 00
	00 00		 movzx	 eax, BYTE PTR [esi+144]
  0017d	50		 push	 eax
  0017e	68 04 1a 00 00	 push	 6660			; 00001a04H

; 3229 : 				m_Option3, m_NewOption, m_SetOption, m_ItemOptionEx, 0,-1,CURRENT_DB_VERSION);
; 3230 : 			PetValue();
; 3231 : 			
; 3232 : 			return TRUE;

  00183	e9 e6 00 00 00	 jmp	 $LN16@DecPetItem
$LN4@DecPetItem:

; 3233 : 		}
; 3234 : 	}
; 3235 : 	else if ( m_Type == ITEMGET(13,5) )

  00188	b9 05 1a 00 00	 mov	 ecx, 6661		; 00001a05H
  0018d	66 3b c1	 cmp	 ax, cx
  00190	75 99		 jne	 SHORT $LN12@DecPetItem

; 3236 : 	{
; 3237 : 		int exp = gPetItemExp.m_DarkSpiritExpTable[1+m_PetItem_Level] - gPetItemExp.m_DarkSpiritExpTable[m_PetItem_Level];

  00192	8b 0c bd 04 00
	00 00		 mov	 ecx, DWORD PTR ?gPetItemExp@@3VCPetItemExp@@A[edi*4+4]

; 3238 : 		exp = exp * percent/100;

  00199	b8 e1 7a 14 ae	 mov	 eax, -1374389535	; ae147ae1H
  0019e	2b 0c bd 00 00
	00 00		 sub	 ecx, DWORD PTR ?gPetItemExp@@3VCPetItemExp@@A[edi*4]
  001a5	0f af 4d 08	 imul	 ecx, DWORD PTR _percent$[ebp]
  001a9	f7 e9		 imul	 ecx
  001ab	c1 fa 05	 sar	 edx, 5
  001ae	8b c2		 mov	 eax, edx
  001b0	c1 e8 1f	 shr	 eax, 31			; 0000001fH
  001b3	03 c2		 add	 eax, edx

; 3239 : 		m_PetItem_Exp -= exp;

  001b5	01 86 bc 00 00
	00		 add	 DWORD PTR [esi+188], eax
  001bb	8b 86 bc 00 00
	00		 mov	 eax, DWORD PTR [esi+188]

; 3240 : 
; 3241 : 		if ( m_PetItem_Exp < 0 )

  001c1	79 57		 jns	 SHORT $LN10@DecPetItem

; 3242 : 		{
; 3243 : 			m_PetItem_Level = 1;
; 3244 : 			m_PetItem_Exp = 0;
; 3245 : 			Convert(m_Type, m_Option1, m_Option2,

  001c3	0f b6 86 c6 00
	00 00		 movzx	 eax, BYTE PTR [esi+198]
  001ca	6a 03		 push	 3
  001cc	68 ff 00 00 00	 push	 255			; 000000ffH
  001d1	6a 00		 push	 0
  001d3	50		 push	 eax
  001d4	0f b6 86 aa 00
	00 00		 movzx	 eax, BYTE PTR [esi+170]
  001db	50		 push	 eax
  001dc	0f b6 86 93 00
	00 00		 movzx	 eax, BYTE PTR [esi+147]
  001e3	50		 push	 eax
  001e4	0f b6 86 92 00
	00 00		 movzx	 eax, BYTE PTR [esi+146]
  001eb	50		 push	 eax
  001ec	0f b6 86 91 00
	00 00		 movzx	 eax, BYTE PTR [esi+145]
  001f3	50		 push	 eax
  001f4	0f b6 86 90 00
	00 00		 movzx	 eax, BYTE PTR [esi+144]
  001fb	50		 push	 eax
  001fc	c7 86 b8 00 00
	00 01 00 00 00	 mov	 DWORD PTR [esi+184], 1
  00206	c7 86 bc 00 00
	00 00 00 00 00	 mov	 DWORD PTR [esi+188], 0
  00210	68 05 1a 00 00	 push	 6661			; 00001a05H

; 3246 : 				m_Option3, m_NewOption, m_SetOption, m_ItemOptionEx, 0,-1,CURRENT_DB_VERSION);
; 3247 : 			PetValue();

  00215	e9 03 ff ff ff	 jmp	 $LN15@DecPetItem
$LN10@DecPetItem:

; 3248 : 		}
; 3249 : 		else if ( m_PetItem_Exp < gPetItemExp.m_DarkSpiritExpTable[m_PetItem_Level] )

  0021a	3b 04 bd 00 00
	00 00		 cmp	 eax, DWORD PTR ?gPetItemExp@@3VCPetItemExp@@A[edi*4]
  00221	0f 8d 04 ff ff
	ff		 jge	 $LN12@DecPetItem

; 3250 : 		{
; 3251 : 			m_PetItem_Level--;
; 3252 : 			Convert(m_Type, m_Option1, m_Option2,

  00227	6a 03		 push	 3
  00229	68 ff 00 00 00	 push	 255			; 000000ffH
  0022e	6a 00		 push	 0
  00230	8d 47 ff	 lea	 eax, DWORD PTR [edi-1]
  00233	89 86 b8 00 00
	00		 mov	 DWORD PTR [esi+184], eax
  00239	0f b6 86 c6 00
	00 00		 movzx	 eax, BYTE PTR [esi+198]
  00240	50		 push	 eax
  00241	0f b6 86 aa 00
	00 00		 movzx	 eax, BYTE PTR [esi+170]
  00248	50		 push	 eax
  00249	0f b6 86 93 00
	00 00		 movzx	 eax, BYTE PTR [esi+147]
  00250	50		 push	 eax
  00251	0f b6 86 92 00
	00 00		 movzx	 eax, BYTE PTR [esi+146]
  00258	50		 push	 eax
  00259	0f b6 86 91 00
	00 00		 movzx	 eax, BYTE PTR [esi+145]
  00260	50		 push	 eax
  00261	0f b6 86 90 00
	00 00		 movzx	 eax, BYTE PTR [esi+144]
  00268	50		 push	 eax
  00269	68 05 1a 00 00	 push	 6661			; 00001a05H
$LN16@DecPetItem:
  0026e	8b ce		 mov	 ecx, esi
  00270	e8 00 00 00 00	 call	 ?Convert@CItem@@QAEXHEEEEEEPAEEE@Z ; CItem::Convert

; 3253 : 				m_Option3, m_NewOption, m_SetOption, m_ItemOptionEx, 0,-1,CURRENT_DB_VERSION);
; 3254 : 			PetValue();

  00275	8b ce		 mov	 ecx, esi
  00277	e8 00 00 00 00	 call	 ?PetValue@CItem@@QAEXXZ	; CItem::PetValue
  0027c	5f		 pop	 edi

; 3255 : 			
; 3256 : 			return TRUE;

  0027d	b8 01 00 00 00	 mov	 eax, 1
  00282	5e		 pop	 esi

; 3261 : }

  00283	5d		 pop	 ebp
  00284	c2 04 00	 ret	 4
?DecPetItemExp@CItem@@QAEHH@Z ENDP			; CItem::DecPetItemExp
_TEXT	ENDS
; Function compile flags: /Ogtp
; File c:\users\michel\desktop\source\gameserver\common\zzzitem.cpp
;	COMDAT ?AddPetItemExp@CItem@@QAEHH@Z
_TEXT	SEGMENT
_petexp$ = 8						; size = 4
?AddPetItemExp@CItem@@QAEHH@Z PROC			; CItem::AddPetItemExp, COMDAT
; _this$ = ecx

; 3104 : {

  00000	55		 push	 ebp
  00001	8b ec		 mov	 ebp, esp
  00003	56		 push	 esi
  00004	8b f1		 mov	 esi, ecx
  00006	0f 57 c0	 xorps	 xmm0, xmm0

; 3105 : 	if ( m_Durability <= 0.0f )

  00009	0f 2f 46 24	 comiss	 xmm0, DWORD PTR [esi+36]
  0000d	73 74		 jae	 SHORT $LN33@AddPetItem

; 3106 : 	{
; 3107 : 		return FALSE;
; 3108 : 	}
; 3109 : 
; 3110 : 	if ( m_IsLoadPetItemInfo == 0 )

  0000f	83 be b4 00 00
	00 00		 cmp	 DWORD PTR [esi+180], 0
  00016	74 6b		 je	 SHORT $LN33@AddPetItem

; 3111 : 	{
; 3112 : 		return FALSE;
; 3113 : 	}
; 3114 : 
; 3115 : 	if ( m_PetItem_Level < 1 )

  00018	8b 8e b8 00 00
	00		 mov	 ecx, DWORD PTR [esi+184]
  0001e	83 f9 01	 cmp	 ecx, 1
  00021	7d 67		 jge	 SHORT $LN8@AddPetItem

; 3116 : 	{
; 3117 : 		m_PetItem_Level = 1;
; 3118 : 		m_PetItem_Exp = 0;
; 3119 : 		Convert(m_Type, m_Option1, m_Option2,

  00023	0f b6 86 c6 00
	00 00		 movzx	 eax, BYTE PTR [esi+198]
  0002a	8b ce		 mov	 ecx, esi
  0002c	6a 03		 push	 3
  0002e	68 ff 00 00 00	 push	 255			; 000000ffH
  00033	6a 00		 push	 0
  00035	50		 push	 eax
  00036	0f b6 86 aa 00
	00 00		 movzx	 eax, BYTE PTR [esi+170]
  0003d	50		 push	 eax
  0003e	0f b6 86 93 00
	00 00		 movzx	 eax, BYTE PTR [esi+147]
  00045	50		 push	 eax
  00046	0f b6 86 92 00
	00 00		 movzx	 eax, BYTE PTR [esi+146]
  0004d	50		 push	 eax
  0004e	0f b6 86 91 00
	00 00		 movzx	 eax, BYTE PTR [esi+145]
  00055	50		 push	 eax
  00056	0f b6 86 90 00
	00 00		 movzx	 eax, BYTE PTR [esi+144]
  0005d	50		 push	 eax
  0005e	0f bf 46 06	 movsx	 eax, WORD PTR [esi+6]
  00062	50		 push	 eax
  00063	c7 86 b8 00 00
	00 01 00 00 00	 mov	 DWORD PTR [esi+184], 1
  0006d	c7 86 bc 00 00
	00 00 00 00 00	 mov	 DWORD PTR [esi+188], 0
  00077	e8 00 00 00 00	 call	 ?Convert@CItem@@QAEXHEEEEEEPAEEE@Z ; CItem::Convert

; 3120 : 			m_Option3, m_NewOption, m_SetOption, m_ItemOptionEx, 0,-1,CURRENT_DB_VERSION);
; 3121 : 		PetValue();

  0007c	8b ce		 mov	 ecx, esi
  0007e	e8 00 00 00 00	 call	 ?PetValue@CItem@@QAEXXZ	; CItem::PetValue
$LN33@AddPetItem:

; 3122 : 
; 3123 : 		return FALSE;

  00083	33 c0		 xor	 eax, eax
  00085	5e		 pop	 esi

; 3190 : }

  00086	5d		 pop	 ebp
  00087	c2 04 00	 ret	 4
$LN8@AddPetItem:

; 3124 : 	}
; 3125 : 
; 3126 : 	if ( m_Type == ITEMGET(13,4) )

  0008a	0f b7 46 06	 movzx	 eax, WORD PTR [esi+6]
  0008e	ba 04 1a 00 00	 mov	 edx, 6660		; 00001a04H
  00093	57		 push	 edi
  00094	66 3b c2	 cmp	 ax, dx
  00097	0f 85 9f 00 00
	00		 jne	 $LN9@AddPetItem

; 3127 : 	{
; 3128 : 		if ( m_PetItem_Level >= MAX_PET_LEVEL )

  0009d	83 f9 32	 cmp	 ecx, 50			; 00000032H
  000a0	0f 8d 46 01 00
	00		 jge	 $LN17@AddPetItem

; 3129 : 		{
; 3130 : 			return FALSE;
; 3131 : 		}
; 3132 : 
; 3133 : 		BOOL ret = FALSE;
; 3134 : 		int maxexp = gPetItemExp.m_DarkHorseExpTable[1+m_PetItem_Level];

  000a6	8b 0c 8d d4 00
	00 00		 mov	 ecx, DWORD PTR ?gPetItemExp@@3VCPetItemExp@@A[ecx*4+212]
  000ad	33 d2		 xor	 edx, edx

; 3135 : 		m_PetItem_Exp += petexp;

  000af	8b 45 08	 mov	 eax, DWORD PTR _petexp$[ebp]
  000b2	01 86 bc 00 00
	00		 add	 DWORD PTR [esi+188], eax
  000b8	8b be bc 00 00
	00		 mov	 edi, DWORD PTR [esi+188]

; 3136 : 
; 3137 : 		while ( m_PetItem_Exp >= maxexp )

  000be	3b f9		 cmp	 edi, ecx
  000c0	0f 8c 26 01 00
	00		 jl	 $LN17@AddPetItem
  000c6	66 66 0f 1f 84
	00 00 00 00 00	 npad	 10
$LL2@AddPetItem:

; 3138 : 		{
; 3139 : 			m_PetItem_Level++;

  000d0	ff 86 b8 00 00
	00		 inc	 DWORD PTR [esi+184]
  000d6	8b 86 b8 00 00
	00		 mov	 eax, DWORD PTR [esi+184]

; 3140 : 
; 3141 : 			if(m_PetItem_Level >= MAX_PET_LEVEL)

  000dc	83 f8 32	 cmp	 eax, 50			; 00000032H
  000df	7d 10		 jge	 SHORT $LN21@AddPetItem

; 3142 : 				break;
; 3143 : 
; 3144 : 			maxexp = gPetItemExp.m_DarkHorseExpTable[1+m_PetItem_Level];
; 3145 : 			ret = TRUE;

  000e1	ba 01 00 00 00	 mov	 edx, 1
  000e6	3b 3c 85 d4 00
	00 00		 cmp	 edi, DWORD PTR ?gPetItemExp@@3VCPetItemExp@@A[eax*4+212]
  000ed	7d e1		 jge	 SHORT $LL2@AddPetItem

; 3146 : 		}
; 3147 : 
; 3148 : 		if ( ret != FALSE )

  000ef	eb 08		 jmp	 SHORT $LN29@AddPetItem
$LN21@AddPetItem:
  000f1	85 d2		 test	 edx, edx
  000f3	0f 84 f3 00 00
	00		 je	 $LN17@AddPetItem
$LN29@AddPetItem:

; 3149 : 		{
; 3150 : 		Convert(m_Type, m_Option1, m_Option2,

  000f9	0f b6 86 c6 00
	00 00		 movzx	 eax, BYTE PTR [esi+198]
  00100	6a 03		 push	 3
  00102	68 ff 00 00 00	 push	 255			; 000000ffH
  00107	6a 00		 push	 0
  00109	50		 push	 eax
  0010a	0f b6 86 aa 00
	00 00		 movzx	 eax, BYTE PTR [esi+170]
  00111	50		 push	 eax
  00112	0f b6 86 93 00
	00 00		 movzx	 eax, BYTE PTR [esi+147]
  00119	50		 push	 eax
  0011a	0f b6 86 92 00
	00 00		 movzx	 eax, BYTE PTR [esi+146]
  00121	50		 push	 eax
  00122	0f b6 86 91 00
	00 00		 movzx	 eax, BYTE PTR [esi+145]
  00129	50		 push	 eax
  0012a	0f b6 86 90 00
	00 00		 movzx	 eax, BYTE PTR [esi+144]
  00131	50		 push	 eax
  00132	68 04 1a 00 00	 push	 6660			; 00001a04H

; 3151 : 			m_Option3, m_NewOption, m_SetOption, m_ItemOptionEx,0,-1, CURRENT_DB_VERSION);
; 3152 : 		PetValue();
; 3153 : 
; 3154 : 		return TRUE;

  00137	e9 97 00 00 00	 jmp	 $LN32@AddPetItem
$LN9@AddPetItem:

; 3155 : 		}
; 3156 : 	}
; 3157 : 	else if ( m_Type == ITEMGET(13,5) )

  0013c	ba 05 1a 00 00	 mov	 edx, 6661		; 00001a05H
  00141	66 3b c2	 cmp	 ax, dx
  00144	0f 85 a2 00 00
	00		 jne	 $LN17@AddPetItem

; 3158 : 	{
; 3159 : 		if ( m_PetItem_Level >= MAX_PET_LEVEL )

  0014a	83 f9 32	 cmp	 ecx, 50			; 00000032H
  0014d	0f 8d 99 00 00
	00		 jge	 $LN17@AddPetItem

; 3160 : 		{
; 3161 : 			return FALSE;
; 3162 : 		}
; 3163 : 
; 3164 : 		BOOL ret = FALSE;
; 3165 : 		int maxexp = gPetItemExp.m_DarkSpiritExpTable[1+m_PetItem_Level];

  00153	8b 0c 8d 04 00
	00 00		 mov	 ecx, DWORD PTR ?gPetItemExp@@3VCPetItemExp@@A[ecx*4+4]
  0015a	33 d2		 xor	 edx, edx

; 3166 : 		m_PetItem_Exp += petexp;

  0015c	8b 45 08	 mov	 eax, DWORD PTR _petexp$[ebp]
  0015f	01 86 bc 00 00
	00		 add	 DWORD PTR [esi+188], eax
  00165	8b be bc 00 00
	00		 mov	 edi, DWORD PTR [esi+188]

; 3167 : 
; 3168 : 		while ( m_PetItem_Exp >= maxexp )

  0016b	3b f9		 cmp	 edi, ecx
  0016d	7c 7d		 jl	 SHORT $LN17@AddPetItem
  0016f	90		 npad	 1
$LL4@AddPetItem:

; 3169 : 		{
; 3170 : 			m_PetItem_Level++;

  00170	ff 86 b8 00 00
	00		 inc	 DWORD PTR [esi+184]
  00176	8b 86 b8 00 00
	00		 mov	 eax, DWORD PTR [esi+184]

; 3171 : 
; 3172 : 			if(m_PetItem_Level >= MAX_PET_LEVEL)

  0017c	83 f8 32	 cmp	 eax, 50			; 00000032H
  0017f	7d 10		 jge	 SHORT $LN22@AddPetItem

; 3173 : 				break;
; 3174 : 
; 3175 : 			maxexp = gPetItemExp.m_DarkSpiritExpTable[1+m_PetItem_Level];
; 3176 : 			ret = TRUE;

  00181	ba 01 00 00 00	 mov	 edx, 1
  00186	3b 3c 85 04 00
	00 00		 cmp	 edi, DWORD PTR ?gPetItemExp@@3VCPetItemExp@@A[eax*4+4]
  0018d	7d e1		 jge	 SHORT $LL4@AddPetItem

; 3177 : 		}
; 3178 : 
; 3179 : 		if ( ret != FALSE )

  0018f	eb 04		 jmp	 SHORT $LN30@AddPetItem
$LN22@AddPetItem:
  00191	85 d2		 test	 edx, edx
  00193	74 57		 je	 SHORT $LN17@AddPetItem
$LN30@AddPetItem:

; 3180 : 		{
; 3181 : 		Convert(m_Type, m_Option1, m_Option2,

  00195	0f b6 86 c6 00
	00 00		 movzx	 eax, BYTE PTR [esi+198]
  0019c	6a 03		 push	 3
  0019e	68 ff 00 00 00	 push	 255			; 000000ffH
  001a3	6a 00		 push	 0
  001a5	50		 push	 eax
  001a6	0f b6 86 aa 00
	00 00		 movzx	 eax, BYTE PTR [esi+170]
  001ad	50		 push	 eax
  001ae	0f b6 86 93 00
	00 00		 movzx	 eax, BYTE PTR [esi+147]
  001b5	50		 push	 eax
  001b6	0f b6 86 92 00
	00 00		 movzx	 eax, BYTE PTR [esi+146]
  001bd	50		 push	 eax
  001be	0f b6 86 91 00
	00 00		 movzx	 eax, BYTE PTR [esi+145]
  001c5	50		 push	 eax
  001c6	0f b6 86 90 00
	00 00		 movzx	 eax, BYTE PTR [esi+144]
  001cd	50		 push	 eax
  001ce	68 05 1a 00 00	 push	 6661			; 00001a05H
$LN32@AddPetItem:
  001d3	8b ce		 mov	 ecx, esi
  001d5	e8 00 00 00 00	 call	 ?Convert@CItem@@QAEXHEEEEEEPAEEE@Z ; CItem::Convert

; 3182 : 			m_Option3, m_NewOption, m_SetOption, m_ItemOptionEx, 0,-1,CURRENT_DB_VERSION);
; 3183 : 		PetValue();

  001da	8b ce		 mov	 ecx, esi
  001dc	e8 00 00 00 00	 call	 ?PetValue@CItem@@QAEXXZ	; CItem::PetValue
  001e1	5f		 pop	 edi

; 3184 : 
; 3185 : 		return TRUE;

  001e2	b8 01 00 00 00	 mov	 eax, 1
  001e7	5e		 pop	 esi

; 3190 : }

  001e8	5d		 pop	 ebp
  001e9	c2 04 00	 ret	 4
$LN17@AddPetItem:
  001ec	5f		 pop	 edi

; 3186 : 		}
; 3187 : 	}
; 3188 : 
; 3189 : 	return FALSE;

  001ed	33 c0		 xor	 eax, eax
  001ef	5e		 pop	 esi

; 3190 : }

  001f0	5d		 pop	 ebp
  001f1	c2 04 00	 ret	 4
?AddPetItemExp@CItem@@QAEHH@Z ENDP			; CItem::AddPetItemExp
_TEXT	ENDS
; Function compile flags: /Ogtp
; File c:\users\michel\desktop\source\gameserver\common\zzzitem.cpp
;	COMDAT ?SetPetItemInfo@CItem@@QAEXHH@Z
_TEXT	SEGMENT
_petlevel$ = 8						; size = 4
_petexp$ = 12						; size = 4
?SetPetItemInfo@CItem@@QAEXHH@Z PROC			; CItem::SetPetItemInfo, COMDAT
; _this$ = ecx

; 3066 : {

  00000	55		 push	 ebp
  00001	8b ec		 mov	 ebp, esp
  00003	56		 push	 esi
  00004	8b f1		 mov	 esi, ecx

; 3067 : 	if ( m_Type == ITEMGET(13,4) )

  00006	b9 04 1a 00 00	 mov	 ecx, 6660		; 00001a04H
  0000b	0f b7 46 06	 movzx	 eax, WORD PTR [esi+6]
  0000f	66 3b c1	 cmp	 ax, cx
  00012	75 6c		 jne	 SHORT $LN2@SetPetItem

; 3068 : 	{
; 3069 : 		m_PetItem_Level = petlevel;

  00014	8b 45 08	 mov	 eax, DWORD PTR _petlevel$[ebp]

; 3070 : 		m_PetItem_Exp = petexp;

  00017	8b 4d 0c	 mov	 ecx, DWORD PTR _petexp$[ebp]
  0001a	89 86 b8 00 00
	00		 mov	 DWORD PTR [esi+184], eax
  00020	89 8e bc 00 00
	00		 mov	 DWORD PTR [esi+188], ecx

; 3071 : 
; 3072 : 		if ( m_PetItem_Exp < gPetItemExp.m_DarkHorseExpTable[m_PetItem_Level] || m_PetItem_Exp >= gPetItemExp.m_DarkHorseExpTable[1+m_PetItem_Level] )

  00026	8b 14 85 d0 00
	00 00		 mov	 edx, DWORD PTR ?gPetItemExp@@3VCPetItemExp@@A[eax*4+208]
  0002d	3b ca		 cmp	 ecx, edx
  0002f	7c 09		 jl	 SHORT $LN5@SetPetItem
  00031	3b 0c 85 d4 00
	00 00		 cmp	 ecx, DWORD PTR ?gPetItemExp@@3VCPetItemExp@@A[eax*4+212]
  00038	7c 06		 jl	 SHORT $LN4@SetPetItem
$LN5@SetPetItem:

; 3073 : 		{
; 3074 : 			m_PetItem_Exp = gPetItemExp.m_DarkHorseExpTable[m_PetItem_Level];

  0003a	89 96 bc 00 00
	00		 mov	 DWORD PTR [esi+188], edx
$LN4@SetPetItem:

; 3075 : 		}
; 3076 : 
; 3077 : 		Convert(m_Type, m_Option1, m_Option2,

  00040	0f b6 86 c6 00
	00 00		 movzx	 eax, BYTE PTR [esi+198]
  00047	6a 03		 push	 3
  00049	68 ff 00 00 00	 push	 255			; 000000ffH
  0004e	6a 00		 push	 0
  00050	50		 push	 eax
  00051	0f b6 86 aa 00
	00 00		 movzx	 eax, BYTE PTR [esi+170]
  00058	50		 push	 eax
  00059	0f b6 86 93 00
	00 00		 movzx	 eax, BYTE PTR [esi+147]
  00060	50		 push	 eax
  00061	0f b6 86 92 00
	00 00		 movzx	 eax, BYTE PTR [esi+146]
  00068	50		 push	 eax
  00069	0f b6 86 91 00
	00 00		 movzx	 eax, BYTE PTR [esi+145]
  00070	50		 push	 eax
  00071	0f b6 86 90 00
	00 00		 movzx	 eax, BYTE PTR [esi+144]
  00078	50		 push	 eax
  00079	68 04 1a 00 00	 push	 6660			; 00001a04H

; 3078 : 			m_Option3, m_NewOption, m_SetOption, m_ItemOptionEx, 0,-1,CURRENT_DB_VERSION);
; 3079 : 		PetValue();
; 3080 : 		m_IsLoadPetItemInfo = 1;

  0007e	eb 78		 jmp	 SHORT $LN10@SetPetItem
$LN2@SetPetItem:

; 3081 : 	}
; 3082 : 	else if ( m_Type == ITEMGET(13,5) )

  00080	b9 05 1a 00 00	 mov	 ecx, 6661		; 00001a05H
  00085	66 3b c1	 cmp	 ax, cx
  00088	0f 85 82 00 00
	00		 jne	 $LN6@SetPetItem

; 3083 : 	{
; 3084 : 		m_PetItem_Level = petlevel;

  0008e	8b 45 08	 mov	 eax, DWORD PTR _petlevel$[ebp]

; 3085 : 		m_PetItem_Exp = petexp;

  00091	8b 4d 0c	 mov	 ecx, DWORD PTR _petexp$[ebp]
  00094	89 86 b8 00 00
	00		 mov	 DWORD PTR [esi+184], eax
  0009a	89 8e bc 00 00
	00		 mov	 DWORD PTR [esi+188], ecx

; 3086 : 
; 3087 : 		if ( m_PetItem_Exp < gPetItemExp.m_DarkSpiritExpTable[m_PetItem_Level] || m_PetItem_Exp >= gPetItemExp.m_DarkSpiritExpTable[1+m_PetItem_Level] )

  000a0	8b 14 85 00 00
	00 00		 mov	 edx, DWORD PTR ?gPetItemExp@@3VCPetItemExp@@A[eax*4]
  000a7	3b ca		 cmp	 ecx, edx
  000a9	7c 09		 jl	 SHORT $LN8@SetPetItem
  000ab	3b 0c 85 04 00
	00 00		 cmp	 ecx, DWORD PTR ?gPetItemExp@@3VCPetItemExp@@A[eax*4+4]
  000b2	7c 06		 jl	 SHORT $LN7@SetPetItem
$LN8@SetPetItem:

; 3088 : 		{
; 3089 : 			m_PetItem_Exp = gPetItemExp.m_DarkSpiritExpTable[m_PetItem_Level];

  000b4	89 96 bc 00 00
	00		 mov	 DWORD PTR [esi+188], edx
$LN7@SetPetItem:

; 3090 : 		}
; 3091 : 
; 3092 : 		Convert(m_Type, m_Option1, m_Option2,

  000ba	0f b6 86 c6 00
	00 00		 movzx	 eax, BYTE PTR [esi+198]
  000c1	6a 03		 push	 3
  000c3	68 ff 00 00 00	 push	 255			; 000000ffH
  000c8	6a 00		 push	 0
  000ca	50		 push	 eax
  000cb	0f b6 86 aa 00
	00 00		 movzx	 eax, BYTE PTR [esi+170]
  000d2	50		 push	 eax
  000d3	0f b6 86 93 00
	00 00		 movzx	 eax, BYTE PTR [esi+147]
  000da	50		 push	 eax
  000db	0f b6 86 92 00
	00 00		 movzx	 eax, BYTE PTR [esi+146]
  000e2	50		 push	 eax
  000e3	0f b6 86 91 00
	00 00		 movzx	 eax, BYTE PTR [esi+145]
  000ea	50		 push	 eax
  000eb	0f b6 86 90 00
	00 00		 movzx	 eax, BYTE PTR [esi+144]
  000f2	50		 push	 eax
  000f3	68 05 1a 00 00	 push	 6661			; 00001a05H
$LN10@SetPetItem:
  000f8	8b ce		 mov	 ecx, esi
  000fa	e8 00 00 00 00	 call	 ?Convert@CItem@@QAEXHEEEEEEPAEEE@Z ; CItem::Convert

; 3093 : 			m_Option3, m_NewOption, m_SetOption, m_ItemOptionEx, 0,-1,CURRENT_DB_VERSION);
; 3094 : 
; 3095 : 		PetValue();

  000ff	8b ce		 mov	 ecx, esi
  00101	e8 00 00 00 00	 call	 ?PetValue@CItem@@QAEXXZ	; CItem::PetValue

; 3096 : 		m_IsLoadPetItemInfo = 1;

  00106	c7 86 b4 00 00
	00 01 00 00 00	 mov	 DWORD PTR [esi+180], 1
$LN6@SetPetItem:
  00110	5e		 pop	 esi

; 3097 : 	}
; 3098 : }

  00111	5d		 pop	 ebp
  00112	c2 08 00	 ret	 8
?SetPetItemInfo@CItem@@QAEXHH@Z ENDP			; CItem::SetPetItemInfo
_TEXT	ENDS
; Function compile flags: /Ogtp
; File c:\users\michel\desktop\source\gameserver\common\zzzitem.cpp
;	COMDAT ?GetAddStatType@CItem@@QAEHXZ
_TEXT	SEGMENT
?GetAddStatType@CItem@@QAEHXZ PROC			; CItem::GetAddStatType, COMDAT
; _this$ = ecx

; 3044 : 	LPITEM_ATTRIBUTE p;
; 3045 : 	p = &ItemAttribute[m_Type];

  00000	0f bf 41 06	 movsx	 eax, WORD PTR [ecx+6]
  00004	6b c0 70	 imul	 eax, eax, 112

; 3046 : 	return p->SetAttr;

  00007	0f b6 80 61 00
	00 00		 movzx	 eax, BYTE PTR ?ItemAttribute@@3PAUITEM_ATTRIBUTE@@A[eax+97]

; 3047 : }

  0000e	c3		 ret	 0
?GetAddStatType@CItem@@QAEHXZ ENDP			; CItem::GetAddStatType
_TEXT	ENDS
; Function compile flags: /Ogtp
; File c:\users\michel\desktop\source\gameserver\common\zzzitem.cpp
;	COMDAT ?IsSetItem@CItem@@QAEHXZ
_TEXT	SEGMENT
?IsSetItem@CItem@@QAEHXZ PROC				; CItem::IsSetItem, COMDAT
; _this$ = ecx

; 108  : 	if (m_Type < 0)

  00000	66 83 79 06 00	 cmp	 WORD PTR [ecx+6], 0
  00005	7d 03		 jge	 SHORT $LN2@IsSetItem

; 109  : 	{
; 110  : 		return 0;

  00007	33 c0		 xor	 eax, eax

; 115  : 	}
; 116  : }

  00009	c3		 ret	 0
$LN2@IsSetItem:

; 111  : 	}
; 112  : 	else
; 113  : 	{
; 114  : 		return m_SetOption & 3;	// Limit of the SetItem

  0000a	0f b6 81 aa 00
	00 00		 movzx	 eax, BYTE PTR [ecx+170]
  00011	83 e0 03	 and	 eax, 3

; 115  : 	}
; 116  : }

  00014	c3		 ret	 0
?IsSetItem@CItem@@QAEHXZ ENDP				; CItem::IsSetItem
_TEXT	ENDS
; Function compile flags: /Ogtp
; File c:\users\michel\desktop\source\gameserver\common\zzzitem.cpp
;	COMDAT ?IsItem@CItem@@QAEHXZ
_TEXT	SEGMENT
?IsItem@CItem@@QAEHXZ PROC				; CItem::IsItem, COMDAT
; _this$ = ecx

; 96   : 	if (m_Type < 0)

  00000	33 c0		 xor	 eax, eax
  00002	66 39 41 06	 cmp	 WORD PTR [ecx+6], ax
  00006	0f 9d c0	 setge	 al

; 97   : 	{
; 98   : 		return 0;
; 99   : 	}
; 100  : 	else
; 101  : 	{
; 102  : 		return 1;
; 103  : 	}
; 104  : }

  00009	c3		 ret	 0
?IsItem@CItem@@QAEHXZ ENDP				; CItem::IsItem
_TEXT	ENDS
; Function compile flags: /Ogtp
; File c:\users\michel\desktop\source\gameserver\common\zzzitem.cpp
;	COMDAT ?Clear@CItem@@QAEXXZ
_TEXT	SEGMENT
?Clear@CItem@@QAEXXZ PROC				; CItem::Clear, COMDAT
; _this$ = ecx

; 42   : 	m_Type =-1;
; 43   : 	m_Level =0;

  00000	33 c0		 xor	 eax, eax

; 44   : 	m_Part=0;
; 45   : 	m_Class=0;
; 46   : 	m_TwoHand=0;
; 47   : 	m_AttackSpeed=0;
; 48   : 	m_DamageMin=0;
; 49   : 	m_DamageMax=0;
; 50   : 	m_SuccessfulBlocking=0;
; 51   : 	m_Defense=0;
; 52   : 	m_MagicDefense =0;
; 53   : 	m_Durability=0;
; 54   : 	m_SpecialNum=0;
; 55   : 	m_Value=0;
; 56   : 	m_Option1 =0;
; 57   : 	m_Option2 =0;
; 58   : 	m_Option3 =0;
; 59   : 	m_NewOption =0;
; 60   : 	m_Number =0;
; 61   : 	m_DurabilitySmall =0;
; 62   : 	m_iPShopValue=-1;
; 63   : 	m_PShopBlessValue = -1;
; 64   : 	m_PShopSoulValue = -1;
; 65   : 	m_PShopChaosValue = -1;
; 66   : 	m_bItemExist=true;

  00002	c6 81 86 00 00
	00 01		 mov	 BYTE PTR [ecx+134], 1
  00009	83 ca ff	 or	 edx, -1
  0000c	89 41 08	 mov	 DWORD PTR [ecx+8], eax
  0000f	66 89 51 06	 mov	 WORD PTR [ecx+6], dx
  00013	0f 57 c0	 xorps	 xmm0, xmm0
  00016	66 89 41 0c	 mov	 WORD PTR [ecx+12], ax
  0001a	89 41 10	 mov	 DWORD PTR [ecx+16], eax
  0001d	88 41 14	 mov	 BYTE PTR [ecx+20], al
  00020	89 41 16	 mov	 DWORD PTR [ecx+22], eax
  00023	89 41 24	 mov	 DWORD PTR [ecx+36], eax
  00026	88 41 30	 mov	 BYTE PTR [ecx+48], al
  00029	89 41 70	 mov	 DWORD PTR [ecx+112], eax
  0002c	89 81 90 00 00
	00		 mov	 DWORD PTR [ecx+144], eax
  00032	89 01		 mov	 DWORD PTR [ecx], eax
  00034	66 89 41 28	 mov	 WORD PTR [ecx+40], ax
  00038	89 51 7c	 mov	 DWORD PTR [ecx+124], edx
  0003b	66 89 91 80 00
	00 00		 mov	 WORD PTR [ecx+128], dx
  00042	66 89 91 82 00
	00 00		 mov	 WORD PTR [ecx+130], dx
  00049	66 89 91 84 00
	00 00		 mov	 WORD PTR [ecx+132], dx

; 67   : 	m_CurrentDurabilityState=-1;

  00050	c7 81 a4 00 00
	00 00 00 80 bf	 mov	 DWORD PTR [ecx+164], -1082130432 ; bf800000H

; 68   : 	m_SetOption=0;
; 69   : 	m_QuestItem=false;

  0005a	66 89 81 a9 00
	00 00		 mov	 WORD PTR [ecx+169], ax

; 70   : 
; 71   : 
; 72   : 	memset(this->m_Special, 0, sizeof(this->m_Special));

  00061	0f 11 41 32	 movups	 XMMWORD PTR [ecx+50], xmm0

; 73   : 	memset(this->m_SpecialValue, 0, sizeof(this->m_SpecialValue));

  00065	0f 11 41 42	 movups	 XMMWORD PTR [ecx+66], xmm0

; 74   : 	memset(this->m_Resistance, 0, sizeof(this->m_Resistance));

  00069	89 41 67	 mov	 DWORD PTR [ecx+103], eax
  0006c	66 89 41 6b	 mov	 WORD PTR [ecx+107], ax
  00070	88 41 6d	 mov	 BYTE PTR [ecx+109], al

; 75   : 
; 76   : 	m_IsLoadPetItemInfo=0;

  00073	89 81 b4 00 00
	00		 mov	 DWORD PTR [ecx+180], eax

; 77   : 	m_PetItem_Level =1;

  00079	c7 81 b8 00 00
	00 01 00 00 00	 mov	 DWORD PTR [ecx+184], 1

; 78   : 	m_PetItem_Exp =0;

  00083	89 81 bc 00 00
	00		 mov	 DWORD PTR [ecx+188], eax

; 79   : 	m_Leadership=0;

  00089	66 89 41 5e	 mov	 WORD PTR [ecx+94], ax

; 80   : 	m_JewelOfHarmonyOption = 0;

  0008d	88 81 c0 00 00
	00		 mov	 BYTE PTR [ecx+192], al

; 81   : 	m_ItemOptionEx = 0;

  00093	66 c7 81 c6 00
	00 00 00 ff	 mov	 WORD PTR [ecx+198], 65280 ; 0000ff00H

; 82   : 
; 83   : 	m_SocketBonus = 0xFF;
; 84   : 	memset(m_SocketOption,0xFF,sizeof(m_SocketOption));

  0009c	89 91 c8 00 00
	00		 mov	 DWORD PTR [ecx+200], edx
  000a2	c7 81 cc 00 00
	00 ff 00 00 00	 mov	 DWORD PTR [ecx+204], 255 ; 000000ffH

; 85   : 	m_BonusDurability = 0;
; 86   : 	m_bLuckySet = 0;
; 87   : 
; 88   : 	m_bPeriodItem = 0;
; 89   : 	m_bExpired = 0;

  000ac	66 89 81 d0 00
	00 00		 mov	 WORD PTR [ecx+208], ax

; 90   : 
; 91   : 	m_bLOCKED = 0;
; 92   : }

  000b3	c3		 ret	 0
?Clear@CItem@@QAEXXZ ENDP				; CItem::Clear
_TEXT	ENDS
; Function compile flags: /Ogtp
; File c:\users\michel\desktop\source\gameserver\common\zzzitem.cpp
;	COMDAT ?GetSize@CItem@@QAEHAAH0@Z
_TEXT	SEGMENT
_w$ = 8							; size = 4
_h$ = 12						; size = 4
?GetSize@CItem@@QAEHAAH0@Z PROC				; CItem::GetSize, COMDAT
; _this$ = ecx

; 2742 : {

  00000	55		 push	 ebp
  00001	8b ec		 mov	 ebp, esp

; 2743 : 	w=ItemAttribute[m_Type].Width  ;

  00003	0f bf 41 06	 movsx	 eax, WORD PTR [ecx+6]
  00007	6b c0 70	 imul	 eax, eax, 112
  0000a	0f b6 90 23 00
	00 00		 movzx	 edx, BYTE PTR ?ItemAttribute@@3PAUITEM_ATTRIBUTE@@A[eax+35]
  00011	8b 45 08	 mov	 eax, DWORD PTR _w$[ebp]
  00014	89 10		 mov	 DWORD PTR [eax], edx

; 2744 : 	h=ItemAttribute[m_Type].Height  ;

  00016	0f bf 41 06	 movsx	 eax, WORD PTR [ecx+6]
  0001a	6b c0 70	 imul	 eax, eax, 112
  0001d	0f b6 88 24 00
	00 00		 movzx	 ecx, BYTE PTR ?ItemAttribute@@3PAUITEM_ATTRIBUTE@@A[eax+36]
  00024	8b 45 0c	 mov	 eax, DWORD PTR _h$[ebp]
  00027	89 08		 mov	 DWORD PTR [eax], ecx

; 2745 : 
; 2746 : 	return 1;

  00029	b8 01 00 00 00	 mov	 eax, 1

; 2747 : }

  0002e	5d		 pop	 ebp
  0002f	c2 08 00	 ret	 8
?GetSize@CItem@@QAEHAAH0@Z ENDP				; CItem::GetSize
_TEXT	ENDS
; Function compile flags: /Ogtp
; File c:\users\michel\desktop\source\gameserver\common\zzzitem.cpp
;	COMDAT ?OldValue@CItem@@QAEXXZ
_TEXT	SEGMENT
?OldValue@CItem@@QAEXXZ PROC				; CItem::OldValue, COMDAT
; _this$ = ecx

; 2695 : {

  00000	56		 push	 esi
  00001	8b f1		 mov	 esi, ecx

; 2696 : 	if ( m_Type == -1 )

  00003	0f b7 46 06	 movzx	 eax, WORD PTR [esi+6]
  00007	66 83 f8 ff	 cmp	 ax, -1
  0000b	0f 84 a2 00 00
	00		 je	 $LN15@OldValue

; 2697 : 	{
; 2698 : 		return;
; 2699 : 	}
; 2700 : 
; 2701 : 	int Gold = 0;
; 2702 : 
; 2703 : 	if ( m_Type == ITEMGET(14,13) ) // Bless

  00011	b9 0d 1c 00 00	 mov	 ecx, 7181		; 00001c0dH
  00016	66 3b c1	 cmp	 ax, cx
  00019	75 07		 jne	 SHORT $LN3@OldValue

; 2704 : 	{
; 2705 : 		Gold = 100000;

  0001b	b9 a0 86 01 00	 mov	 ecx, 100000		; 000186a0H
  00020	eb 3b		 jmp	 SHORT $LN12@OldValue
$LN3@OldValue:

; 2706 : 	}
; 2707 : 	else if ( m_Type == ITEMGET(14,14) ) // Soul

  00022	b9 0e 1c 00 00	 mov	 ecx, 7182		; 00001c0eH
  00027	66 3b c1	 cmp	 ax, cx
  0002a	75 07		 jne	 SHORT $LN5@OldValue

; 2708 : 	{
; 2709 : 		Gold = 70000;

  0002c	b9 70 11 01 00	 mov	 ecx, 70000		; 00011170H
  00031	eb 2a		 jmp	 SHORT $LN12@OldValue
$LN5@OldValue:

; 2710 : 	}
; 2711 : 	else if ( m_Type == ITEMGET(12,15) ) // Chaos

  00033	b9 0f 18 00 00	 mov	 ecx, 6159		; 0000180fH
  00038	66 3b c1	 cmp	 ax, cx
  0003b	75 07		 jne	 SHORT $LN7@OldValue

; 2712 : 	{
; 2713 : 		Gold = 40000;

  0003d	b9 40 9c 00 00	 mov	 ecx, 40000		; 00009c40H
  00042	eb 19		 jmp	 SHORT $LN12@OldValue
$LN7@OldValue:

; 2714 : 	}
; 2715 : 	else if ( m_Type == ITEMGET(14,22) ) // Creation

  00044	b9 16 1c 00 00	 mov	 ecx, 7190		; 00001c16H
  00049	66 3b c1	 cmp	 ax, cx
  0004c	74 0a		 je	 SHORT $LN17@OldValue

; 2716 : 	{
; 2717 : 		Gold = 450000;
; 2718 : 	}
; 2719 : 	else if ( m_Type == ITEMGET(14,16) ) // Life

  0004e	b9 10 1c 00 00	 mov	 ecx, 7184		; 00001c10H
  00053	66 3b c1	 cmp	 ax, cx
  00056	75 52		 jne	 SHORT $LN11@OldValue
$LN17@OldValue:

; 2720 : 	{
; 2721 : 		Gold = 450000;

  00058	b9 d0 dd 06 00	 mov	 ecx, 450000		; 0006ddd0H
$LN12@OldValue:

; 2726 : 		return;
; 2727 : 	}
; 2728 : 
; 2729 : 	m_OldBuyMoney = Gold;

  0005d	89 8e 8c 00 00
	00		 mov	 DWORD PTR [esi+140], ecx

; 2730 : 
; 2731 : 	if ( m_OldBuyMoney >= 1000 )

  00063	81 f9 e8 03 00
	00		 cmp	 ecx, 1000		; 000003e8H
  00069	7c 1c		 jl	 SHORT $LN13@OldValue

; 2732 : 	{
; 2733 : 		m_OldBuyMoney = m_OldBuyMoney /100*100;

  0006b	b8 1f 85 eb 51	 mov	 eax, 1374389535		; 51eb851fH
  00070	f7 e9		 imul	 ecx
  00072	c1 fa 05	 sar	 edx, 5
  00075	8b c2		 mov	 eax, edx
  00077	c1 e8 1f	 shr	 eax, 31			; 0000001fH
  0007a	03 c2		 add	 eax, edx
  0007c	6b c0 64	 imul	 eax, eax, 100
  0007f	89 86 8c 00 00
	00		 mov	 DWORD PTR [esi+140], eax
  00085	5e		 pop	 esi

; 2738 : 	}
; 2739 : }

  00086	c3		 ret	 0
$LN13@OldValue:

; 2734 : 	}
; 2735 : 	else if ( m_OldBuyMoney >= 100 )

  00087	83 f9 64	 cmp	 ecx, 100		; 00000064H
  0008a	7c 27		 jl	 SHORT $LN15@OldValue

; 2736 : 	{
; 2737 : 		m_OldBuyMoney = m_OldBuyMoney / 10 * 10;

  0008c	b8 67 66 66 66	 mov	 eax, 1717986919		; 66666667H
  00091	f7 e9		 imul	 ecx
  00093	c1 fa 02	 sar	 edx, 2
  00096	8b c2		 mov	 eax, edx
  00098	c1 e8 1f	 shr	 eax, 31			; 0000001fH
  0009b	03 c2		 add	 eax, edx
  0009d	8d 04 80	 lea	 eax, DWORD PTR [eax+eax*4]
  000a0	03 c0		 add	 eax, eax
  000a2	89 86 8c 00 00
	00		 mov	 DWORD PTR [esi+140], eax
  000a8	5e		 pop	 esi

; 2738 : 	}
; 2739 : }

  000a9	c3		 ret	 0
$LN11@OldValue:

; 2722 : 	}
; 2723 : 	else
; 2724 : 	{
; 2725 : 		m_OldBuyMoney = m_BuyMoney;

  000aa	8b 46 78	 mov	 eax, DWORD PTR [esi+120]
  000ad	89 86 8c 00 00
	00		 mov	 DWORD PTR [esi+140], eax
$LN15@OldValue:
  000b3	5e		 pop	 esi

; 2738 : 	}
; 2739 : }

  000b4	c3		 ret	 0
?OldValue@CItem@@QAEXXZ ENDP				; CItem::OldValue
_TEXT	ENDS
; Function compile flags: /Ogtp
; File c:\users\michel\desktop\source\gameserver\common\zzzitem.cpp
;	COMDAT ?Value@CItem@@QAEXXZ
_TEXT	SEGMENT
_Gold$7$ = -40						; size = 4
tv2011 = -40						; size = 4
_this$1$ = -36						; size = 4
_p$1$ = -32						; size = 4
tv1997 = -32						; size = 4
_addzen$1$ = -28					; size = 4
tv2002 = -28						; size = 4
tv2000 = -28						; size = 4
tv1896 = -28						; size = 4
_count$1$ = -24						; size = 4
tv1955 = -24						; size = 4
tv1908 = -24						; size = 4
_Type$1$ = -24						; size = 4
tv1993 = -20						; size = 4
tv2008 = -16						; size = 4
tv1587 = -16						; size = 4
_Level$1$ = -12						; size = 4
tv2405 = -12						; size = 4
_Gold$ = -8						; size = 8
?Value@CItem@@QAEXXZ PROC				; CItem::Value, COMDAT
; _this$ = ecx

; 1783 : {

  00000	55		 push	 ebp
  00001	8b ec		 mov	 ebp, esp
  00003	83 e4 f8	 and	 esp, -8			; fffffff8H
  00006	83 ec 2c	 sub	 esp, 44			; 0000002cH
  00009	53		 push	 ebx
  0000a	8b d9		 mov	 ebx, ecx
  0000c	56		 push	 esi
  0000d	57		 push	 edi
  0000e	89 5c 24 14	 mov	 DWORD PTR _this$1$[esp+56], ebx

; 1784 : 	if ( m_Type == -1 )

  00012	0f b7 73 06	 movzx	 esi, WORD PTR [ebx+6]
  00016	66 83 fe ff	 cmp	 si, -1
  0001a	0f 84 93 13 00
	00		 je	 $LN342@Value

; 1785 : 	{
; 1786 : 		return;
; 1787 : 	}
; 1788 : 
; 1789 : 	LPITEM_ATTRIBUTE p = &ItemAttribute[m_Type];

  00020	0f bf fe	 movsx	 edi, si
  00023	6b cf 70	 imul	 ecx, edi, 112
  00026	89 7c 24 28	 mov	 DWORD PTR tv2008[esp+56], edi
  0002a	81 c1 00 00 00
	00		 add	 ecx, OFFSET ?ItemAttribute@@3PAUITEM_ATTRIBUTE@@A ; ItemAttribute
  00030	89 4c 24 18	 mov	 DWORD PTR _p$1$[esp+56], ecx

; 1790 : 
; 1791 : 	if( p->BuyMoney != 0 )

  00034	8b 41 50	 mov	 eax, DWORD PTR [ecx+80]
  00037	85 c0		 test	 eax, eax
  00039	0f 84 8b 00 00
	00		 je	 $LN51@Value

; 1792 : 	{
; 1793 : 		m_SellMoney = p->BuyMoney;

  0003f	89 43 74	 mov	 DWORD PTR [ebx+116], eax

; 1794 : 		m_BuyMoney = p->BuyMoney;

  00042	8b 41 50	 mov	 eax, DWORD PTR [ecx+80]
  00045	89 43 78	 mov	 DWORD PTR [ebx+120], eax

; 1795 : 		m_SellMoney /= 3;

  00048	b8 ab aa aa aa	 mov	 eax, -1431655765	; aaaaaaabH
  0004d	f7 63 74	 mul	 DWORD PTR [ebx+116]
  00050	d1 ea		 shr	 edx, 1
  00052	89 53 74	 mov	 DWORD PTR [ebx+116], edx

; 1796 : 		
; 1797 : 		if ( m_SellMoney >= 1000 )

  00055	81 fa e8 03 00
	00		 cmp	 edx, 1000		; 000003e8H
  0005b	72 12		 jb	 SHORT $LN52@Value

; 1798 : 		{
; 1799 : 			m_SellMoney = m_SellMoney/100*100;

  0005d	b8 1f 85 eb 51	 mov	 eax, 1374389535		; 51eb851fH
  00062	f7 e2		 mul	 edx
  00064	c1 ea 05	 shr	 edx, 5
  00067	6b c2 64	 imul	 eax, edx, 100
  0006a	89 43 74	 mov	 DWORD PTR [ebx+116], eax
  0006d	eb 17		 jmp	 SHORT $LN54@Value
$LN52@Value:

; 1800 : 		}
; 1801 : 		else if ( m_SellMoney >= 100 )

  0006f	83 fa 64	 cmp	 edx, 100		; 00000064H
  00072	72 12		 jb	 SHORT $LN54@Value

; 1802 : 		{
; 1803 : 			m_SellMoney = m_SellMoney/10*10;

  00074	b8 cd cc cc cc	 mov	 eax, -858993459		; cccccccdH
  00079	f7 e2		 mul	 edx
  0007b	c1 ea 03	 shr	 edx, 3
  0007e	8d 0c 92	 lea	 ecx, DWORD PTR [edx+edx*4]
  00081	03 c9		 add	 ecx, ecx
  00083	89 4b 74	 mov	 DWORD PTR [ebx+116], ecx
$LN54@Value:

; 1804 : 		}
; 1805 : 
; 1806 : 		if ( m_BuyMoney >= 1000 )

  00086	8b 4b 78	 mov	 ecx, DWORD PTR [ebx+120]
  00089	81 f9 e8 03 00
	00		 cmp	 ecx, 1000		; 000003e8H
  0008f	72 17		 jb	 SHORT $LN55@Value

; 1807 : 		{
; 1808 : 			m_BuyMoney = m_BuyMoney/100*100;

  00091	b8 1f 85 eb 51	 mov	 eax, 1374389535		; 51eb851fH
  00096	f7 e1		 mul	 ecx
  00098	c1 ea 05	 shr	 edx, 5
  0009b	6b c2 64	 imul	 eax, edx, 100
  0009e	89 43 78	 mov	 DWORD PTR [ebx+120], eax

; 2689 : 	}
; 2690 : }

  000a1	5f		 pop	 edi
  000a2	5e		 pop	 esi
  000a3	5b		 pop	 ebx
  000a4	8b e5		 mov	 esp, ebp
  000a6	5d		 pop	 ebp
  000a7	c3		 ret	 0
$LN55@Value:

; 1809 : 		}
; 1810 : 		else if ( m_BuyMoney >= 100 )

  000a8	83 f9 64	 cmp	 ecx, 100		; 00000064H
  000ab	0f 82 02 13 00
	00		 jb	 $LN342@Value

; 1811 : 		{
; 1812 : 			m_BuyMoney = m_BuyMoney/10*10;

  000b1	b8 cd cc cc cc	 mov	 eax, -858993459		; cccccccdH
  000b6	f7 e1		 mul	 ecx
  000b8	c1 ea 03	 shr	 edx, 3
  000bb	8d 04 92	 lea	 eax, DWORD PTR [edx+edx*4]
  000be	03 c0		 add	 eax, eax
  000c0	89 43 78	 mov	 DWORD PTR [ebx+120], eax

; 2689 : 	}
; 2690 : }

  000c3	5f		 pop	 edi
  000c4	5e		 pop	 esi
  000c5	5b		 pop	 ebx
  000c6	8b e5		 mov	 esp, ebp
  000c8	5d		 pop	 ebp
  000c9	c3		 ret	 0
$LN51@Value:

; 1813 : 		}
; 1814 : 
; 1815 : 		return;
; 1816 : 	}
; 1817 : 
; 1818 : 	int Level = sqrt(double(m_Level));

  000ca	0f b7 43 08	 movzx	 eax, WORD PTR [ebx+8]
  000ce	89 44 24 1c	 mov	 DWORD PTR tv2002[esp+56], eax
  000d2	98		 cwde
  000d3	89 44 24 10	 mov	 DWORD PTR tv2011[esp+56], eax
  000d7	66 0f 6e c0	 movd	 xmm0, eax
  000db	f3 0f e6 c0	 cvtdq2pd xmm0, xmm0
  000df	e8 00 00 00 00	 call	 __libm_sse2_sqrt_precise

; 1819 : 	__int64 Gold = 0;
; 1820 : 	int Type = (m_Type)/MAX_SUBTYPE_ITEMS;
; 1821 : 	int Level2 = p->Level + m_Level*3;

  000e4	8b 4c 24 18	 mov	 ecx, DWORD PTR _p$1$[esp+56]
  000e8	f2 0f 2c c0	 cvttsd2si eax, xmm0
  000ec	0f b6 49 22	 movzx	 ecx, BYTE PTR [ecx+34]
  000f0	0f 57 c0	 xorps	 xmm0, xmm0
  000f3	89 44 24 2c	 mov	 DWORD PTR _Level$1$[esp+56], eax
  000f7	8b c7		 mov	 eax, edi
  000f9	99		 cdq
  000fa	81 e2 ff 01 00
	00		 and	 edx, 511		; 000001ffH
  00100	66 0f 13 44 24
	30		 movlpd	 QWORD PTR _Gold$[esp+56], xmm0
  00106	03 c2		 add	 eax, edx

; 1822 : 	int excellent = 0;
; 1823 : 
; 1824 : 	for (int i=0;i<m_SpecialNum;i++)

  00108	0f b6 53 30	 movzx	 edx, BYTE PTR [ebx+48]
  0010c	c1 f8 09	 sar	 eax, 9
  0010f	89 44 24 20	 mov	 DWORD PTR _Type$1$[esp+56], eax
  00113	8b 44 24 10	 mov	 eax, DWORD PTR tv2011[esp+56]
  00117	89 54 24 24	 mov	 DWORD PTR tv1993[esp+56], edx
  0011b	8d 3c 40	 lea	 edi, DWORD PTR [eax+eax*2]
  0011e	03 f9		 add	 edi, ecx
  00120	33 c9		 xor	 ecx, ecx
  00122	85 d2		 test	 edx, edx
  00124	7e 32		 jle	 SHORT $LN59@Value

; 1813 : 		}
; 1814 : 
; 1815 : 		return;
; 1816 : 	}
; 1817 : 
; 1818 : 	int Level = sqrt(double(m_Level));

  00126	8b 74 24 24	 mov	 esi, DWORD PTR tv1993[esp+56]
  0012a	8d 53 32	 lea	 edx, DWORD PTR [ebx+50]
  0012d	bb 01 00 00 00	 mov	 ebx, 1
$LL4@Value:

; 1825 : 	{
; 1826 : 		switch ( m_Special[i] )

  00132	0f b7 02	 movzx	 eax, WORD PTR [edx]
  00135	8d 52 02	 lea	 edx, DWORD PTR [edx+2]
  00138	83 c0 aa	 add	 eax, -86		; ffffffaaH
  0013b	83 f8 0d	 cmp	 eax, 13			; 0000000dH
  0013e	0f 46 cb	 cmovbe	 ecx, ebx
  00141	2b f3		 sub	 esi, ebx
  00143	75 ed		 jne	 SHORT $LL4@Value

; 1827 : 		{
; 1828 : 			case 0x56:	// 86.
; 1829 : 			case 0x57:
; 1830 : 			case 0x58:
; 1831 : 			case 0x59:
; 1832 : 			case 0x5A:
; 1833 : 			case 0x5B:
; 1834 : 			case 0x5C:
; 1835 : 			case 0x5D:
; 1836 : 			case 0x5E:
; 1837 : 			case 0x5F:
; 1838 : 			case 0x60:
; 1839 : 			case 0x61:
; 1840 : 			case 0x62:
; 1841 : 			case 0x63:	// 99.
; 1842 : 				excellent = 1;
; 1843 : 		}
; 1844 : 	}
; 1845 : 
; 1846 : 	if ( excellent != 0 )

  00145	8b 5c 24 14	 mov	 ebx, DWORD PTR _this$1$[esp+56]
  00149	8b 44 24 10	 mov	 eax, DWORD PTR tv2011[esp+56]
  0014d	0f b7 73 06	 movzx	 esi, WORD PTR [ebx+6]
  00151	85 c9		 test	 ecx, ecx
  00153	74 03		 je	 SHORT $LN59@Value

; 1847 : 	{
; 1848 : 		Level2 += 25;

  00155	83 c7 19	 add	 edi, 25			; 00000019H
$LN59@Value:

; 1849 : 	}
; 1850 : 
; 1851 : 	if ( m_Type == ITEMGET(4,15) ) // Arrow

  00158	b9 0f 08 00 00	 mov	 ecx, 2063		; 0000080fH
  0015d	66 3b f1	 cmp	 si, cx
  00160	75 6d		 jne	 SHORT $LN60@Value

; 1852 : 	{
; 1853 : 		int lc10 = 70;
; 1854 : 
; 1855 : 		if ( m_Level == 1 )

  00162	0f b7 43 08	 movzx	 eax, WORD PTR [ebx+8]
  00166	b9 46 00 00 00	 mov	 ecx, 70			; 00000046H
  0016b	66 83 f8 01	 cmp	 ax, 1
  0016f	75 07		 jne	 SHORT $LN62@Value

; 1856 : 		{
; 1857 : 			lc10 = 1200;

  00171	b9 b0 04 00 00	 mov	 ecx, 1200		; 000004b0H
  00176	eb 19		 jmp	 SHORT $LN66@Value
$LN62@Value:

; 1858 : 		}
; 1859 : 		else if ( m_Level == 2 )

  00178	66 83 f8 02	 cmp	 ax, 2
  0017c	75 07		 jne	 SHORT $LN64@Value

; 1860 : 		{
; 1861 : 			lc10 = 2000;

  0017e	b9 d0 07 00 00	 mov	 ecx, 2000		; 000007d0H
  00183	eb 0c		 jmp	 SHORT $LN66@Value
$LN64@Value:

; 1862 : 		}
; 1863 : 		else if ( m_Level == 3 )

  00185	66 83 f8 03	 cmp	 ax, 3
  00189	ba f0 0a 00 00	 mov	 edx, 2800		; 00000af0H
  0018e	0f 44 ca	 cmove	 ecx, edx
$LN66@Value:

; 1864 : 		{
; 1865 : 			lc10 = 2800;
; 1866 : 		}
; 1867 : 
; 1868 : 		if ( m_Durability > 0.0f )

  00191	f3 0f 10 4b 24	 movss	 xmm1, DWORD PTR [ebx+36]
  00196	0f 2f 0d 00 00
	00 00		 comiss	 xmm1, DWORD PTR __real@00000000
  0019d	0f 86 96 10 00
	00		 jbe	 $LN392@Value
$LN75@Value:

; 1869 : 		{
; 1870 : 			Gold = lc10 * m_Durability/p->Durability;

  001a3	8b 44 24 18	 mov	 eax, DWORD PTR _p$1$[esp+56]
  001a7	66 0f 6e c1	 movd	 xmm0, ecx
  001ab	0f 5b c0	 cvtdq2ps xmm0, xmm0
  001ae	0f b6 40 30	 movzx	 eax, BYTE PTR [eax+48]
  001b2	f3 0f 59 c1	 mulss	 xmm0, xmm1
  001b6	66 0f 6e c8	 movd	 xmm1, eax
  001ba	0f 5b c9	 cvtdq2ps xmm1, xmm1
  001bd	f3 0f 5e c1	 divss	 xmm0, xmm1
  001c1	e8 00 00 00 00	 call	 __ftol3
  001c6	8b d8		 mov	 ebx, eax
  001c8	8b fa		 mov	 edi, edx

; 1871 : 		}
; 1872 : 	}

  001ca	e9 72 10 00 00	 jmp	 $LN400@Value
$LN60@Value:

; 1873 : 	else if ( m_Type == ITEMGET(4,7) ) // Arrow of Crossbow

  001cf	b9 07 08 00 00	 mov	 ecx, 2055		; 00000807H
  001d4	66 3b f1	 cmp	 si, cx
  001d7	75 43		 jne	 SHORT $LN68@Value

; 1874 : 	{
; 1875 : 		int lc11;
; 1876 : 
; 1877 : 		if ( m_Durability > 0.0f )

  001d9	f3 0f 10 4b 24	 movss	 xmm1, DWORD PTR [ebx+36]
  001de	0f 2f 0d 00 00
	00 00		 comiss	 xmm1, DWORD PTR __real@00000000
  001e5	0f 86 4e 10 00
	00		 jbe	 $LN392@Value

; 1878 : 		{
; 1879 : 			lc11 = 100;
; 1880 : 
; 1881 : 			if ( m_Level == 1 )

  001eb	0f b7 43 08	 movzx	 eax, WORD PTR [ebx+8]
  001ef	b9 64 00 00 00	 mov	 ecx, 100		; 00000064H
  001f4	66 83 f8 01	 cmp	 ax, 1
  001f8	75 07		 jne	 SHORT $LN71@Value

; 1882 : 			{
; 1883 : 				lc11 = 1400;

  001fa	b9 78 05 00 00	 mov	 ecx, 1400		; 00000578H
  001ff	eb a2		 jmp	 SHORT $LN75@Value
$LN71@Value:

; 1884 : 			}
; 1885 : 			else if ( m_Level == 2 )

  00201	66 83 f8 02	 cmp	 ax, 2
  00205	75 07		 jne	 SHORT $LN73@Value

; 1886 : 			{
; 1887 : 				lc11 = 2200;

  00207	b9 98 08 00 00	 mov	 ecx, 2200		; 00000898H
  0020c	eb 95		 jmp	 SHORT $LN75@Value
$LN73@Value:

; 1888 : 			}
; 1889 : 			else if ( m_Level == 3 )

  0020e	66 83 f8 03	 cmp	 ax, 3
  00212	ba b8 0b 00 00	 mov	 edx, 3000		; 00000bb8H
  00217	0f 44 ca	 cmove	 ecx, edx

; 1890 : 			{
; 1891 : 				lc11 = 3000;
; 1892 : 			}
; 1893 : 		
; 1894 : 			Gold = lc11 * m_Durability/p->Durability;
; 1895 : 		}
; 1896 : 	}

  0021a	eb 87		 jmp	 SHORT $LN75@Value
$LN68@Value:

; 1897 : 	else if ( m_Type == ITEMGET(14,13) ) // Bless

  0021c	b9 0d 1c 00 00	 mov	 ecx, 7181		; 00001c0dH
  00221	66 3b f1	 cmp	 si, cx
  00224	75 0c		 jne	 SHORT $LN76@Value

; 1898 : 	{
; 1899 : 		Gold = 4500000;

  00226	bb 20 aa 44 00	 mov	 ebx, 4500000		; 0044aa20H
  0022b	33 ff		 xor	 edi, edi
  0022d	e9 0f 10 00 00	 jmp	 $LN400@Value
$LN76@Value:

; 1900 : 	}
; 1901 : 	else if ( m_Type == ITEMGET(14,14) ) // soul

  00232	b9 0e 1c 00 00	 mov	 ecx, 7182		; 00001c0eH
  00237	66 3b f1	 cmp	 si, cx
  0023a	75 0c		 jne	 SHORT $LN78@Value
$LN234@Value:

; 1902 : 	{
; 1903 : 		Gold = 3000000;

  0023c	bb c0 c6 2d 00	 mov	 ebx, 3000000		; 002dc6c0H
  00241	33 ff		 xor	 edi, edi
  00243	e9 f9 0f 00 00	 jmp	 $LN400@Value
$LN78@Value:

; 1904 : 	}
; 1905 : 	else if ( m_Type == ITEMGET(12,15) ) // chaos

  00248	b9 0f 18 00 00	 mov	 ecx, 6159		; 0000180fH
  0024d	66 3b f1	 cmp	 si, cx
  00250	75 0c		 jne	 SHORT $LN80@Value

; 1906 : 	{
; 1907 : 		Gold = 810000;

  00252	bb 10 5c 0c 00	 mov	 ebx, 810000		; 000c5c10H
  00257	33 ff		 xor	 edi, edi
  00259	e9 e3 0f 00 00	 jmp	 $LN400@Value
$LN80@Value:

; 1908 : 	}
; 1909 : 	else if ( m_Type == ITEMGET(14,16) ) // Life

  0025e	b9 10 1c 00 00	 mov	 ecx, 7184		; 00001c10H
  00263	66 3b f1	 cmp	 si, cx
  00266	75 0c		 jne	 SHORT $LN82@Value

; 1910 : 	{
; 1911 : 		Gold = 22500000;

  00268	bb a0 52 57 01	 mov	 ebx, 22500000		; 015752a0H
  0026d	33 ff		 xor	 edi, edi
  0026f	e9 cd 0f 00 00	 jmp	 $LN400@Value
$LN82@Value:

; 1912 : 	}
; 1913 : 	else if ( m_Type == ITEMGET(14,22) ) // Creation

  00274	b9 16 1c 00 00	 mov	 ecx, 7190		; 00001c16H
  00279	66 3b f1	 cmp	 si, cx
  0027c	75 0c		 jne	 SHORT $LN84@Value

; 1914 : 	{
; 1915 : 		Gold = 18000000;

  0027e	bb 80 a8 12 01	 mov	 ebx, 18000000		; 0112a880H
  00283	33 ff		 xor	 edi, edi
  00285	e9 b7 0f 00 00	 jmp	 $LN400@Value
$LN84@Value:

; 1916 : 	}
; 1917 : 	else if ( m_Type == ITEMGET(12,30) ) //Pack Of Bless

  0028a	b9 1e 18 00 00	 mov	 ecx, 6174		; 0000181eH
  0028f	66 3b f1	 cmp	 si, cx
  00292	75 11		 jne	 SHORT $LN86@Value

; 1918 : 	{
; 1919 : 		Gold = (m_Level+1)*4500000*10;

  00294	40		 inc	 eax
  00295	69 c0 40 a5 ae
	02		 imul	 eax, eax, 45000000
  0029b	99		 cdq
  0029c	8b d8		 mov	 ebx, eax
  0029e	8b fa		 mov	 edi, edx
  002a0	e9 9c 0f 00 00	 jmp	 $LN400@Value
$LN86@Value:

; 1920 : 	}
; 1921 : 	else if ( m_Type == ITEMGET(12,31) ) //Pack Of Soul

  002a5	b9 1f 18 00 00	 mov	 ecx, 6175		; 0000181fH
  002aa	66 3b f1	 cmp	 si, cx
  002ad	75 11		 jne	 SHORT $LN88@Value

; 1922 : 	{
; 1923 : 		Gold = (m_Level+1)*3000000*10;

  002af	40		 inc	 eax
  002b0	69 c0 80 c3 c9
	01		 imul	 eax, eax, 30000000
  002b6	99		 cdq
  002b7	8b d8		 mov	 ebx, eax
  002b9	8b fa		 mov	 edi, edx
  002bb	e9 81 0f 00 00	 jmp	 $LN400@Value
$LN88@Value:

; 1924 : 	}
; 1925 : 	else if ( m_Type == ITEMGET(13,15) ) //Fruits

  002c0	b9 0f 1a 00 00	 mov	 ecx, 6671		; 00001a0fH
  002c5	66 3b f1	 cmp	 si, cx
  002c8	75 0c		 jne	 SHORT $LN90@Value

; 1926 : 	{
; 1927 : 		Gold = 33000000;

  002ca	bb 40 8a f7 01	 mov	 ebx, 33000000		; 01f78a40H
  002cf	33 ff		 xor	 edi, edi
  002d1	e9 6b 0f 00 00	 jmp	 $LN400@Value
$LN90@Value:

; 1928 : 	}
; 1929 : 	else if ( m_Type == ITEMGET(13,14) ) //Loch Feather

  002d6	b9 0e 1a 00 00	 mov	 ecx, 6670		; 00001a0eH
  002db	66 3b f1	 cmp	 si, cx
  002de	75 28		 jne	 SHORT $LN92@Value

; 1930 : 	{
; 1931 : 		if ( m_Level == 1 )

  002e0	8b 44 24 1c	 mov	 eax, DWORD PTR tv2002[esp+56]

; 1932 : 		{
; 1933 : 			Gold = 7500000;	// Crest ofMonarch

  002e4	33 ff		 xor	 edi, edi

; 1934 : 		}
; 1935 : 		else

  002e6	8b 74 24 14	 mov	 esi, DWORD PTR _this$1$[esp+56]
  002ea	89 7c 24 10	 mov	 DWORD PTR _Gold$7$[esp+56], edi
  002ee	66 83 f8 01	 cmp	 ax, 1
  002f2	75 0a		 jne	 SHORT $LN94@Value

; 1932 : 		{
; 1933 : 			Gold = 7500000;	// Crest ofMonarch

  002f4	bb e0 70 72 00	 mov	 ebx, 7500000		; 007270e0H

; 1934 : 		}
; 1935 : 		else

  002f9	e9 4b 0f 00 00	 jmp	 $LN18@Value
$LN94@Value:

; 1936 : 		{
; 1937 : 			Gold = 180000;	// Blue Feather

  002fe	bb 20 bf 02 00	 mov	 ebx, 180000		; 0002bf20H

; 1938 : 		}

  00303	e9 41 0f 00 00	 jmp	 $LN18@Value
$LN92@Value:

; 1939 : 	}
; 1940 : 	else if ( m_Type == ITEMGET(14,31) ) // Jewel of Guardian

  00308	b9 1f 1c 00 00	 mov	 ecx, 7199		; 00001c1fH
  0030d	66 3b f1	 cmp	 si, cx
  00310	75 0c		 jne	 SHORT $LN96@Value
$LN205@Value:

; 1941 : 	{
; 1942 : 		Gold = 30000000;

  00312	bb 80 c3 c9 01	 mov	 ebx, 30000000		; 01c9c380H
  00317	33 ff		 xor	 edi, edi
  00319	e9 23 0f 00 00	 jmp	 $LN400@Value
$LN96@Value:

; 1943 : 	}
; 1944 : 	else if ( m_Type == ITEMGET(14,7) ) // Siege Potion

  0031e	b9 07 1c 00 00	 mov	 ecx, 7175		; 00001c07H
  00323	66 3b f1	 cmp	 si, cx
  00326	75 3d		 jne	 SHORT $LN98@Value

; 1945 : 	{
; 1946 : 		if ( m_Level == 0 )

  00328	0f b7 43 08	 movzx	 eax, WORD PTR [ebx+8]
  0032c	66 85 c0	 test	 ax, ax
  0032f	75 15		 jne	 SHORT $LN100@Value

; 1947 : 		{
; 1948 : 			Gold = (int)(m_Durability) * 900000;

  00331	f3 0f 2c 43 24	 cvttss2si eax, DWORD PTR [ebx+36]
  00336	69 c0 a0 bb 0d
	00		 imul	 eax, eax, 900000
  0033c	99		 cdq
  0033d	8b d8		 mov	 ebx, eax
  0033f	8b fa		 mov	 edi, edx
  00341	e9 fb 0e 00 00	 jmp	 $LN400@Value
$LN100@Value:

; 1949 : 		}
; 1950 : 		else if ( m_Level == 1 )

  00346	66 83 f8 01	 cmp	 ax, 1
  0034a	0f 85 e9 0e 00
	00		 jne	 $LN392@Value

; 1951 : 		{
; 1952 : 			Gold = (int)(m_Durability) * 450000;

  00350	f3 0f 2c 43 24	 cvttss2si eax, DWORD PTR [ebx+36]
  00355	69 c0 d0 dd 06
	00		 imul	 eax, eax, 450000
  0035b	99		 cdq
  0035c	8b d8		 mov	 ebx, eax
  0035e	8b fa		 mov	 edi, edx
  00360	e9 dc 0e 00 00	 jmp	 $LN400@Value
$LN98@Value:

; 1953 : 		}
; 1954 : 	}
; 1955 : 	else if ( m_Type == ITEMGET(13,11) ) // Order(Guardian/Life Stone)

  00365	b9 0b 1a 00 00	 mov	 ecx, 6667		; 00001a0bH
  0036a	66 3b f1	 cmp	 si, cx
  0036d	75 2b		 jne	 SHORT $LN103@Value

; 1956 : 	{
; 1957 : 		if ( m_Level == 0 )

  0036f	8b 44 24 1c	 mov	 eax, DWORD PTR tv2002[esp+56]
  00373	66 85 c0	 test	 ax, ax
  00376	75 0c		 jne	 SHORT $LN105@Value
$LN150@Value:

; 1958 : 		{
; 1959 : 			Gold = 1000000;

  00378	bb 40 42 0f 00	 mov	 ebx, 1000000		; 000f4240H
  0037d	33 ff		 xor	 edi, edi
  0037f	e9 bd 0e 00 00	 jmp	 $LN400@Value
$LN105@Value:

; 1960 : 		}
; 1961 : 		else if ( m_Level == 1 )

  00384	66 83 f8 01	 cmp	 ax, 1
  00388	0f 85 ab 0e 00
	00		 jne	 $LN392@Value

; 1962 : 		{
; 1963 : 			Gold = 2400000;

  0038e	bb 00 9f 24 00	 mov	 ebx, 2400000		; 00249f00H
  00393	33 ff		 xor	 edi, edi

; 1964 : 		}
; 1965 : 	}

  00395	e9 a7 0e 00 00	 jmp	 $LN400@Value
$LN103@Value:

; 1966 : 	else if ( m_Type == ITEMGET(13,7) ) // Contract(Summon)

  0039a	b9 07 1a 00 00	 mov	 ecx, 6663		; 00001a07H
  0039f	66 3b f1	 cmp	 si, cx
  003a2	75 2b		 jne	 SHORT $LN108@Value

; 1967 : 	{
; 1968 : 		if ( m_Level == 0 )

  003a4	8b 44 24 1c	 mov	 eax, DWORD PTR tv2002[esp+56]
  003a8	66 85 c0	 test	 ax, ax
  003ab	75 0c		 jne	 SHORT $LN110@Value
$LN160@Value:

; 1969 : 		{
; 1970 : 			Gold = 1500000;

  003ad	bb 60 e3 16 00	 mov	 ebx, 1500000		; 0016e360H
  003b2	33 ff		 xor	 edi, edi
  003b4	e9 88 0e 00 00	 jmp	 $LN400@Value
$LN110@Value:

; 1971 : 		}
; 1972 : 		else if ( m_Level == 1 )

  003b9	66 83 f8 01	 cmp	 ax, 1
  003bd	0f 85 76 0e 00
	00		 jne	 $LN392@Value
$LN159@Value:

; 1973 : 		{
; 1974 : 			Gold = 1200000;

  003c3	bb 80 4f 12 00	 mov	 ebx, 1200000		; 00124f80H
  003c8	33 ff		 xor	 edi, edi

; 1975 : 		}
; 1976 : 	}

  003ca	e9 72 0e 00 00	 jmp	 $LN400@Value
$LN108@Value:

; 1977 : 	else if ( m_Type == ITEMGET(13,32) ) 

  003cf	b9 20 1a 00 00	 mov	 ecx, 6688		; 00001a20H
  003d4	66 3b f1	 cmp	 si, cx
  003d7	75 15		 jne	 SHORT $LN113@Value

; 1978 : 	{
; 1979 : 		Gold = (int)m_Durability * 150;

  003d9	f3 0f 2c 43 24	 cvttss2si eax, DWORD PTR [ebx+36]
  003de	69 c0 96 00 00
	00		 imul	 eax, eax, 150
  003e4	99		 cdq
  003e5	8b d8		 mov	 ebx, eax
  003e7	8b fa		 mov	 edi, edx
  003e9	e9 53 0e 00 00	 jmp	 $LN400@Value
$LN113@Value:

; 1980 : 	}
; 1981 : 	else if ( m_Type == ITEMGET(13,33) ) 

  003ee	b9 21 1a 00 00	 mov	 ecx, 6689		; 00001a21H
  003f3	66 3b f1	 cmp	 si, cx
  003f6	75 15		 jne	 SHORT $LN115@Value
$LN289@Value:

; 1982 : 	{
; 1983 : 		Gold = (int)m_Durability * 300;

  003f8	f3 0f 2c 43 24	 cvttss2si eax, DWORD PTR [ebx+36]
  003fd	69 c0 2c 01 00
	00		 imul	 eax, eax, 300
  00403	99		 cdq
  00404	8b d8		 mov	 ebx, eax
  00406	8b fa		 mov	 edi, edx
  00408	e9 34 0e 00 00	 jmp	 $LN400@Value
$LN115@Value:

; 1984 : 	}
; 1985 : 	else if ( m_Type == ITEMGET(13,34) ) 

  0040d	b9 22 1a 00 00	 mov	 ecx, 6690		; 00001a22H
  00412	66 3b f1	 cmp	 si, cx
  00415	75 15		 jne	 SHORT $LN117@Value

; 1986 : 	{
; 1987 : 		Gold = (int)m_Durability * 3000;

  00417	f3 0f 2c 43 24	 cvttss2si eax, DWORD PTR [ebx+36]
  0041c	69 c0 b8 0b 00
	00		 imul	 eax, eax, 3000
  00422	99		 cdq
  00423	8b d8		 mov	 ebx, eax
  00425	8b fa		 mov	 edi, edx
  00427	e9 15 0e 00 00	 jmp	 $LN400@Value
$LN117@Value:

; 1988 : 	}
; 1989 : 	else if ( m_Type == ITEMGET(13,35) ) 

  0042c	b9 23 1a 00 00	 mov	 ecx, 6691		; 00001a23H
  00431	66 3b f1	 cmp	 si, cx
  00434	75 0c		 jne	 SHORT $LN119@Value
$LN151@Value:

; 1990 : 	{
; 1991 : 		Gold = 30000;

  00436	bb 30 75 00 00	 mov	 ebx, 30000		; 00007530H
  0043b	33 ff		 xor	 edi, edi
  0043d	e9 ff 0d 00 00	 jmp	 $LN400@Value
$LN119@Value:

; 1992 : 	}
; 1993 : 	else if ( m_Type == ITEMGET(13,36) ) 

  00442	b9 24 1a 00 00	 mov	 ecx, 6692		; 00001a24H
  00447	66 3b f1	 cmp	 si, cx
  0044a	75 0c		 jne	 SHORT $LN121@Value

; 1994 : 	{
; 1995 : 		Gold = 90000;

  0044c	bb 90 5f 01 00	 mov	 ebx, 90000		; 00015f90H
  00451	33 ff		 xor	 edi, edi
  00453	e9 e9 0d 00 00	 jmp	 $LN400@Value
$LN121@Value:

; 1996 : 	}
; 1997 : 	else if ( m_Type == ITEMGET(13,37) ) 

  00458	b9 25 1a 00 00	 mov	 ecx, 6693		; 00001a25H
  0045d	66 3b f1	 cmp	 si, cx
  00460	75 0c		 jne	 SHORT $LN123@Value
$LN156@Value:

; 1998 : 	{
; 1999 : 		Gold = 150000;

  00462	bb f0 49 02 00	 mov	 ebx, 150000		; 000249f0H
  00467	33 ff		 xor	 edi, edi
  00469	e9 d3 0d 00 00	 jmp	 $LN400@Value
$LN123@Value:

; 2000 : 	}
; 2001 : 	else if ( m_Type == ITEMGET(14,35) ) 

  0046e	b9 23 1c 00 00	 mov	 ecx, 7203		; 00001c23H
  00473	66 3b f1	 cmp	 si, cx
  00476	75 15		 jne	 SHORT $LN125@Value

; 2002 : 	{
; 2003 : 		Gold = (int)m_Durability * 2000;

  00478	f3 0f 2c 43 24	 cvttss2si eax, DWORD PTR [ebx+36]
  0047d	69 c0 d0 07 00
	00		 imul	 eax, eax, 2000
  00483	99		 cdq
  00484	8b d8		 mov	 ebx, eax
  00486	8b fa		 mov	 edi, edx
  00488	e9 b4 0d 00 00	 jmp	 $LN400@Value
$LN125@Value:

; 2004 : 	}
; 2005 : 	else if ( m_Type == ITEMGET(14,36) ) 

  0048d	b9 24 1c 00 00	 mov	 ecx, 7204		; 00001c24H
  00492	66 3b f1	 cmp	 si, cx
  00495	75 15		 jne	 SHORT $LN127@Value

; 2006 : 	{
; 2007 : 		Gold = (int)m_Durability * 4000;

  00497	f3 0f 2c 43 24	 cvttss2si eax, DWORD PTR [ebx+36]
  0049c	69 c0 a0 0f 00
	00		 imul	 eax, eax, 4000
  004a2	99		 cdq
  004a3	8b d8		 mov	 ebx, eax
  004a5	8b fa		 mov	 edi, edx
  004a7	e9 95 0d 00 00	 jmp	 $LN400@Value
$LN127@Value:

; 2008 : 	}
; 2009 : 	else if ( m_Type == ITEMGET(14,37) ) 

  004ac	b9 25 1c 00 00	 mov	 ecx, 7205		; 00001c25H
  004b1	66 3b f1	 cmp	 si, cx
  004b4	75 15		 jne	 SHORT $LN129@Value

; 2010 : 	{
; 2011 : 		Gold = (int)m_Durability * 6000;

  004b6	f3 0f 2c 43 24	 cvttss2si eax, DWORD PTR [ebx+36]
  004bb	69 c0 70 17 00
	00		 imul	 eax, eax, 6000
  004c1	99		 cdq
  004c2	8b d8		 mov	 ebx, eax
  004c4	8b fa		 mov	 edi, edx
  004c6	e9 76 0d 00 00	 jmp	 $LN400@Value
$LN129@Value:

; 2012 : 	}
; 2013 : 	else if ( m_Type == ITEMGET(14,38) ) 

  004cb	b9 26 1c 00 00	 mov	 ecx, 7206		; 00001c26H
  004d0	66 3b f1	 cmp	 si, cx
  004d3	75 15		 jne	 SHORT $LN131@Value

; 2014 : 	{
; 2015 : 		Gold = (int)m_Durability * 2500;

  004d5	f3 0f 2c 43 24	 cvttss2si eax, DWORD PTR [ebx+36]
  004da	69 c0 c4 09 00
	00		 imul	 eax, eax, 2500
  004e0	99		 cdq
  004e1	8b d8		 mov	 ebx, eax
  004e3	8b fa		 mov	 edi, edx
  004e5	e9 57 0d 00 00	 jmp	 $LN400@Value
$LN131@Value:

; 2016 : 	}
; 2017 : 	else if ( m_Type == ITEMGET(14,39) ) 

  004ea	b9 27 1c 00 00	 mov	 ecx, 7207		; 00001c27H
  004ef	66 3b f1	 cmp	 si, cx
  004f2	75 15		 jne	 SHORT $LN133@Value

; 2018 : 	{
; 2019 : 		Gold = (int)m_Durability * 5000;

  004f4	f3 0f 2c 43 24	 cvttss2si eax, DWORD PTR [ebx+36]
  004f9	69 c0 88 13 00
	00		 imul	 eax, eax, 5000
  004ff	99		 cdq
  00500	8b d8		 mov	 ebx, eax
  00502	8b fa		 mov	 edi, edx
  00504	e9 38 0d 00 00	 jmp	 $LN400@Value
$LN133@Value:

; 2020 : 	}
; 2021 : 	else if ( m_Type == ITEMGET(14,40) ) 

  00509	b9 28 1c 00 00	 mov	 ecx, 7208		; 00001c28H
  0050e	66 3b f1	 cmp	 si, cx
  00511	75 15		 jne	 SHORT $LN135@Value

; 2022 : 	{
; 2023 : 		Gold = (int)m_Durability * 7500;

  00513	f3 0f 2c 43 24	 cvttss2si eax, DWORD PTR [ebx+36]
  00518	69 c0 4c 1d 00
	00		 imul	 eax, eax, 7500
  0051e	99		 cdq
  0051f	8b d8		 mov	 ebx, eax
  00521	8b fa		 mov	 edi, edx
  00523	e9 19 0d 00 00	 jmp	 $LN400@Value
$LN135@Value:

; 2024 : 	}
; 2025 : 	else if (m_Type >= ITEMGET(13,109) && m_Type <= ITEMGET(13,115))

  00528	b9 6d 1a 00 00	 mov	 ecx, 6765		; 00001a6dH
  0052d	66 3b f1	 cmp	 si, cx
  00530	7c 16		 jl	 SHORT $LN137@Value
  00532	b9 73 1a 00 00	 mov	 ecx, 6771		; 00001a73H
  00537	66 3b f1	 cmp	 si, cx
  0053a	7f 0c		 jg	 SHORT $LN137@Value

; 2026 : 	{
; 2027 : 		Gold = 3000;

  0053c	bb b8 0b 00 00	 mov	 ebx, 3000		; 00000bb8H
  00541	33 ff		 xor	 edi, edi
  00543	e9 f9 0c 00 00	 jmp	 $LN400@Value
$LN137@Value:

; 2028 : 	}
; 2029 : 	else if ( m_Type == ITEMGET(13,3) ) // Dinorant

  00548	b9 03 1a 00 00	 mov	 ecx, 6659		; 00001a03H
  0054d	66 3b f1	 cmp	 si, cx
  00550	75 4e		 jne	 SHORT $LN139@Value

; 2030 : 	{
; 2031 : 		Gold = 960000;
; 2032 : 
; 2033 : 		for ( int k=0;k<3;k++)
; 2034 : 		{
; 2035 : 			if ( (m_Option3 & (1<<k)) != 0 )

  00552	8b 74 24 14	 mov	 esi, DWORD PTR _this$1$[esp+56]
  00556	33 ff		 xor	 edi, edi
  00558	bb 00 a6 0e 00	 mov	 ebx, 960000		; 000ea600H
  0055d	89 7c 24 10	 mov	 DWORD PTR _Gold$7$[esp+56], edi
  00561	0f b6 86 92 00
	00 00		 movzx	 eax, BYTE PTR [esi+146]
  00568	a8 01		 test	 al, 1
  0056a	74 09		 je	 SHORT $LN7@Value

; 2036 : 			{
; 2037 : 				Gold += 300000;

  0056c	bb e0 39 13 00	 mov	 ebx, 1260000		; 001339e0H
  00571	89 7c 24 10	 mov	 DWORD PTR _Gold$7$[esp+56], edi
$LN7@Value:

; 2030 : 	{
; 2031 : 		Gold = 960000;
; 2032 : 
; 2033 : 		for ( int k=0;k<3;k++)
; 2034 : 		{
; 2035 : 			if ( (m_Option3 & (1<<k)) != 0 )

  00575	a8 02		 test	 al, 2
  00577	74 0d		 je	 SHORT $LN366@Value

; 2036 : 			{
; 2037 : 				Gold += 300000;

  00579	81 c3 e0 93 04
	00		 add	 ebx, 300000		; 000493e0H
  0057f	83 d7 00	 adc	 edi, 0
  00582	89 7c 24 10	 mov	 DWORD PTR _Gold$7$[esp+56], edi
$LN366@Value:

; 2030 : 	{
; 2031 : 		Gold = 960000;
; 2032 : 
; 2033 : 		for ( int k=0;k<3;k++)
; 2034 : 		{
; 2035 : 			if ( (m_Option3 & (1<<k)) != 0 )

  00586	a8 04		 test	 al, 4
  00588	0f 84 bb 0c 00
	00		 je	 $LN18@Value

; 2036 : 			{
; 2037 : 				Gold += 300000;

  0058e	81 c3 e0 93 04
	00		 add	 ebx, 300000		; 000493e0H
  00594	83 d7 00	 adc	 edi, 0
  00597	89 7c 24 10	 mov	 DWORD PTR _Gold$7$[esp+56], edi

; 2038 : 			}
; 2039 : 		}
; 2040 : 	}
; 2041 : 	else if ( m_Type == ITEMGET(14,17) ) // Devil Eye

  0059b	e9 a9 0c 00 00	 jmp	 $LN18@Value
$LN139@Value:
  005a0	b9 11 1c 00 00	 mov	 ecx, 7185		; 00001c11H
  005a5	66 3b f1	 cmp	 si, cx
  005a8	75 41		 jne	 SHORT $LN142@Value

; 2042 : 	{
; 2043 : 		switch ( m_Level )

  005aa	48		 dec	 eax
  005ab	83 f8 06	 cmp	 eax, 6
  005ae	0f 87 82 fe ff
	ff		 ja	 $LN151@Value
  005b4	ff 24 85 00 00
	00 00		 jmp	 DWORD PTR $LN406@Value[eax*4]
$LN144@Value:

; 2044 : 		{
; 2045 : 			case 1:
; 2046 : 				Gold = 10000;

  005bb	bb 10 27 00 00	 mov	 ebx, 10000		; 00002710H
  005c0	33 ff		 xor	 edi, edi

; 2047 : 				break;

  005c2	e9 7a 0c 00 00	 jmp	 $LN400@Value
$LN146@Value:

; 2048 : 			case 2:
; 2049 : 				Gold = 50000;
; 2050 : 				break;
; 2051 : 			case 3:
; 2052 : 				Gold = 100000;

  005c7	bb a0 86 01 00	 mov	 ebx, 100000		; 000186a0H
  005cc	33 ff		 xor	 edi, edi

; 2053 : 				break;

  005ce	e9 6e 0c 00 00	 jmp	 $LN400@Value
$LN147@Value:

; 2054 : 			case 4:
; 2055 : 				Gold = 300000;

  005d3	bb e0 93 04 00	 mov	 ebx, 300000		; 000493e0H
  005d8	33 ff		 xor	 edi, edi

; 2056 : 				break;

  005da	e9 62 0c 00 00	 jmp	 $LN400@Value
$LN149@Value:

; 2057 : 			case 5:
; 2058 : 				Gold = 500000;
; 2059 : 				break;
; 2060 : 			case 6:
; 2061 : 				Gold = 800000;

  005df	bb 00 35 0c 00	 mov	 ebx, 800000		; 000c3500H
  005e4	33 ff		 xor	 edi, edi

; 2062 : 				break;

  005e6	e9 56 0c 00 00	 jmp	 $LN400@Value
$LN142@Value:

; 2063 : 			case 7:
; 2064 : 				Gold = 1000000;
; 2065 : 				break;
; 2066 : 			default:
; 2067 : 				Gold = 30000;
; 2068 : 				break;
; 2069 : 		}
; 2070 : 	}
; 2071 : 	else if ( m_Type == ITEMGET(14,18) ) // Devil Key

  005eb	b9 12 1c 00 00	 mov	 ecx, 7186		; 00001c12H
  005f0	66 3b f1	 cmp	 si, cx
  005f3	75 41		 jne	 SHORT $LN152@Value

; 2072 : 	{
; 2073 : 		switch ( m_Level )

  005f5	48		 dec	 eax
  005f6	83 f8 06	 cmp	 eax, 6
  005f9	0f 87 37 fe ff
	ff		 ja	 $LN151@Value
  005ff	ff 24 85 00 00
	00 00		 jmp	 DWORD PTR $LN407@Value[eax*4]
$LN154@Value:

; 2074 : 		{
; 2075 : 			case 1:
; 2076 : 				Gold = 15000;

  00606	bb 98 3a 00 00	 mov	 ebx, 15000		; 00003a98H
  0060b	33 ff		 xor	 edi, edi

; 2077 : 				break;

  0060d	e9 2f 0c 00 00	 jmp	 $LN400@Value
$LN155@Value:

; 2078 : 			case 2:
; 2079 : 				Gold = 75000;

  00612	bb f8 24 01 00	 mov	 ebx, 75000		; 000124f8H
  00617	33 ff		 xor	 edi, edi

; 2080 : 				break;

  00619	e9 23 0c 00 00	 jmp	 $LN400@Value
$LN157@Value:

; 2081 : 			case 3:
; 2082 : 				Gold = 150000;
; 2083 : 				break;
; 2084 : 			case 4:
; 2085 : 				Gold = 450000;

  0061e	bb d0 dd 06 00	 mov	 ebx, 450000		; 0006ddd0H
  00623	33 ff		 xor	 edi, edi

; 2086 : 				break;

  00625	e9 17 0c 00 00	 jmp	 $LN400@Value
$LN158@Value:

; 2087 : 			case 5:
; 2088 : 				Gold = 750000;

  0062a	bb b0 71 0b 00	 mov	 ebx, 750000		; 000b71b0H
  0062f	33 ff		 xor	 edi, edi

; 2089 : 				break;

  00631	e9 0b 0c 00 00	 jmp	 $LN400@Value
$LN152@Value:

; 2090 : 			case 6:
; 2091 : 				Gold = 1200000;
; 2092 : 				break;
; 2093 : 			case 7:
; 2094 : 				Gold = 1500000;
; 2095 : 				break;
; 2096 : 			default:
; 2097 : 				Gold = 30000;
; 2098 : 				break;
; 2099 : 		}
; 2100 : 	}
; 2101 : 	else if ( m_Type == ITEMGET(14,19) ) // Devil's Invitation

  00636	b9 13 1c 00 00	 mov	 ecx, 7187		; 00001c13H
  0063b	66 3b f1	 cmp	 si, cx
  0063e	75 49		 jne	 SHORT $LN162@Value

; 2102 : 	{
; 2103 : 		switch ( m_Level )

  00640	48		 dec	 eax
  00641	83 f8 06	 cmp	 eax, 6
  00644	77 1f		 ja	 SHORT $LN166@Value
  00646	ff 24 85 00 00
	00 00		 jmp	 DWORD PTR $LN408@Value[eax*4]
$LN164@Value:

; 2104 : 		{
; 2105 : 			case 1:
; 2106 : 				Gold = 60000;

  0064d	bb 60 ea 00 00	 mov	 ebx, 60000		; 0000ea60H
  00652	33 ff		 xor	 edi, edi

; 2107 : 				break;

  00654	e9 e8 0b 00 00	 jmp	 $LN400@Value
$LN165@Value:

; 2108 : 			case 2:
; 2109 : 				Gold = 84000;

  00659	bb 20 48 01 00	 mov	 ebx, 84000		; 00014820H
  0065e	33 ff		 xor	 edi, edi

; 2110 : 				break;

  00660	e9 dc 0b 00 00	 jmp	 $LN400@Value
$LN166@Value:

; 2111 : 			case 3:
; 2112 : 				Gold = 120000;

  00665	bb c0 d4 01 00	 mov	 ebx, 120000		; 0001d4c0H
  0066a	33 ff		 xor	 edi, edi

; 2113 : 				break;

  0066c	e9 d0 0b 00 00	 jmp	 $LN400@Value
$LN167@Value:

; 2114 : 			case 4:
; 2115 : 				Gold = 180000;

  00671	bb 20 bf 02 00	 mov	 ebx, 180000		; 0002bf20H
  00676	33 ff		 xor	 edi, edi

; 2116 : 				break;

  00678	e9 c4 0b 00 00	 jmp	 $LN400@Value
$LN168@Value:

; 2117 : 			case 5:
; 2118 : 				Gold = 240000;

  0067d	bb 80 a9 03 00	 mov	 ebx, 240000		; 0003a980H
  00682	33 ff		 xor	 edi, edi

; 2119 : 				break;

  00684	e9 b8 0b 00 00	 jmp	 $LN400@Value
$LN162@Value:

; 2120 : 			case 6:
; 2121 : 				Gold = 300000;
; 2122 : 				break;
; 2123 : 			case 7:
; 2124 : 				Gold = 180000;
; 2125 : 				break;
; 2126 : 			default:
; 2127 : 				Gold = 120000;
; 2128 : 				break;
; 2129 : 		}
; 2130 : 	}
; 2131 : 	else if ( m_Type == ITEMGET(14,20) ) // Remedy Of Love

  00689	b9 14 1c 00 00	 mov	 ecx, 7188		; 00001c14H
  0068e	66 3b f1	 cmp	 si, cx
  00691	75 0c		 jne	 SHORT $LN172@Value

; 2132 : 	{
; 2133 : 		Gold = 900;

  00693	bb 84 03 00 00	 mov	 ebx, 900		; 00000384H
  00698	33 ff		 xor	 edi, edi
  0069a	e9 a2 0b 00 00	 jmp	 $LN400@Value
$LN172@Value:

; 2134 : 	}
; 2135 : 	else if ( m_Type == ITEMGET(14,21) ) // Rena

  0069f	b9 15 1c 00 00	 mov	 ecx, 7189		; 00001c15H
  006a4	66 3b f1	 cmp	 si, cx
  006a7	75 62		 jne	 SHORT $LN174@Value

; 2136 : 	{
; 2137 : 		switch ( m_Level )

  006a9	83 e8 00	 sub	 eax, 0
  006ac	74 3d		 je	 SHORT $LN176@Value
  006ae	83 e8 01	 sub	 eax, 1
  006b1	74 3e		 je	 SHORT $LN177@Value

; 2149 : 			default:
; 2150 : 				Gold = 9000;
; 2151 : 				m_Durability = m_BaseDurability;

  006b3	8b 74 24 14	 mov	 esi, DWORD PTR _this$1$[esp+56]
  006b7	83 e8 02	 sub	 eax, 2
  006ba	74 16		 je	 SHORT $LN178@Value
  006bc	8b 46 2c	 mov	 eax, DWORD PTR [esi+44]
  006bf	33 ff		 xor	 edi, edi
  006c1	bb 28 23 00 00	 mov	 ebx, 9000		; 00002328H
  006c6	89 7c 24 10	 mov	 DWORD PTR _Gold$7$[esp+56], edi
  006ca	89 46 24	 mov	 DWORD PTR [esi+36], eax
  006cd	e9 77 0b 00 00	 jmp	 $LN18@Value
$LN178@Value:

; 2145 : 				break;
; 2146 : 			case 3:	// Mark of Lord
; 2147 : 				Gold = (int)(m_Durability) * 3900;

  006d2	f3 0f 2c 43 24	 cvttss2si eax, DWORD PTR [ebx+36]
  006d7	69 c0 3c 0f 00
	00		 imul	 eax, eax, 3900
  006dd	99		 cdq
  006de	8b fa		 mov	 edi, edx
  006e0	8b d8		 mov	 ebx, eax
  006e2	89 7c 24 10	 mov	 DWORD PTR _Gold$7$[esp+56], edi

; 2148 : 				break;

  006e6	e9 5e 0b 00 00	 jmp	 $LN18@Value
$LN176@Value:

; 2138 : 		{
; 2139 : 			case 0:	// Rena
; 2140 : 				Gold = 9000;
; 2141 : 				m_Durability = m_BaseDurability;

  006eb	8b 43 2c	 mov	 eax, DWORD PTR [ebx+44]
  006ee	89 43 24	 mov	 DWORD PTR [ebx+36], eax
$LN177@Value:

; 2142 : 			case 1:	// Stone
; 2143 : 				Gold = 9000;
; 2144 : 				m_Durability = m_BaseDurability;

  006f1	8b 74 24 14	 mov	 esi, DWORD PTR _this$1$[esp+56]
  006f5	33 ff		 xor	 edi, edi
  006f7	bb 28 23 00 00	 mov	 ebx, 9000		; 00002328H
  006fc	89 7c 24 10	 mov	 DWORD PTR _Gold$7$[esp+56], edi
  00700	8b 46 2c	 mov	 eax, DWORD PTR [esi+44]
  00703	89 46 24	 mov	 DWORD PTR [esi+36], eax

; 2152 : 		}
; 2153 : 	}
; 2154 : 	else if ( m_Type == ITEMGET(14,9) && m_Level == 1) // Ale

  00706	e9 3e 0b 00 00	 jmp	 $LN18@Value
$LN174@Value:
  0070b	b9 09 1c 00 00	 mov	 ecx, 7177		; 00001c09H
  00710	66 3b f1	 cmp	 si, cx
  00713	0f b7 4b 08	 movzx	 ecx, WORD PTR [ebx+8]
  00717	75 12		 jne	 SHORT $LN180@Value
  00719	66 83 f9 01	 cmp	 cx, 1
  0071d	75 0c		 jne	 SHORT $LN180@Value

; 2155 : 	{
; 2156 : 		Gold = 1000;

  0071f	bb e8 03 00 00	 mov	 ebx, 1000		; 000003e8H
  00724	33 ff		 xor	 edi, edi
  00726	e9 16 0b 00 00	 jmp	 $LN400@Value
$LN180@Value:

; 2157 : 	}
; 2158 : 	else if ( m_Type == ITEMGET(13,18) ) // Invisibility Cloak

  0072b	ba 12 1a 00 00	 mov	 edx, 6674		; 00001a12H
  00730	66 3b f2	 cmp	 si, dx
  00733	75 2e		 jne	 SHORT $LN182@Value

; 2159 : 	{
; 2160 : 		Gold = 200000 + ((m_Level-1) * 20000);

  00735	83 c0 09	 add	 eax, 9
  00738	69 c0 20 4e 00
	00		 imul	 eax, eax, 20000
  0073e	99		 cdq
  0073f	8b d8		 mov	 ebx, eax
  00741	8b fa		 mov	 edi, edx

; 2161 : 
; 2162 : 		if( m_Level == 1 )

  00743	66 83 f9 01	 cmp	 cx, 1
  00747	75 07		 jne	 SHORT $LN184@Value

; 2163 : 		{
; 2164 : 			Gold = 50000;

  00749	bb 50 c3 00 00	 mov	 ebx, 50000		; 0000c350H
  0074e	33 ff		 xor	 edi, edi
$LN184@Value:

; 2165 : 		}
; 2166 : 
; 2167 : 		Gold *= 3;

  00750	8b c3		 mov	 eax, ebx
  00752	8b cf		 mov	 ecx, edi
  00754	0f a4 c1 01	 shld	 ecx, eax, 1
  00758	03 c0		 add	 eax, eax
  0075a	03 d8		 add	 ebx, eax
  0075c	13 f9		 adc	 edi, ecx
  0075e	e9 de 0a 00 00	 jmp	 $LN400@Value
$LN182@Value:

; 2168 : 	}
; 2169 : 	else if ( m_Type == ITEMGET(13,16) || m_Type == ITEMGET(13,17) ) // Blood and Paper of BloodCastle

  00763	ba 10 1a 00 00	 mov	 edx, 6672		; 00001a10H
  00768	66 3b f2	 cmp	 si, dx
  0076b	0f 84 a9 0a 00
	00		 je	 $LN187@Value
  00771	ba 11 1a 00 00	 mov	 edx, 6673		; 00001a11H
  00776	66 3b f2	 cmp	 si, dx
  00779	0f 84 9b 0a 00
	00		 je	 $LN187@Value

; 2199 : 				break;
; 2200 : 		}
; 2201 : 	}
; 2202 : 	else if ( m_Type == ITEMGET(13,29) ) // Armor of Guardman

  0077f	ba 1d 1a 00 00	 mov	 edx, 6685		; 00001a1dH
  00784	66 3b f2	 cmp	 si, dx
  00787	75 0c		 jne	 SHORT $LN197@Value

; 2203 : 	{
; 2204 : 		Gold = 5000;

  00789	bb 88 13 00 00	 mov	 ebx, 5000		; 00001388H
  0078e	33 ff		 xor	 edi, edi
  00790	e9 ac 0a 00 00	 jmp	 $LN400@Value
$LN197@Value:

; 2205 : 	}
; 2206 : 	else if ( m_Type == ITEMGET(13,20) ) // Wizards Ring

  00795	ba 14 1a 00 00	 mov	 edx, 6676		; 00001a14H
  0079a	66 3b f2	 cmp	 si, dx
  0079d	75 33		 jne	 SHORT $LN199@Value

; 2212 : 				break;
; 2213 : 			default:
; 2214 : 				Gold = 0;

  0079f	8b 74 24 14	 mov	 esi, DWORD PTR _this$1$[esp+56]
  007a3	66 85 c9	 test	 cx, cx
  007a6	74 1a		 je	 SHORT $LN201@Value
  007a8	0f 57 c0	 xorps	 xmm0, xmm0
  007ab	66 0f 13 44 24
	30		 movlpd	 QWORD PTR _Gold$[esp+56], xmm0
  007b1	8b 7c 24 34	 mov	 edi, DWORD PTR _Gold$[esp+60]
  007b5	8b 5c 24 30	 mov	 ebx, DWORD PTR _Gold$[esp+56]
  007b9	89 7c 24 10	 mov	 DWORD PTR _Gold$7$[esp+56], edi
  007bd	e9 87 0a 00 00	 jmp	 $LN18@Value
$LN201@Value:

; 2207 : 	{
; 2208 : 		switch ( m_Level )
; 2209 : 		{
; 2210 : 			case 0:
; 2211 : 				Gold =30000;

  007c2	33 ff		 xor	 edi, edi
  007c4	bb 30 75 00 00	 mov	 ebx, 30000		; 00007530H
  007c9	89 7c 24 10	 mov	 DWORD PTR _Gold$7$[esp+56], edi

; 2215 : 		}
; 2216 : 	}
; 2217 : 	else if ( m_Type == ITEMGET(13,31) ) // Spirit

  007cd	e9 77 0a 00 00	 jmp	 $LN18@Value
$LN199@Value:
  007d2	ba 1f 1a 00 00	 mov	 edx, 6687		; 00001a1fH
  007d7	66 3b f2	 cmp	 si, dx
  007da	75 1e		 jne	 SHORT $LN203@Value

; 2218 : 	{
; 2219 : 		switch ( m_Level )

  007dc	83 e8 00	 sub	 eax, 0
  007df	0f 84 2d fb ff
	ff		 je	 $LN205@Value
  007e5	83 e8 01	 sub	 eax, 1
  007e8	0f 85 4b 0a 00
	00		 jne	 $LN392@Value

; 2220 : 		{
; 2221 : 			case 0:
; 2222 : 				Gold = 30000000;
; 2223 : 				break;
; 2224 : 
; 2225 : 			case 1:
; 2226 : 				Gold = 15000000;

  007ee	bb c0 e1 e4 00	 mov	 ebx, 15000000		; 00e4e1c0H
  007f3	33 ff		 xor	 edi, edi
  007f5	e9 47 0a 00 00	 jmp	 $LN400@Value
$LN203@Value:

; 2227 : 		}
; 2228 : 	}
; 2229 : 	else if ( m_Type == ITEMGET(14,28) ) // Lost Map

  007fa	ba 1c 1c 00 00	 mov	 edx, 7196		; 00001c1cH
  007ff	66 3b f2	 cmp	 si, dx
  00802	75 0c		 jne	 SHORT $LN207@Value
$LN226@Value:

; 2230 : 	{
; 2231 : 		Gold = 600000;

  00804	bb c0 27 09 00	 mov	 ebx, 600000		; 000927c0H
  00809	33 ff		 xor	 edi, edi
  0080b	e9 31 0a 00 00	 jmp	 $LN400@Value
$LN207@Value:

; 2232 : 	}
; 2233 : 	else if ( m_Type == ITEMGET(14,29) ) // Symbol of Kundun

  00810	ba 1d 1c 00 00	 mov	 edx, 7197		; 00001c1dH
  00815	66 3b f2	 cmp	 si, dx
  00818	75 23		 jne	 SHORT $LN209@Value

; 2234 : 	{
; 2235 : 		Gold = ((10000.0f) * m_Durability) * 3.0f;

  0081a	f3 0f 10 43 24	 movss	 xmm0, DWORD PTR [ebx+36]
  0081f	f3 0f 59 05 00
	00 00 00	 mulss	 xmm0, DWORD PTR __real@461c4000
  00827	f3 0f 59 05 00
	00 00 00	 mulss	 xmm0, DWORD PTR __real@40400000
  0082f	e8 00 00 00 00	 call	 __ftol3
  00834	8b d8		 mov	 ebx, eax
  00836	8b fa		 mov	 edi, edx
  00838	e9 04 0a 00 00	 jmp	 $LN400@Value
$LN209@Value:

; 2236 : 	}
; 2237 : 	else if ( m_Type == ITEMGET(14,45) ||
; 2238 : 		      m_Type == ITEMGET(14,46) ||
; 2239 : 			  m_Type == ITEMGET(14,47) ||
; 2240 : 			  m_Type == ITEMGET(14,48) ||
; 2241 : 			  m_Type == ITEMGET(14,49) ||

  0083d	ba 2d 1c 00 00	 mov	 edx, 7213		; 00001c2dH
  00842	66 3b f2	 cmp	 si, dx
  00845	0f 84 af 09 00
	00		 je	 $LN213@Value
  0084b	ba 2e 1c 00 00	 mov	 edx, 7214		; 00001c2eH
  00850	66 3b f2	 cmp	 si, dx
  00853	0f 84 a1 09 00
	00		 je	 $LN213@Value
  00859	ba 2f 1c 00 00	 mov	 edx, 7215		; 00001c2fH
  0085e	66 3b f2	 cmp	 si, dx
  00861	0f 84 93 09 00
	00		 je	 $LN213@Value
  00867	ba 30 1c 00 00	 mov	 edx, 7216		; 00001c30H
  0086c	66 3b f2	 cmp	 si, dx
  0086f	0f 84 85 09 00
	00		 je	 $LN213@Value
  00875	ba 31 1c 00 00	 mov	 edx, 7217		; 00001c31H
  0087a	66 3b f2	 cmp	 si, dx
  0087d	0f 84 77 09 00
	00		 je	 $LN213@Value
  00883	ba 32 1c 00 00	 mov	 edx, 7218		; 00001c32H
  00888	66 3b f2	 cmp	 si, dx
  0088b	0f 84 69 09 00
	00		 je	 $LN213@Value

; 2245 : 	}
; 2246 : 	else if ( m_Type == ITEMGET(12,26) )

  00891	ba 1a 18 00 00	 mov	 edx, 6170		; 0000181aH
  00896	66 3b f2	 cmp	 si, dx
  00899	75 15		 jne	 SHORT $LN214@Value

; 2247 : 	{
; 2248 : 		switch ( m_Level )

  0089b	66 85 c9	 test	 cx, cx
  0089e	0f 85 95 09 00
	00		 jne	 $LN392@Value

; 2249 : 		{
; 2250 : 			case 0:
; 2251 : 				Gold = 60000;

  008a4	bb 60 ea 00 00	 mov	 ebx, 60000		; 0000ea60H
  008a9	33 ff		 xor	 edi, edi

; 2252 : 				break;
; 2253 : 		}
; 2254 : 	}
; 2255 : 	else if ( m_Type == ITEMGET(14,51) )

  008ab	e9 91 09 00 00	 jmp	 $LN400@Value
$LN214@Value:
  008b0	b9 33 1c 00 00	 mov	 ecx, 7219		; 00001c33H
  008b5	66 3b f1	 cmp	 si, cx
  008b8	75 0c		 jne	 SHORT $LN217@Value

; 2256 : 	{
; 2257 : 		Gold = 200000;

  008ba	bb 40 0d 03 00	 mov	 ebx, 200000		; 00030d40H
  008bf	33 ff		 xor	 edi, edi

; 2258 : 	}
; 2259 : 	else if ( m_Type == ITEMGET(14,55) ||

  008c1	e9 7b 09 00 00	 jmp	 $LN400@Value
$LN217@Value:

; 2260 : 			  m_Type == ITEMGET(14,56) ||

  008c6	b9 37 1c 00 00	 mov	 ecx, 7223		; 00001c37H
  008cb	66 3b f1	 cmp	 si, cx
  008ce	0f 84 fe 08 00
	00		 je	 $LN239@Value
  008d4	b9 38 1c 00 00	 mov	 ecx, 7224		; 00001c38H
  008d9	66 3b f1	 cmp	 si, cx
  008dc	0f 84 f0 08 00
	00		 je	 $LN239@Value
  008e2	b9 39 1c 00 00	 mov	 ecx, 7225		; 00001c39H
  008e7	66 3b f1	 cmp	 si, cx
  008ea	0f 84 e2 08 00
	00		 je	 $LN239@Value

; 2261 : 			  m_Type == ITEMGET(14,57) )
; 2262 : 	{
; 2263 : 		Gold = 9000;
; 2264 : 	}
; 2265 : 	else if ( m_Type == ITEMGET(13,49) ||
; 2266 : 			  m_Type == ITEMGET(13,50) ||

  008f0	b9 31 1a 00 00	 mov	 ecx, 6705		; 00001a31H
  008f5	66 3b f1	 cmp	 si, cx
  008f8	0f 84 dd 08 00
	00		 je	 $LN224@Value
  008fe	b9 32 1a 00 00	 mov	 ecx, 6706		; 00001a32H
  00903	66 3b f1	 cmp	 si, cx
  00906	0f 84 cf 08 00
	00		 je	 $LN224@Value
  0090c	b9 33 1a 00 00	 mov	 ecx, 6707		; 00001a33H
  00911	66 3b f1	 cmp	 si, cx
  00914	0f 84 c1 08 00
	00		 je	 $LN224@Value

; 2289 : 		default:
; 2290 : 			Gold = 9000;
; 2291 : 			break;
; 2292 : 		}
; 2293 : 	}
; 2294 : 	else if ( m_Type == ITEMGET(13,52) ||

  0091a	b9 34 1a 00 00	 mov	 ecx, 6708		; 00001a34H
  0091f	66 3b f1	 cmp	 si, cx
  00922	0f 84 14 f9 ff
	ff		 je	 $LN234@Value
  00928	b9 35 1a 00 00	 mov	 ecx, 6709		; 00001a35H
  0092d	66 3b f1	 cmp	 si, cx
  00930	0f 84 06 f9 ff
	ff		 je	 $LN234@Value

; 2295 : 			  m_Type == ITEMGET(13,53) )
; 2296 : 	{
; 2297 : 		Gold = 3000000;
; 2298 : 	}
; 2299 : 	else if( m_Type >= ITEMGET(13,71) && m_Type <= ITEMGET(13,75) )

  00936	b9 47 1a 00 00	 mov	 ecx, 6727		; 00001a47H
  0093b	66 3b f1	 cmp	 si, cx
  0093e	7c 16		 jl	 SHORT $LN235@Value
  00940	b9 4b 1a 00 00	 mov	 ecx, 6731		; 00001a4bH
  00945	66 3b f1	 cmp	 si, cx
  00948	7f 0c		 jg	 SHORT $LN235@Value

; 2300 : 	{
; 2301 : 		Gold = 1000000;

  0094a	bb 40 42 0f 00	 mov	 ebx, 1000000		; 000f4240H
  0094f	33 ff		 xor	 edi, edi

; 2302 : 	}
; 2303 : 	else if ( m_Type == ITEMGET(14,23) ||

  00951	e9 eb 08 00 00	 jmp	 $LN400@Value
$LN235@Value:

; 2304 : 			  m_Type == ITEMGET(14,24) ||
; 2305 : 			  m_Type == ITEMGET(14,25) ||
; 2306 : 			  m_Type == ITEMGET(14,26) ||
; 2307 : 			  m_Type == ITEMGET(14,65) ||
; 2308 : 			  m_Type == ITEMGET(14,66) ||
; 2309 : 			  m_Type == ITEMGET(14,67) ||

  00956	b9 17 1c 00 00	 mov	 ecx, 7191		; 00001c17H
  0095b	66 3b f1	 cmp	 si, cx
  0095e	0f 84 6e 08 00
	00		 je	 $LN239@Value
  00964	b9 18 1c 00 00	 mov	 ecx, 7192		; 00001c18H
  00969	66 3b f1	 cmp	 si, cx
  0096c	0f 84 60 08 00
	00		 je	 $LN239@Value
  00972	b9 19 1c 00 00	 mov	 ecx, 7193		; 00001c19H
  00977	66 3b f1	 cmp	 si, cx
  0097a	0f 84 52 08 00
	00		 je	 $LN239@Value
  00980	b9 1a 1c 00 00	 mov	 ecx, 7194		; 00001c1aH
  00985	66 3b f1	 cmp	 si, cx
  00988	0f 84 44 08 00
	00		 je	 $LN239@Value
  0098e	b9 41 1c 00 00	 mov	 ecx, 7233		; 00001c41H
  00993	66 3b f1	 cmp	 si, cx
  00996	0f 84 36 08 00
	00		 je	 $LN239@Value
  0099c	b9 42 1c 00 00	 mov	 ecx, 7234		; 00001c42H
  009a1	66 3b f1	 cmp	 si, cx
  009a4	0f 84 28 08 00
	00		 je	 $LN239@Value
  009aa	b9 43 1c 00 00	 mov	 ecx, 7235		; 00001c43H
  009af	66 3b f1	 cmp	 si, cx
  009b2	0f 84 1a 08 00
	00		 je	 $LN239@Value
  009b8	b9 44 1c 00 00	 mov	 ecx, 7236		; 00001c44H
  009bd	66 3b f1	 cmp	 si, cx
  009c0	0f 84 0c 08 00
	00		 je	 $LN239@Value

; 2313 : 	}
; 2314 : 	else if( m_Type == ITEMGET(12,136) ) // life boundle

  009c6	b9 88 18 00 00	 mov	 ecx, 6280		; 00001888H
  009cb	66 3b f1	 cmp	 si, cx
  009ce	75 11		 jne	 SHORT $LN240@Value

; 2315 : 	{
; 2316 : 		Gold = (m_Level+1)*22500000*10;

  009d0	40		 inc	 eax
  009d1	69 c0 40 3a 69
	0d		 imul	 eax, eax, 225000000
  009d7	99		 cdq
  009d8	8b d8		 mov	 ebx, eax
  009da	8b fa		 mov	 edi, edx
  009dc	e9 60 08 00 00	 jmp	 $LN400@Value
$LN240@Value:

; 2317 : 	}
; 2318 : 	else if( m_Type == ITEMGET(12,137) ) // creation bundle

  009e1	b9 89 18 00 00	 mov	 ecx, 6281		; 00001889H
  009e6	66 3b f1	 cmp	 si, cx
  009e9	75 11		 jne	 SHORT $LN242@Value

; 2319 : 	{
; 2320 : 		Gold = (m_Level+1)*18000000*10;

  009eb	40		 inc	 eax
  009ec	69 c0 00 95 ba
	0a		 imul	 eax, eax, 180000000
  009f2	99		 cdq
  009f3	8b d8		 mov	 ebx, eax
  009f5	8b fa		 mov	 edi, edx
  009f7	e9 45 08 00 00	 jmp	 $LN400@Value
$LN242@Value:

; 2321 : 	}
; 2322 : 	else if( m_Type == ITEMGET(12,138) ) // guardian bundle

  009fc	b9 8a 18 00 00	 mov	 ecx, 6282		; 0000188aH
  00a01	66 3b f1	 cmp	 si, cx
  00a04	75 11		 jne	 SHORT $LN244@Value

; 2323 : 	{
; 2324 : 		Gold = (m_Level+1)*30000000*10;

  00a06	40		 inc	 eax
  00a07	69 c0 00 a3 e1
	11		 imul	 eax, eax, 300000000
  00a0d	99		 cdq
  00a0e	8b d8		 mov	 ebx, eax
  00a10	8b fa		 mov	 edi, edx
  00a12	e9 2a 08 00 00	 jmp	 $LN400@Value
$LN244@Value:

; 2325 : 	}
; 2326 : 	else if( m_Type == ITEMGET(12,139) ) // gemstone bundle

  00a17	b9 8b 18 00 00	 mov	 ecx, 6283		; 0000188bH
  00a1c	66 3b f1	 cmp	 si, cx
  00a1f	75 11		 jne	 SHORT $LN246@Value

; 2327 : 	{
; 2328 : 		Gold = (m_Level+1)*18600*10;

  00a21	40		 inc	 eax
  00a22	69 c0 90 d6 02
	00		 imul	 eax, eax, 186000
  00a28	99		 cdq
  00a29	8b d8		 mov	 ebx, eax
  00a2b	8b fa		 mov	 edi, edx
  00a2d	e9 0f 08 00 00	 jmp	 $LN400@Value
$LN246@Value:

; 2329 : 	}
; 2330 : 	else if( m_Type == ITEMGET(12,140) ) // harmony boundle

  00a32	b9 8c 18 00 00	 mov	 ecx, 6284		; 0000188cH
  00a37	66 3b f1	 cmp	 si, cx
  00a3a	75 11		 jne	 SHORT $LN248@Value

; 2331 : 	{
; 2332 : 		Gold = (m_Level+1)*18600*10;

  00a3c	40		 inc	 eax
  00a3d	69 c0 90 d6 02
	00		 imul	 eax, eax, 186000
  00a43	99		 cdq
  00a44	8b d8		 mov	 ebx, eax
  00a46	8b fa		 mov	 edi, edx
  00a48	e9 f4 07 00 00	 jmp	 $LN400@Value
$LN248@Value:

; 2333 : 	}
; 2334 : 	else if( m_Type == ITEMGET(12,141) ) // chaos bundle

  00a4d	b9 8d 18 00 00	 mov	 ecx, 6285		; 0000188dH
  00a52	66 3b f1	 cmp	 si, cx
  00a55	75 11		 jne	 SHORT $LN250@Value

; 2335 : 	{
; 2336 : 		Gold = (m_Level+1)*810000*10;

  00a57	40		 inc	 eax
  00a58	69 c0 a0 98 7b
	00		 imul	 eax, eax, 8100000
  00a5e	99		 cdq
  00a5f	8b d8		 mov	 ebx, eax
  00a61	8b fa		 mov	 edi, edx
  00a63	e9 d9 07 00 00	 jmp	 $LN400@Value
$LN250@Value:

; 2337 : 	}
; 2338 : 	else if( m_Type == ITEMGET(12,142) )

  00a68	b9 8e 18 00 00	 mov	 ecx, 6286		; 0000188eH
  00a6d	66 3b f1	 cmp	 si, cx
  00a70	75 11		 jne	 SHORT $LN252@Value

; 2339 : 	{
; 2340 : 		Gold = (m_Level+1)*18600*10;

  00a72	40		 inc	 eax
  00a73	69 c0 90 d6 02
	00		 imul	 eax, eax, 186000
  00a79	99		 cdq
  00a7a	8b d8		 mov	 ebx, eax
  00a7c	8b fa		 mov	 edi, edx
  00a7e	e9 be 07 00 00	 jmp	 $LN400@Value
$LN252@Value:

; 2341 : 	}
; 2342 : 	else if( m_Type == ITEMGET(12,143) )

  00a83	b9 8f 18 00 00	 mov	 ecx, 6287		; 0000188fH
  00a88	66 3b f1	 cmp	 si, cx
  00a8b	75 11		 jne	 SHORT $LN254@Value

; 2343 : 	{
; 2344 : 		Gold = (m_Level+1)*18600*10;

  00a8d	40		 inc	 eax
  00a8e	69 c0 90 d6 02
	00		 imul	 eax, eax, 186000
  00a94	99		 cdq
  00a95	8b d8		 mov	 ebx, eax
  00a97	8b fa		 mov	 edi, edx
  00a99	e9 a3 07 00 00	 jmp	 $LN400@Value
$LN254@Value:

; 2345 : 	}
; 2346 : 	else if( g_ElementalSystem.IsPentagram(m_Type) )

  00a9e	ff 74 24 28	 push	 DWORD PTR tv2008[esp+56]
  00aa2	b9 00 00 00 00	 mov	 ecx, OFFSET ?g_ElementalSystem@@3VCElementalSystem@@A ; g_ElementalSystem
  00aa7	e8 00 00 00 00	 call	 ?IsPentagram@CElementalSystem@@QAEHH@Z ; CElementalSystem::IsPentagram
  00aac	85 c0		 test	 eax, eax
  00aae	74 70		 je	 SHORT $LN256@Value

; 2347 : 	{
; 2348 : 		Gold = 100000 + (p->Level*(m_Level+50))*(m_Level*10);

  00ab0	0f bf 4b 08	 movsx	 ecx, WORD PTR [ebx+8]
  00ab4	8b 44 24 18	 mov	 eax, DWORD PTR _p$1$[esp+56]

; 2349 : 		Gold = Gold*(g_ElementalSystem.GetSlotCount(this) * 0.8f);

  00ab8	53		 push	 ebx
  00ab9	8d 51 32	 lea	 edx, DWORD PTR [ecx+50]
  00abc	0f b6 40 22	 movzx	 eax, BYTE PTR [eax+34]
  00ac0	0f af d0	 imul	 edx, eax
  00ac3	0f af d1	 imul	 edx, ecx
  00ac6	b9 00 00 00 00	 mov	 ecx, OFFSET ?g_ElementalSystem@@3VCElementalSystem@@A ; g_ElementalSystem
  00acb	81 c2 10 27 00
	00		 add	 edx, 10000		; 00002710H
  00ad1	8d 04 92	 lea	 eax, DWORD PTR [edx+edx*4]
  00ad4	03 c0		 add	 eax, eax
  00ad6	99		 cdq
  00ad7	8b f8		 mov	 edi, eax
  00ad9	8b f2		 mov	 esi, edx
  00adb	e8 00 00 00 00	 call	 ?GetSlotCount@CElementalSystem@@QAEEPAVCItem@@@Z ; CElementalSystem::GetSlotCount
  00ae0	0f b6 c8	 movzx	 ecx, al
  00ae3	8b d6		 mov	 edx, esi
  00ae5	66 0f 6e c1	 movd	 xmm0, ecx
  00ae9	8b cf		 mov	 ecx, edi
  00aeb	0f 5b c0	 cvtdq2ps xmm0, xmm0
  00aee	f3 0f 59 05 00
	00 00 00	 mulss	 xmm0, DWORD PTR __real@3f4ccccd
  00af6	f3 0f 11 44 24
	28		 movss	 DWORD PTR tv1587[esp+56], xmm0
  00afc	e8 00 00 00 00	 call	 __ltod3
  00b01	0f 57 c9	 xorps	 xmm1, xmm1
  00b04	f2 0f 5a c8	 cvtsd2ss xmm1, xmm0
  00b08	f3 0f 10 44 24
	28		 movss	 xmm0, DWORD PTR tv1587[esp+56]
  00b0e	f3 0f 59 c1	 mulss	 xmm0, xmm1
  00b12	e8 00 00 00 00	 call	 __ftol3
  00b17	8b d8		 mov	 ebx, eax
  00b19	8b fa		 mov	 edi, edx
  00b1b	e9 21 07 00 00	 jmp	 $LN400@Value
$LN256@Value:

; 2350 : 	}
; 2351 : 	else if( g_ElementalSystem.IsErrtel(m_Type) )

  00b20	0f bf 43 06	 movsx	 eax, WORD PTR [ebx+6]
  00b24	b9 00 00 00 00	 mov	 ecx, OFFSET ?g_ElementalSystem@@3VCElementalSystem@@A ; g_ElementalSystem
  00b29	50		 push	 eax
  00b2a	e8 00 00 00 00	 call	 ?IsErrtel@CElementalSystem@@QAEHH@Z ; CElementalSystem::IsErrtel
  00b2f	85 c0		 test	 eax, eax
  00b31	0f 84 9b 00 00
	00		 je	 $LN258@Value

; 2352 : 	{
; 2353 : 		int level = 0;
; 2354 : 
; 2355 : 		for(int i = 0; i < 5; i++)	{
; 2356 : 			if( m_SocketOption[i] == (BYTE)-1 )

  00b37	8a 83 c8 00 00
	00		 mov	 al, BYTE PTR [ebx+200]
  00b3d	33 c9		 xor	 ecx, ecx
  00b3f	3c ff		 cmp	 al, 255			; 000000ffH
  00b41	74 06		 je	 SHORT $LN28@Value

; 2357 : 				continue;
; 2358 : 
; 2359 : 			level += m_SocketOption[i]/16;

  00b43	0f b6 c8	 movzx	 ecx, al
  00b46	c1 e9 04	 shr	 ecx, 4
$LN28@Value:

; 2352 : 	{
; 2353 : 		int level = 0;
; 2354 : 
; 2355 : 		for(int i = 0; i < 5; i++)	{
; 2356 : 			if( m_SocketOption[i] == (BYTE)-1 )

  00b49	8a 83 c9 00 00
	00		 mov	 al, BYTE PTR [ebx+201]
  00b4f	3c ff		 cmp	 al, 255			; 000000ffH
  00b51	74 08		 je	 SHORT $LN373@Value

; 2357 : 				continue;
; 2358 : 
; 2359 : 			level += m_SocketOption[i]/16;

  00b53	0f b6 c0	 movzx	 eax, al
  00b56	c1 e8 04	 shr	 eax, 4
  00b59	03 c8		 add	 ecx, eax
$LN373@Value:

; 2352 : 	{
; 2353 : 		int level = 0;
; 2354 : 
; 2355 : 		for(int i = 0; i < 5; i++)	{
; 2356 : 			if( m_SocketOption[i] == (BYTE)-1 )

  00b5b	8a 83 ca 00 00
	00		 mov	 al, BYTE PTR [ebx+202]
  00b61	3c ff		 cmp	 al, 255			; 000000ffH
  00b63	74 08		 je	 SHORT $LN375@Value

; 2357 : 				continue;
; 2358 : 
; 2359 : 			level += m_SocketOption[i]/16;

  00b65	0f b6 c0	 movzx	 eax, al
  00b68	c1 e8 04	 shr	 eax, 4
  00b6b	03 c8		 add	 ecx, eax
$LN375@Value:

; 2352 : 	{
; 2353 : 		int level = 0;
; 2354 : 
; 2355 : 		for(int i = 0; i < 5; i++)	{
; 2356 : 			if( m_SocketOption[i] == (BYTE)-1 )

  00b6d	8a 83 cb 00 00
	00		 mov	 al, BYTE PTR [ebx+203]
  00b73	3c ff		 cmp	 al, 255			; 000000ffH
  00b75	74 08		 je	 SHORT $LN377@Value

; 2357 : 				continue;
; 2358 : 
; 2359 : 			level += m_SocketOption[i]/16;

  00b77	0f b6 c0	 movzx	 eax, al
  00b7a	c1 e8 04	 shr	 eax, 4
  00b7d	03 c8		 add	 ecx, eax
$LN377@Value:

; 2352 : 	{
; 2353 : 		int level = 0;
; 2354 : 
; 2355 : 		for(int i = 0; i < 5; i++)	{
; 2356 : 			if( m_SocketOption[i] == (BYTE)-1 )

  00b7f	8a 83 cc 00 00
	00		 mov	 al, BYTE PTR [ebx+204]
  00b85	3c ff		 cmp	 al, 255			; 000000ffH
  00b87	74 08		 je	 SHORT $LN379@Value

; 2357 : 				continue;
; 2358 : 
; 2359 : 			level += m_SocketOption[i]/16;

  00b89	0f b6 c0	 movzx	 eax, al
  00b8c	c1 e8 04	 shr	 eax, 4
  00b8f	03 c8		 add	 ecx, eax
$LN379@Value:

; 2360 : 		}
; 2361 : 
; 2362 : 		int glevel = p->Level+level*5;

  00b91	8b 44 24 18	 mov	 eax, DWORD PTR _p$1$[esp+56]
  00b95	8d 3c 89	 lea	 edi, DWORD PTR [ecx+ecx*4]

; 2363 : 		Gold = 2*g_ElementalSystem.GetSlotCount(this)*(100 + (glevel+40)*glevel*(glevel/8));

  00b98	53		 push	 ebx
  00b99	b9 00 00 00 00	 mov	 ecx, OFFSET ?g_ElementalSystem@@3VCElementalSystem@@A ; g_ElementalSystem
  00b9e	0f b6 40 22	 movzx	 eax, BYTE PTR [eax+34]
  00ba2	03 f8		 add	 edi, eax
  00ba4	e8 00 00 00 00	 call	 ?GetSlotCount@CElementalSystem@@QAEEPAVCItem@@@Z ; CElementalSystem::GetSlotCount
  00ba9	0f b6 f0	 movzx	 esi, al
  00bac	8d 4f 28	 lea	 ecx, DWORD PTR [edi+40]
  00baf	8b c7		 mov	 eax, edi
  00bb1	99		 cdq
  00bb2	83 e2 07	 and	 edx, 7
  00bb5	03 c2		 add	 eax, edx
  00bb7	c1 f8 03	 sar	 eax, 3
  00bba	0f af c1	 imul	 eax, ecx
  00bbd	0f af c7	 imul	 eax, edi
  00bc0	83 c0 64	 add	 eax, 100		; 00000064H
  00bc3	0f af c6	 imul	 eax, esi
  00bc6	03 c0		 add	 eax, eax
  00bc8	99		 cdq
  00bc9	8b d8		 mov	 ebx, eax
  00bcb	8b fa		 mov	 edi, edx
  00bcd	e9 6f 06 00 00	 jmp	 $LN400@Value
$LN258@Value:

; 2364 : 	}
; 2365 : 	else if( m_Type == ITEMGET(12,144) || m_Type == ITEMGET(12,146) )

  00bd2	0f b7 73 06	 movzx	 esi, WORD PTR [ebx+6]
  00bd6	b8 90 18 00 00	 mov	 eax, 6288		; 00001890H
  00bdb	66 3b f0	 cmp	 si, ax
  00bde	0f 84 dc 05 00
	00		 je	 $LN263@Value
  00be4	b8 92 18 00 00	 mov	 eax, 6290		; 00001892H
  00be9	66 3b f0	 cmp	 si, ax
  00bec	0f 84 ce 05 00
	00		 je	 $LN263@Value

; 2368 : 	}
; 2369 : 	else if( m_Type == ITEMGET(12,145) ||
; 2370 : 			 m_Type == ITEMGET(12,147) ||
; 2371 : 			 m_Type == ITEMGET(12,148) ||

  00bf2	b8 91 18 00 00	 mov	 eax, 6289		; 00001891H
  00bf7	66 3b f0	 cmp	 si, ax
  00bfa	0f 84 ad f7 ff
	ff		 je	 $LN160@Value
  00c00	b8 93 18 00 00	 mov	 eax, 6291		; 00001893H
  00c05	66 3b f0	 cmp	 si, ax
  00c08	0f 84 9f f7 ff
	ff		 je	 $LN160@Value
  00c0e	b8 94 18 00 00	 mov	 eax, 6292		; 00001894H
  00c13	66 3b f0	 cmp	 si, ax
  00c16	0f 84 91 f7 ff
	ff		 je	 $LN160@Value
  00c1c	b8 95 18 00 00	 mov	 eax, 6293		; 00001895H
  00c21	66 3b f0	 cmp	 si, ax
  00c24	0f 84 83 f7 ff
	ff		 je	 $LN160@Value

; 2372 : 			 m_Type == ITEMGET(12,149) )
; 2373 : 	{
; 2374 : 		Gold = 1500000;
; 2375 : 	}
; 2376 : 	else if( m_Type == ITEMGET(13,145) )

  00c2a	b8 91 1a 00 00	 mov	 eax, 6801		; 00001a91H
  00c2f	66 3b f0	 cmp	 si, ax
  00c32	75 15		 jne	 SHORT $LN267@Value

; 2377 : 	{
; 2378 : 		Gold = 30000 * (int)m_Durability;

  00c34	f3 0f 2c 43 24	 cvttss2si eax, DWORD PTR [ebx+36]
  00c39	69 c0 30 75 00
	00		 imul	 eax, eax, 30000
  00c3f	99		 cdq
  00c40	8b d8		 mov	 ebx, eax
  00c42	8b fa		 mov	 edi, edx
  00c44	e9 f8 05 00 00	 jmp	 $LN400@Value
$LN267@Value:

; 2379 : 	}
; 2380 : 	else if( m_Type == ITEMGET(13,146) )

  00c49	b8 92 1a 00 00	 mov	 eax, 6802		; 00001a92H
  00c4e	66 3b f0	 cmp	 si, ax
  00c51	75 0c		 jne	 SHORT $LN269@Value

; 2381 : 	{
; 2382 : 		Gold = 600000;

  00c53	bb c0 27 09 00	 mov	 ebx, 600000		; 000927c0H
  00c58	33 ff		 xor	 edi, edi
  00c5a	e9 e2 05 00 00	 jmp	 $LN400@Value
$LN269@Value:

; 2383 : 	}
; 2384 : 	else if ( p->Value > 0 )

  00c5f	8b 4c 24 18	 mov	 ecx, DWORD PTR _p$1$[esp+56]
  00c63	0f b7 41 3c	 movzx	 eax, WORD PTR [ecx+60]
  00c67	66 85 c0	 test	 ax, ax
  00c6a	0f 84 ff 00 00
	00		 je	 $LN271@Value

; 2385 : 	{
; 2386 : 		Gold += (p->Value * p->Value * 10)/12;

  00c70	0f af c0	 imul	 eax, eax
  00c73	8d 0c 80	 lea	 ecx, DWORD PTR [eax+eax*4]
  00c76	b8 ab aa aa 2a	 mov	 eax, 715827883		; 2aaaaaabH
  00c7b	03 c9		 add	 ecx, ecx
  00c7d	f7 e9		 imul	 ecx
  00c7f	d1 fa		 sar	 edx, 1
  00c81	8b c2		 mov	 eax, edx
  00c83	c1 e8 1f	 shr	 eax, 31			; 0000001fH
  00c86	03 c2		 add	 eax, edx
  00c88	99		 cdq
  00c89	8b d8		 mov	 ebx, eax
  00c8b	8b fa		 mov	 edi, edx

; 2387 : 
; 2388 : 		if ( m_Type >= ITEMGET(14,0) && m_Type <= ITEMGET(14,8) )	// Potions + Antidote

  00c8d	b8 00 1c 00 00	 mov	 eax, 7168		; 00001c00H
  00c92	89 7c 24 10	 mov	 DWORD PTR _Gold$7$[esp+56], edi
  00c96	66 3b f0	 cmp	 si, ax
  00c99	0f 8c a6 05 00
	00		 jl	 $LN394@Value
  00c9f	b8 08 1c 00 00	 mov	 eax, 7176		; 00001c08H
  00ca4	66 3b f0	 cmp	 si, ax
  00ca7	0f 8f 98 05 00
	00		 jg	 $LN394@Value

; 2389 : 		{
; 2390 : 
; 2391 : 			if ( m_Type == ITEMGET(14,3) || m_Type == ITEMGET(14,6) )

  00cad	b8 03 1c 00 00	 mov	 eax, 7171		; 00001c03H
  00cb2	66 3b f0	 cmp	 si, ax
  00cb5	74 0a		 je	 SHORT $LN275@Value
  00cb7	b8 06 1c 00 00	 mov	 eax, 7174		; 00001c06H
  00cbc	66 3b f0	 cmp	 si, ax
  00cbf	75 0a		 jne	 SHORT $LN274@Value
$LN275@Value:

; 2392 : 			{
; 2393 : 				Gold *= 2;

  00cc1	0f a4 df 01	 shld	 edi, ebx, 1
  00cc5	89 7c 24 10	 mov	 DWORD PTR _Gold$7$[esp+56], edi
  00cc9	03 db		 add	 ebx, ebx
$LN274@Value:

; 2394 : 			}
; 2395 : 
; 2396 : 			if ( m_Level > 0 )

  00ccb	8b 74 24 14	 mov	 esi, DWORD PTR _this$1$[esp+56]
  00ccf	66 83 7e 08 00	 cmp	 WORD PTR [esi+8], 0
  00cd4	7e 32		 jle	 SHORT $LN276@Value

; 2397 : 			{
; 2398 : 				Gold *= (__int64)(pow(2.0f, Level)) ;

  00cd6	ff 74 24 2c	 push	 DWORD PTR _Level$1$[esp+56]
  00cda	51		 push	 ecx
  00cdb	c7 04 24 00 00
	00 40		 mov	 DWORD PTR [esp], 1073741824 ; 40000000H
  00ce2	e8 00 00 00 00	 call	 ?pow@@YAMMH@Z		; pow
  00ce7	83 c4 08	 add	 esp, 8
  00cea	d9 5c 24 2c	 fstp	 DWORD PTR tv2405[esp+56]
  00cee	f3 0f 10 44 24
	2c		 movss	 xmm0, DWORD PTR tv2405[esp+56]
  00cf4	e8 00 00 00 00	 call	 __ftol3
  00cf9	57		 push	 edi
  00cfa	53		 push	 ebx
  00cfb	52		 push	 edx
  00cfc	50		 push	 eax
  00cfd	e8 00 00 00 00	 call	 __allmul
  00d02	8b d8		 mov	 ebx, eax
  00d04	89 54 24 10	 mov	 DWORD PTR _Gold$7$[esp+56], edx
$LN276@Value:

; 2399 : 			}
; 2400 : 
; 2401 : 			Gold = Gold/10*10;
; 2402 : 			Gold *= (__int64)m_Durability;

  00d08	f3 0f 10 46 24	 movss	 xmm0, DWORD PTR [esi+36]
  00d0d	e8 00 00 00 00	 call	 __ftol3
  00d12	6a 00		 push	 0
  00d14	6a 0a		 push	 10			; 0000000aH
  00d16	ff 74 24 18	 push	 DWORD PTR _Gold$7$[esp+64]
  00d1a	8b f8		 mov	 edi, eax
  00d1c	8b f2		 mov	 esi, edx
  00d1e	53		 push	 ebx
  00d1f	e8 00 00 00 00	 call	 __alldiv
  00d24	52		 push	 edx
  00d25	50		 push	 eax
  00d26	56		 push	 esi
  00d27	57		 push	 edi
  00d28	e8 00 00 00 00	 call	 __allmul

; 2403 : 			m_BuyMoney = Gold;

  00d2d	8b 5c 24 14	 mov	 ebx, DWORD PTR _this$1$[esp+56]
  00d31	8b c8		 mov	 ecx, eax
  00d33	8b f2		 mov	 esi, edx
  00d35	0f a4 ce 02	 shld	 esi, ecx, 2

; 2404 : 			m_SellMoney = Gold/3;

  00d39	6a 00		 push	 0
  00d3b	c1 e1 02	 shl	 ecx, 2
  00d3e	03 c1		 add	 eax, ecx
  00d40	6a 03		 push	 3
  00d42	13 d6		 adc	 edx, esi
  00d44	0f a4 c2 01	 shld	 edx, eax, 1
  00d48	03 c0		 add	 eax, eax
  00d4a	52		 push	 edx
  00d4b	50		 push	 eax
  00d4c	89 43 78	 mov	 DWORD PTR [ebx+120], eax
  00d4f	e8 00 00 00 00	 call	 __alldiv
  00d54	8b c8		 mov	 ecx, eax

; 2405 : 			m_SellMoney = m_SellMoney/10*10;

  00d56	b8 cd cc cc cc	 mov	 eax, -858993459		; cccccccdH
  00d5b	f7 e1		 mul	 ecx
  00d5d	c1 ea 03	 shr	 edx, 3
  00d60	8d 04 92	 lea	 eax, DWORD PTR [edx+edx*4]
  00d63	03 c0		 add	 eax, eax
  00d65	89 43 74	 mov	 DWORD PTR [ebx+116], eax

; 2689 : 	}
; 2690 : }

  00d68	5f		 pop	 edi
  00d69	5e		 pop	 esi
  00d6a	5b		 pop	 ebx
  00d6b	8b e5		 mov	 esp, ebp
  00d6d	5d		 pop	 ebp
  00d6e	c3		 ret	 0
$LN271@Value:

; 2406 : 			return;
; 2407 : 		}
; 2408 : 	}
; 2409 : 	else if ( Type == 12 && ( 
; 2410 : 								( m_Type > ITEMGET(12,6) && m_Type < ITEMGET(12,36) ) || 
; 2411 : 								( m_Type > ITEMGET(12,43) && m_Type < ITEMGET(12,440) ) ||
; 2412 : 								( m_Type > ITEMGET(12,445) ) &&
; 2413 : 								( m_Type != ITEMGET(12,50) )
; 2414 : 							)
; 2415 : 			|| Type == 13 || Type == 15 )

  00d6f	8b 54 24 20	 mov	 edx, DWORD PTR _Type$1$[esp+56]
  00d73	b8 06 18 00 00	 mov	 eax, 6150		; 00001806H
  00d78	83 fa 0c	 cmp	 edx, 12			; 0000000cH
  00d7b	0f 85 b1 00 00
	00		 jne	 $LN283@Value
  00d81	66 3b f0	 cmp	 si, ax
  00d84	7e 0a		 jle	 SHORT $LN281@Value
  00d86	b8 24 18 00 00	 mov	 eax, 6180		; 00001824H
  00d8b	66 3b f0	 cmp	 si, ax
  00d8e	7c 30		 jl	 SHORT $LN279@Value
$LN281@Value:
  00d90	b8 2b 18 00 00	 mov	 eax, 6187		; 0000182bH
  00d95	66 3b f0	 cmp	 si, ax
  00d98	7e 0a		 jle	 SHORT $LN282@Value
  00d9a	b8 b8 19 00 00	 mov	 eax, 6584		; 000019b8H
  00d9f	66 3b f0	 cmp	 si, ax
  00da2	7c 1c		 jl	 SHORT $LN279@Value
$LN282@Value:
  00da4	b8 bd 19 00 00	 mov	 eax, 6589		; 000019bdH
  00da9	66 3b f0	 cmp	 si, ax
  00dac	0f 8e 8a 00 00
	00		 jle	 $LN385@Value
  00db2	b8 32 18 00 00	 mov	 eax, 6194		; 00001832H
  00db7	66 3b f0	 cmp	 si, ax
  00dba	0f 84 7c 00 00
	00		 je	 $LN385@Value
$LN279@Value:

; 2416 : 	{
; 2417 : 		Gold = Level2*Level2*Level2+100;
; 2418 : 
; 2419 : 		for (int u=0;u<m_SpecialNum;u++)

  00dc0	8b 74 24 14	 mov	 esi, DWORD PTR _this$1$[esp+56]
  00dc4	8b c7		 mov	 eax, edi
  00dc6	0f af c7	 imul	 eax, edi
  00dc9	0f b6 4e 30	 movzx	 ecx, BYTE PTR [esi+48]
  00dcd	89 4c 24 1c	 mov	 DWORD PTR tv2000[esp+56], ecx
  00dd1	0f af c7	 imul	 eax, edi
  00dd4	83 c0 64	 add	 eax, 100		; 00000064H
  00dd7	99		 cdq
  00dd8	8b fa		 mov	 edi, edx
  00dda	8b d8		 mov	 ebx, eax
  00ddc	89 7c 24 10	 mov	 DWORD PTR _Gold$7$[esp+56], edi
  00de0	85 c9		 test	 ecx, ecx
  00de2	0f 8e 61 04 00
	00		 jle	 $LN18@Value

; 2422 : 			{
; 2423 : 				case 0x55:
; 2424 : 					Gold += Gold*m_Option3;

  00de8	8d 46 32	 lea	 eax, DWORD PTR [esi+50]
  00deb	89 44 24 20	 mov	 DWORD PTR tv1908[esp+56], eax
  00def	90		 npad	 1
$LL33@Value:

; 2420 : 		{
; 2421 : 			switch ( m_Special[u] )

  00df0	66 83 38 55	 cmp	 WORD PTR [eax], 85	; 00000055H
  00df4	75 23		 jne	 SHORT $LN31@Value

; 2422 : 			{
; 2423 : 				case 0x55:
; 2424 : 					Gold += Gold*m_Option3;

  00df6	0f b6 86 92 00
	00 00		 movzx	 eax, BYTE PTR [esi+146]
  00dfd	99		 cdq
  00dfe	83 c0 01	 add	 eax, 1
  00e01	57		 push	 edi
  00e02	53		 push	 ebx
  00e03	83 d2 00	 adc	 edx, 0
  00e06	52		 push	 edx
  00e07	50		 push	 eax
  00e08	e8 00 00 00 00	 call	 __allmul
  00e0d	8b 4c 24 1c	 mov	 ecx, DWORD PTR tv2000[esp+56]
  00e11	8b d8		 mov	 ebx, eax
  00e13	8b 44 24 20	 mov	 eax, DWORD PTR tv1908[esp+56]
  00e17	8b fa		 mov	 edi, edx
$LN31@Value:

; 2416 : 	{
; 2417 : 		Gold = Level2*Level2*Level2+100;
; 2418 : 
; 2419 : 		for (int u=0;u<m_SpecialNum;u++)

  00e19	83 c0 02	 add	 eax, 2
  00e1c	83 e9 01	 sub	 ecx, 1
  00e1f	89 44 24 20	 mov	 DWORD PTR tv1908[esp+56], eax
  00e23	89 4c 24 1c	 mov	 DWORD PTR tv2000[esp+56], ecx
  00e27	75 c7		 jne	 SHORT $LL33@Value
  00e29	89 7c 24 10	 mov	 DWORD PTR _Gold$7$[esp+56], edi

; 2425 : 			}
; 2426 : 		}
; 2427 : 	}
; 2428 : 	else if( m_Type == ITEMGET(14,63) )

  00e2d	e9 17 04 00 00	 jmp	 $LN18@Value
$LN283@Value:

; 2406 : 			return;
; 2407 : 		}
; 2408 : 	}
; 2409 : 	else if ( Type == 12 && ( 
; 2410 : 								( m_Type > ITEMGET(12,6) && m_Type < ITEMGET(12,36) ) || 
; 2411 : 								( m_Type > ITEMGET(12,43) && m_Type < ITEMGET(12,440) ) ||
; 2412 : 								( m_Type > ITEMGET(12,445) ) &&
; 2413 : 								( m_Type != ITEMGET(12,50) )
; 2414 : 							)
; 2415 : 			|| Type == 13 || Type == 15 )

  00e32	83 fa 0d	 cmp	 edx, 13			; 0000000dH
  00e35	74 89		 je	 SHORT $LN279@Value
  00e37	83 fa 0f	 cmp	 edx, 15			; 0000000fH
  00e3a	74 84		 je	 SHORT $LN279@Value
$LN385@Value:

; 2425 : 			}
; 2426 : 		}
; 2427 : 	}
; 2428 : 	else if( m_Type == ITEMGET(14,63) )

  00e3c	b8 3f 1c 00 00	 mov	 eax, 7231		; 00001c3fH
  00e41	66 3b f0	 cmp	 si, ax
  00e44	75 0c		 jne	 SHORT $LN285@Value

; 2429 : 	{
; 2430 : 		Gold = 200000;

  00e46	bb 40 0d 03 00	 mov	 ebx, 200000		; 00030d40H
  00e4b	33 ff		 xor	 edi, edi

; 2431 : 	}
; 2432 : 	else if( m_Type == ITEMGET(14,85) ||

  00e4d	e9 ef 03 00 00	 jmp	 $LN400@Value
$LN285@Value:

; 2433 : 			 m_Type == ITEMGET(14,86) ||
; 2434 : 			 m_Type == ITEMGET(14,87) ||

  00e52	b8 55 1c 00 00	 mov	 eax, 7253		; 00001c55H
  00e57	66 3b f0	 cmp	 si, ax
  00e5a	0f 84 98 f5 ff
	ff		 je	 $LN289@Value
  00e60	b8 56 1c 00 00	 mov	 eax, 7254		; 00001c56H
  00e65	66 3b f0	 cmp	 si, ax
  00e68	0f 84 8a f5 ff
	ff		 je	 $LN289@Value
  00e6e	b8 57 1c 00 00	 mov	 eax, 7255		; 00001c57H
  00e73	66 3b f0	 cmp	 si, ax
  00e76	0f 84 7c f5 ff
	ff		 je	 $LN289@Value
  00e7c	b8 5a 1c 00 00	 mov	 eax, 7258		; 00001c5aH
  00e81	66 3b f0	 cmp	 si, ax
  00e84	0f 84 6e f5 ff
	ff		 je	 $LN289@Value

; 2435 : 			 m_Type == ITEMGET(14,90) )
; 2436 : 	{
; 2437 : 		Gold = (int)m_Durability * 300;
; 2438 : 	}
; 2439 : 	else if( m_Type == ITEMGET(14,110) )

  00e8a	b8 6e 1c 00 00	 mov	 eax, 7278		; 00001c6eH
  00e8f	66 3b f0	 cmp	 si, ax
  00e92	75 15		 jne	 SHORT $LN290@Value

; 2440 : 	{
; 2441 : 		Gold = (int)m_Durability * 30000;

  00e94	f3 0f 2c 43 24	 cvttss2si eax, DWORD PTR [ebx+36]
  00e99	69 c0 30 75 00
	00		 imul	 eax, eax, 30000
  00e9f	99		 cdq
  00ea0	8b d8		 mov	 ebx, eax
  00ea2	8b fa		 mov	 edi, edx
  00ea4	e9 98 03 00 00	 jmp	 $LN400@Value
$LN290@Value:

; 2442 : 	}
; 2443 : 	else if( m_Type == ITEMGET(14,111) )

  00ea9	b8 6f 1c 00 00	 mov	 eax, 7279		; 00001c6fH
  00eae	66 3b f0	 cmp	 si, ax
  00eb1	75 0c		 jne	 SHORT $LN292@Value

; 2444 : 	{
; 2445 : 		Gold = 600000;

  00eb3	bb c0 27 09 00	 mov	 ebx, 600000		; 000927c0H
  00eb8	33 ff		 xor	 edi, edi

; 2446 : 	}
; 2447 : 	else

  00eba	e9 82 03 00 00	 jmp	 $LN400@Value
$LN292@Value:

; 2448 : 	{
; 2449 : 		switch ( m_Level )

  00ebf	0f bf 43 08	 movsx	 eax, WORD PTR [ebx+8]
  00ec3	83 c0 fb	 add	 eax, -5			; fffffffbH
  00ec6	83 f8 0a	 cmp	 eax, 10			; 0000000aH
  00ec9	77 4b		 ja	 SHORT $LN36@Value
  00ecb	ff 24 85 00 00
	00 00		 jmp	 DWORD PTR $LN409@Value[eax*4]
$LN294@Value:

; 2450 : 		{
; 2451 : 			case  5:	Level2 +=   4;	break;

  00ed2	83 c7 04	 add	 edi, 4
  00ed5	eb 3f		 jmp	 SHORT $LN36@Value
$LN295@Value:

; 2452 : 			case  6:	Level2 +=  10;	break;

  00ed7	83 c7 0a	 add	 edi, 10			; 0000000aH
  00eda	eb 3a		 jmp	 SHORT $LN36@Value
$LN296@Value:

; 2453 : 			case  7:	Level2 +=  25;	break;

  00edc	83 c7 19	 add	 edi, 25			; 00000019H
  00edf	eb 35		 jmp	 SHORT $LN36@Value
$LN297@Value:

; 2454 : 			case  8:	Level2 +=  45;	break;

  00ee1	83 c7 2d	 add	 edi, 45			; 0000002dH
  00ee4	eb 30		 jmp	 SHORT $LN36@Value
$LN298@Value:

; 2455 : 			case  9:	Level2 +=  65;	break;

  00ee6	83 c7 41	 add	 edi, 65			; 00000041H
  00ee9	eb 2b		 jmp	 SHORT $LN36@Value
$LN299@Value:

; 2456 : 			case 10:	Level2 +=  95;	break;

  00eeb	83 c7 5f	 add	 edi, 95			; 0000005fH
  00eee	eb 26		 jmp	 SHORT $LN36@Value
$LN300@Value:

; 2457 : 			case 11:	Level2 += 135;	break;

  00ef0	81 c7 87 00 00
	00		 add	 edi, 135		; 00000087H
  00ef6	eb 1e		 jmp	 SHORT $LN36@Value
$LN301@Value:

; 2458 : 			case 12:	Level2 += 185;	break;

  00ef8	81 c7 b9 00 00
	00		 add	 edi, 185		; 000000b9H
  00efe	eb 16		 jmp	 SHORT $LN36@Value
$LN302@Value:

; 2459 : 			case 13:	Level2 += 245;	break;

  00f00	81 c7 f5 00 00
	00		 add	 edi, 245		; 000000f5H
  00f06	eb 0e		 jmp	 SHORT $LN36@Value
$LN303@Value:

; 2460 : 			case 14:	Level2 += 305;	break;

  00f08	81 c7 31 01 00
	00		 add	 edi, 305		; 00000131H
  00f0e	eb 06		 jmp	 SHORT $LN36@Value
$LN304@Value:

; 2461 : 			case 15:	Level2 += 365;	break;

  00f10	81 c7 6d 01 00
	00		 add	 edi, 365		; 0000016dH
$LN36@Value:

; 2462 : 		}
; 2463 : 
; 2464 : 		if ( Type == 12 && m_Type <= ITEMGET(12,6) )	// Wings

  00f16	83 fa 0c	 cmp	 edx, 12			; 0000000cH
  00f19	0f 85 ad 00 00
	00		 jne	 $LN311@Value
  00f1f	b8 06 18 00 00	 mov	 eax, 6150		; 00001806H
  00f24	66 3b f0	 cmp	 si, ax
  00f27	7f 1d		 jg	 SHORT $LN386@Value

; 2465 : 		{
; 2466 : 			Gold = (Level2+40)*Level2*Level2*11+40000000;

  00f29	8d 47 28	 lea	 eax, DWORD PTR [edi+40]
  00f2c	0f af c7	 imul	 eax, edi
  00f2f	0f af c7	 imul	 eax, edi
  00f32	6b c0 0b	 imul	 eax, eax, 11
  00f35	05 00 5a 62 02	 add	 eax, 40000000		; 02625a00H
  00f3a	99		 cdq
  00f3b	8b fa		 mov	 edi, edx
  00f3d	89 7c 24 10	 mov	 DWORD PTR _Gold$7$[esp+56], edi
  00f41	e9 de 00 00 00	 jmp	 $LN397@Value
$LN386@Value:

; 2467 : 		}
; 2468 : #if (CUSTOM_WINGS == 1)
; 2469 : 		else if( Type == 12 && (m_Type >= ITEMGET(12,440) && m_Type <= ITEMGET(12,445)) )
; 2470 : 		{
; 2471 : 			Gold = (Level2+40)*Level2*Level2*11+40000000;
; 2472 : 		}
; 2473 : #endif
; 2474 : 		else if( Type == 12 && (m_Type >= ITEMGET(12,36) && m_Type <= ITEMGET(12,40)) )

  00f46	b8 24 18 00 00	 mov	 eax, 6180		; 00001824H
  00f4b	66 3b f0	 cmp	 si, ax
  00f4e	7c 27		 jl	 SHORT $LN388@Value
  00f50	b8 28 18 00 00	 mov	 eax, 6184		; 00001828H
  00f55	66 3b f0	 cmp	 si, ax
  00f58	7f 1d		 jg	 SHORT $LN388@Value

; 2475 : 		{
; 2476 : 			Gold = (Level2+40)*Level2*Level2*11+40000000;

  00f5a	8d 47 28	 lea	 eax, DWORD PTR [edi+40]
  00f5d	0f af c7	 imul	 eax, edi
  00f60	0f af c7	 imul	 eax, edi
  00f63	6b c0 0b	 imul	 eax, eax, 11
  00f66	05 00 5a 62 02	 add	 eax, 40000000		; 02625a00H
  00f6b	99		 cdq
  00f6c	8b fa		 mov	 edi, edx
  00f6e	89 7c 24 10	 mov	 DWORD PTR _Gold$7$[esp+56], edi
  00f72	e9 ad 00 00 00	 jmp	 $LN397@Value
$LN388@Value:

; 2477 : 		}
; 2478 : 		else if( Type == 12 && (m_Type >= ITEMGET(12,41) && m_Type <= ITEMGET(12,43)) )

  00f77	b8 29 18 00 00	 mov	 eax, 6185		; 00001829H
  00f7c	66 3b f0	 cmp	 si, ax
  00f7f	7c 27		 jl	 SHORT $LN389@Value
  00f81	b8 2b 18 00 00	 mov	 eax, 6187		; 0000182bH
  00f86	66 3b f0	 cmp	 si, ax
  00f89	7f 1d		 jg	 SHORT $LN389@Value

; 2479 : 		{
; 2480 : 			Gold = (Level2+40)*Level2*Level2*11+40000000;

  00f8b	8d 47 28	 lea	 eax, DWORD PTR [edi+40]
  00f8e	0f af c7	 imul	 eax, edi
  00f91	0f af c7	 imul	 eax, edi
  00f94	6b c0 0b	 imul	 eax, eax, 11
  00f97	05 00 5a 62 02	 add	 eax, 40000000		; 02625a00H
  00f9c	99		 cdq
  00f9d	8b fa		 mov	 edi, edx
  00f9f	89 7c 24 10	 mov	 DWORD PTR _Gold$7$[esp+56], edi
  00fa3	e9 7c 00 00 00	 jmp	 $LN397@Value
$LN389@Value:

; 2481 : 		}
; 2482 : 		else if( Type == 12 && m_Type == ITEMGET(12,50) )

  00fa8	b8 32 18 00 00	 mov	 eax, 6194		; 00001832H
  00fad	66 3b f0	 cmp	 si, ax
  00fb0	75 1a		 jne	 SHORT $LN311@Value

; 2483 : 		{
; 2484 : 			Gold = (Level2+40)*Level2*Level2*11+40000000;

  00fb2	8d 47 28	 lea	 eax, DWORD PTR [edi+40]
  00fb5	0f af c7	 imul	 eax, edi
  00fb8	0f af c7	 imul	 eax, edi
  00fbb	6b c0 0b	 imul	 eax, eax, 11
  00fbe	05 00 5a 62 02	 add	 eax, 40000000		; 02625a00H
  00fc3	99		 cdq
  00fc4	8b fa		 mov	 edi, edx
  00fc6	89 7c 24 10	 mov	 DWORD PTR _Gold$7$[esp+56], edi

; 2485 : 		}
; 2486 : 		else

  00fca	eb 58		 jmp	 SHORT $LN397@Value
$LN311@Value:

; 2487 : 		{
; 2488 : 			Gold = (Level2+40)*Level2*Level2/8+100;

  00fcc	8d 47 28	 lea	 eax, DWORD PTR [edi+40]
  00fcf	0f af c7	 imul	 eax, edi
  00fd2	0f af c7	 imul	 eax, edi
  00fd5	99		 cdq
  00fd6	83 e2 07	 and	 edx, 7
  00fd9	03 c2		 add	 eax, edx
  00fdb	c1 f8 03	 sar	 eax, 3
  00fde	83 c0 64	 add	 eax, 100		; 00000064H
  00fe1	99		 cdq
  00fe2	8b d8		 mov	 ebx, eax
  00fe4	8b fa		 mov	 edi, edx

; 2489 : 		}
; 2490 : 
; 2491 : 		if ( Type >= 0 && Type <=  6 )

  00fe6	8b 44 24 20	 mov	 eax, DWORD PTR _Type$1$[esp+56]
  00fea	89 7c 24 10	 mov	 DWORD PTR _Gold$7$[esp+56], edi
  00fee	85 c0		 test	 eax, eax
  00ff0	78 34		 js	 SHORT $LN314@Value
  00ff2	83 f8 06	 cmp	 eax, 6
  00ff5	7f 2f		 jg	 SHORT $LN314@Value

; 2492 : 		{
; 2493 : 			if ( p->TwoHand == 0 )

  00ff7	80 79 21 00	 cmp	 BYTE PTR [ecx+33], 0
  00ffb	75 29		 jne	 SHORT $LN314@Value

; 2494 : 			{
; 2495 : 				Gold = Gold*80/100;

  00ffd	8b c3		 mov	 eax, ebx
  00fff	8b cf		 mov	 ecx, edi
  01001	0f a4 c1 02	 shld	 ecx, eax, 2
  01005	6a 00		 push	 0
  01007	c1 e0 02	 shl	 eax, 2
  0100a	03 d8		 add	 ebx, eax
  0100c	6a 64		 push	 100			; 00000064H
  0100e	13 f9		 adc	 edi, ecx
  01010	0f a4 df 04	 shld	 edi, ebx, 4
  01014	c1 e3 04	 shl	 ebx, 4
  01017	57		 push	 edi
  01018	53		 push	 ebx
  01019	e8 00 00 00 00	 call	 __alldiv
  0101e	8b fa		 mov	 edi, edx
  01020	89 54 24 10	 mov	 DWORD PTR _Gold$7$[esp+56], edx
$LN397@Value:
  01024	8b d8		 mov	 ebx, eax
$LN314@Value:

; 2496 : 			}
; 2497 : 		}
; 2498 : 
; 2499 : 		for ( int g=0;g<m_SpecialNum;g++)

  01026	8b 74 24 14	 mov	 esi, DWORD PTR _this$1$[esp+56]
  0102a	0f b6 46 30	 movzx	 eax, BYTE PTR [esi+48]
  0102e	89 44 24 18	 mov	 DWORD PTR tv1997[esp+56], eax
  01032	85 c0		 test	 eax, eax
  01034	0f 8e 0f 02 00
	00		 jle	 $LN18@Value

; 2513 : 
; 2514 : 				case 80:
; 2515 : 				case 81:
; 2516 : 				case 83:
; 2517 : 				case 85:
; 2518 : 				case 113:
; 2519 : 
; 2520 : 					switch ( m_Option3 )

  0103a	8b 4c 24 18	 mov	 ecx, DWORD PTR tv1997[esp+56]
  0103e	8d 46 32	 lea	 eax, DWORD PTR [esi+50]
  01041	89 44 24 20	 mov	 DWORD PTR tv1955[esp+56], eax
$LL40@Value:

; 2500 : 		{
; 2501 : 			switch ( m_Special[g] )

  01045	0f b7 00	 movzx	 eax, WORD PTR [eax]
  01048	83 c0 ee	 add	 eax, -18		; ffffffeeH
  0104b	83 f8 5f	 cmp	 eax, 95			; 0000005fH
  0104e	0f 87 4b 01 00
	00		 ja	 $LN38@Value
  01054	0f b6 80 00 00
	00 00		 movzx	 eax, BYTE PTR $LN390@Value[eax]
  0105b	ff 24 85 00 00
	00 00		 jmp	 DWORD PTR $LN410@Value[eax*4]
$LN315@Value:

; 2502 : 			{
; 2503 : 				case 18:
; 2504 : 				case 19:
; 2505 : 				case 20:
; 2506 : 				case 21:
; 2507 : 				case 22:
; 2508 : 				case 23:
; 2509 : 				case 24:
; 2510 : 				case 56:
; 2511 : 					Gold += (__int64)(Gold * 1.5);

  01062	8b d7		 mov	 edx, edi
  01064	8b cb		 mov	 ecx, ebx
  01066	e8 00 00 00 00	 call	 __ltod3
  0106b	f2 0f 59 05 00
	00 00 00	 mulsd	 xmm0, QWORD PTR __real@3ff8000000000000

; 2512 : 					break;

  01073	e9 1a 01 00 00	 jmp	 $LN398@Value
$LN316@Value:

; 2513 : 
; 2514 : 				case 80:
; 2515 : 				case 81:
; 2516 : 				case 83:
; 2517 : 				case 85:
; 2518 : 				case 113:
; 2519 : 
; 2520 : 					switch ( m_Option3 )

  01078	0f b6 86 92 00
	00 00		 movzx	 eax, BYTE PTR [esi+146]
  0107f	48		 dec	 eax
  01080	83 f8 03	 cmp	 eax, 3
  01083	0f 87 16 01 00
	00		 ja	 $LN38@Value
  01089	ff 24 85 00 00
	00 00		 jmp	 DWORD PTR $LN411@Value[eax*4]
$LN317@Value:

; 2521 : 					{
; 2522 : 						case 1:
; 2523 : 							Gold += (__int64)(Gold * 6.0 / 10.0);

  01090	8b d7		 mov	 edx, edi
  01092	8b cb		 mov	 ecx, ebx
  01094	e8 00 00 00 00	 call	 __ltod3
  01099	f2 0f 59 05 00
	00 00 00	 mulsd	 xmm0, QWORD PTR __real@4018000000000000
  010a1	f2 0f 5e 05 00
	00 00 00	 divsd	 xmm0, QWORD PTR __real@4024000000000000

; 2524 : 							break;

  010a9	e9 e4 00 00 00	 jmp	 $LN398@Value
$LN318@Value:

; 2525 : 
; 2526 : 						case 2:
; 2527 : 							Gold += (__int64)(Gold * 14.0 / 10.0);

  010ae	8b d7		 mov	 edx, edi
  010b0	8b cb		 mov	 ecx, ebx
  010b2	e8 00 00 00 00	 call	 __ltod3
  010b7	f2 0f 59 05 00
	00 00 00	 mulsd	 xmm0, QWORD PTR __real@402c000000000000
  010bf	f2 0f 5e 05 00
	00 00 00	 divsd	 xmm0, QWORD PTR __real@4024000000000000

; 2528 : 							break;

  010c7	e9 c6 00 00 00	 jmp	 $LN398@Value
$LN319@Value:

; 2529 : 
; 2530 : 						case 3:
; 2531 : 							Gold += (__int64)(Gold * 28.0 / 10.0);

  010cc	8b d7		 mov	 edx, edi
  010ce	8b cb		 mov	 ecx, ebx
  010d0	e8 00 00 00 00	 call	 __ltod3
  010d5	f2 0f 59 05 00
	00 00 00	 mulsd	 xmm0, QWORD PTR __real@403c000000000000
  010dd	f2 0f 5e 05 00
	00 00 00	 divsd	 xmm0, QWORD PTR __real@4024000000000000

; 2532 : 							break;

  010e5	e9 a8 00 00 00	 jmp	 $LN398@Value
$LN320@Value:

; 2533 : 
; 2534 : 						case 4:
; 2535 : 							Gold += (__int64)(Gold * 56.0 / 10.0);

  010ea	8b d7		 mov	 edx, edi
  010ec	8b cb		 mov	 ecx, ebx
  010ee	e8 00 00 00 00	 call	 __ltod3
  010f3	f2 0f 59 05 00
	00 00 00	 mulsd	 xmm0, QWORD PTR __real@404c000000000000
  010fb	f2 0f 5e 05 00
	00 00 00	 divsd	 xmm0, QWORD PTR __real@4024000000000000

; 2536 : 							break;
; 2537 : 					}
; 2538 : 					break;

  01103	e9 8a 00 00 00	 jmp	 $LN398@Value
$LN321@Value:

; 2539 : 
; 2540 : 				case 82:
; 2541 : 
; 2542 : 					switch ( m_Option3 )

  01108	0f b6 86 92 00
	00 00		 movzx	 eax, BYTE PTR [esi+146]
  0110f	48		 dec	 eax
  01110	83 f8 03	 cmp	 eax, 3
  01113	0f 87 86 00 00
	00		 ja	 $LN38@Value
  01119	ff 24 85 00 00
	00 00		 jmp	 DWORD PTR $LN412@Value[eax*4]
$LN323@Value:

; 2543 : 					{
; 2544 : 					case 1:
; 2545 : 							Gold += (__int64)(Gold * 6.0 / 10.0);
; 2546 : 							break;
; 2547 : 
; 2548 : 						case 2:
; 2549 : 							Gold += (__int64)(Gold * 14.0 / 10.0);

  01120	8b d7		 mov	 edx, edi
  01122	8b cb		 mov	 ecx, ebx
  01124	e8 00 00 00 00	 call	 __ltod3
  01129	f2 0f 59 05 00
	00 00 00	 mulsd	 xmm0, QWORD PTR __real@402c000000000000
  01131	f2 0f 5e 05 00
	00 00 00	 divsd	 xmm0, QWORD PTR __real@4024000000000000
  01139	eb 57		 jmp	 SHORT $LN398@Value
$LN324@Value:

; 2550 : 							break;
; 2551 : 
; 2552 : 						case 3:
; 2553 : 							Gold += (__int64)(Gold * 28.0 / 10.0);

  0113b	8b d7		 mov	 edx, edi
  0113d	8b cb		 mov	 ecx, ebx
  0113f	e8 00 00 00 00	 call	 __ltod3
  01144	f2 0f 59 05 00
	00 00 00	 mulsd	 xmm0, QWORD PTR __real@403c000000000000
  0114c	f2 0f 5e 05 00
	00 00 00	 divsd	 xmm0, QWORD PTR __real@4024000000000000
  01154	eb 3c		 jmp	 SHORT $LN398@Value
$LN325@Value:

; 2554 : 							break;
; 2555 : 
; 2556 : 						case 4:
; 2557 : 							Gold += (__int64)(Gold * 56.0 / 10.0);

  01156	8b d7		 mov	 edx, edi
  01158	8b cb		 mov	 ecx, ebx
  0115a	e8 00 00 00 00	 call	 __ltod3
  0115f	f2 0f 59 05 00
	00 00 00	 mulsd	 xmm0, QWORD PTR __real@404c000000000000
  01167	f2 0f 5e 05 00
	00 00 00	 divsd	 xmm0, QWORD PTR __real@4024000000000000
  0116f	eb 21		 jmp	 SHORT $LN398@Value
$LN327@Value:

; 2558 : 							break;
; 2559 : 					}
; 2560 : 					break;
; 2561 : 
; 2562 : 				case 84:
; 2563 : 					Gold += (__int64)(Gold * 25.0 / 100.0);
; 2564 : 					break;
; 2565 : 
; 2566 : 				case 86:
; 2567 : 				case 87:
; 2568 : 				case 88:
; 2569 : 				case 89:
; 2570 : 				case 90:
; 2571 : 				case 91:
; 2572 : 				case 92:
; 2573 : 				case 93:
; 2574 : 				case 94:
; 2575 : 				case 95:
; 2576 : 				case 96:
; 2577 : 				case 97:
; 2578 : 				case 98:
; 2579 : 				case 99:
; 2580 : 					Gold += Gold;

  01171	0f a4 df 01	 shld	 edi, ebx, 1
  01175	03 db		 add	 ebx, ebx

; 2581 : 					break;

  01177	eb 26		 jmp	 SHORT $LN38@Value
$LN328@Value:

; 2582 : 
; 2583 : 				case 100:
; 2584 : 				case 101:
; 2585 : 				case 102:
; 2586 : 				case 103:
; 2587 : 				case 104:
; 2588 : 				case 108:
; 2589 : 				case 109:
; 2590 : 				case 110:
; 2591 : 				case 111:
; 2592 : 					Gold += (__int64)(Gold * 25.0 / 100.0);

  01179	8b d7		 mov	 edx, edi
  0117b	8b cb		 mov	 ecx, ebx
  0117d	e8 00 00 00 00	 call	 __ltod3
  01182	f2 0f 59 05 00
	00 00 00	 mulsd	 xmm0, QWORD PTR __real@4039000000000000
  0118a	f2 0f 5e 05 00
	00 00 00	 divsd	 xmm0, QWORD PTR __real@4059000000000000
$LN398@Value:
  01192	e8 00 00 00 00	 call	 __dtol3
  01197	8b 4c 24 18	 mov	 ecx, DWORD PTR tv1997[esp+56]
  0119b	03 d8		 add	 ebx, eax
  0119d	13 fa		 adc	 edi, edx
$LN38@Value:

; 2496 : 			}
; 2497 : 		}
; 2498 : 
; 2499 : 		for ( int g=0;g<m_SpecialNum;g++)

  0119f	8b 44 24 20	 mov	 eax, DWORD PTR tv1955[esp+56]
  011a3	83 c0 02	 add	 eax, 2
  011a6	83 e9 01	 sub	 ecx, 1
  011a9	89 44 24 20	 mov	 DWORD PTR tv1955[esp+56], eax
  011ad	89 4c 24 18	 mov	 DWORD PTR tv1997[esp+56], ecx
  011b1	0f 85 8e fe ff
	ff		 jne	 $LL40@Value
  011b7	89 7c 24 10	 mov	 DWORD PTR _Gold$7$[esp+56], edi

; 1822 : 	int excellent = 0;
; 1823 : 
; 1824 : 	for (int i=0;i<m_SpecialNum;i++)

  011bb	e9 89 00 00 00	 jmp	 $LN18@Value
$LN263@Value:

; 2366 : 	{
; 2367 : 		Gold = 300000 * (int)m_Durability;

  011c0	f3 0f 2c 43 24	 cvttss2si eax, DWORD PTR [ebx+36]
  011c5	69 c0 e0 93 04
	00		 imul	 eax, eax, 300000
  011cb	99		 cdq
  011cc	8b d8		 mov	 ebx, eax
  011ce	8b fa		 mov	 edi, edx
  011d0	eb 6f		 jmp	 SHORT $LN400@Value
$LN239@Value:

; 2310 : 			  m_Type == ITEMGET(14,68) )
; 2311 : 	{
; 2312 : 		Gold = 9000;

  011d2	bb 28 23 00 00	 mov	 ebx, 9000		; 00002328H
  011d7	33 ff		 xor	 edi, edi
  011d9	eb 66		 jmp	 SHORT $LN400@Value
$LN224@Value:

; 2267 : 			  m_Type == ITEMGET(13,51) )
; 2268 : 	{
; 2269 : 		switch( m_Level )

  011db	48		 dec	 eax
  011dc	83 f8 05	 cmp	 eax, 5
  011df	77 f1		 ja	 SHORT $LN239@Value
  011e1	ff 24 85 00 00
	00 00		 jmp	 DWORD PTR $LN413@Value[eax*4]
$LN225@Value:

; 2270 : 		{
; 2271 : 		case 1:
; 2272 : 			Gold = 500000;

  011e8	bb 20 a1 07 00	 mov	 ebx, 500000		; 0007a120H
  011ed	33 ff		 xor	 edi, edi

; 2273 : 			break;

  011ef	eb 50		 jmp	 SHORT $LN400@Value
$LN230@Value:

; 2274 : 		case 2:
; 2275 : 			Gold = 600000;
; 2276 : 			break;
; 2277 : 		case 3:
; 2278 : 			Gold = 800000;
; 2279 : 			break;
; 2280 : 		case 4:
; 2281 : 			Gold = 1000000;
; 2282 : 			break;
; 2283 : 		case 5:
; 2284 : 			Gold = 1200000;
; 2285 : 			break;
; 2286 : 		case 6:
; 2287 : 			Gold = 1400000;

  011f1	bb c0 5c 15 00	 mov	 ebx, 1400000		; 00155cc0H
  011f6	33 ff		 xor	 edi, edi

; 2288 : 			break;

  011f8	eb 47		 jmp	 SHORT $LN400@Value
$LN213@Value:

; 2242 : 			  m_Type == ITEMGET(14,50) )
; 2243 : 	{
; 2244 : 		Gold = ((50.0f) * m_Durability) * 3.0f;

  011fa	f3 0f 10 43 24	 movss	 xmm0, DWORD PTR [ebx+36]
  011ff	f3 0f 59 05 00
	00 00 00	 mulss	 xmm0, DWORD PTR __real@42480000
  01207	f3 0f 59 05 00
	00 00 00	 mulss	 xmm0, DWORD PTR __real@40400000
  0120f	e8 00 00 00 00	 call	 __ftol3
  01214	8b d8		 mov	 ebx, eax
  01216	8b fa		 mov	 edi, edx
  01218	eb 27		 jmp	 SHORT $LN400@Value
$LN187@Value:

; 2170 : 	{
; 2171 : 		switch ( m_Level )

  0121a	48		 dec	 eax
  0121b	83 f8 07	 cmp	 eax, 7
  0121e	77 10		 ja	 SHORT $LN196@Value
  01220	ff 24 85 00 00
	00 00		 jmp	 DWORD PTR $LN414@Value[eax*4]
$LN189@Value:

; 2172 : 		{
; 2173 : 			case 1:
; 2174 : 				Gold = 10000;
; 2175 : 				break;
; 2176 : 			case 2:
; 2177 : 				Gold = 50000;

  01227	bb 50 c3 00 00	 mov	 ebx, 50000		; 0000c350H
  0122c	33 ff		 xor	 edi, edi

; 2178 : 				break;

  0122e	eb 11		 jmp	 SHORT $LN400@Value
$LN196@Value:
  01230	0f 57 c0	 xorps	 xmm0, xmm0

; 2179 : 			case 3:
; 2180 : 				Gold = 100000;
; 2181 : 				break;
; 2182 : 			case 4:
; 2183 : 				Gold = 300000;
; 2184 : 				break;
; 2185 : 			case 5:
; 2186 : 				Gold = 500000;
; 2187 : 				break;
; 2188 : 			case 6:
; 2189 : 				Gold = 800000;
; 2190 : 				break;
; 2191 : 			case 7:
; 2192 : 				Gold = 1000000;
; 2193 : 				break;
; 2194 : 			case 8:
; 2195 : 				Gold = 1200000;
; 2196 : 				break;
; 2197 : 			default:
; 2198 : 				Gold = 0;

  01233	66 0f 13 44 24
	30		 movlpd	 QWORD PTR _Gold$[esp+56], xmm0
$LN392@Value:
  01239	8b 5c 24 30	 mov	 ebx, DWORD PTR _Gold$[esp+56]
  0123d	8b 7c 24 34	 mov	 edi, DWORD PTR _Gold$[esp+60]
$LN400@Value:
  01241	89 7c 24 10	 mov	 DWORD PTR _Gold$7$[esp+56], edi
$LN394@Value:
  01245	8b 74 24 14	 mov	 esi, DWORD PTR _this$1$[esp+56]
$LN18@Value:

; 2593 : 					break;
; 2594 : 
; 2595 : 			}
; 2596 : 		}
; 2597 : 	}
; 2598 : 
; 2599 : 	if ( g_kItemSystemFor380.Is380OptionItem(this) == TRUE )

  01249	56		 push	 esi
  0124a	b9 00 00 00 00	 mov	 ecx, OFFSET ?g_kItemSystemFor380@@3VCItemSystemFor380@@A ; g_kItemSystemFor380
  0124f	e8 00 00 00 00	 call	 ?Is380OptionItem@CItemSystemFor380@@QAEHPBVCItem@@@Z ; CItemSystemFor380::Is380OptionItem
  01254	83 f8 01	 cmp	 eax, 1
  01257	75 26		 jne	 SHORT $LN329@Value

; 2600 : 	{
; 2601 : 		Gold += (__int64)(Gold * 16.0 / 100.0);

  01259	8b d7		 mov	 edx, edi
  0125b	8b cb		 mov	 ecx, ebx
  0125d	e8 00 00 00 00	 call	 __ltod3
  01262	f2 0f 59 05 00
	00 00 00	 mulsd	 xmm0, QWORD PTR __real@4030000000000000
  0126a	f2 0f 5e 05 00
	00 00 00	 divsd	 xmm0, QWORD PTR __real@4059000000000000
  01272	e8 00 00 00 00	 call	 __dtol3
  01277	03 d8		 add	 ebx, eax
  01279	13 fa		 adc	 edi, edx
  0127b	89 7c 24 10	 mov	 DWORD PTR _Gold$7$[esp+56], edi
$LN329@Value:

; 2602 : 	}
; 2603 : 
; 2604 : 	if ( g_SocketItem.CheckSocketOption(this) == TRUE )

  0127f	56		 push	 esi
  01280	b9 00 00 00 00	 mov	 ecx, OFFSET ?g_SocketItem@@3VCSocketItems@@A ; g_SocketItem
  01285	e8 00 00 00 00	 call	 ?CheckSocketOption@CSocketItems@@QAE_NPAVCItem@@@Z ; CSocketItems::CheckSocketOption
  0128a	3c 01		 cmp	 al, 1
  0128c	0f 85 8f 00 00
	00		 jne	 $LN330@Value

; 2605 : 	{
; 2606 : 		int count = 0;

  01292	33 c9		 xor	 ecx, ecx
  01294	ba 05 00 00 00	 mov	 edx, 5

; 2607 : 		int unk = 0;
; 2608 : 		DWORD addzen = 0;

  01299	33 ff		 xor	 edi, edi
  0129b	89 4c 24 20	 mov	 DWORD PTR _count$1$[esp+56], ecx
  0129f	81 c6 c8 00 00
	00		 add	 esi, 200		; 000000c8H
  012a5	89 54 24 1c	 mov	 DWORD PTR tv1896[esp+56], edx
  012a9	0f 1f 80 00 00
	00 00		 npad	 7
$LL49@Value:

; 2611 : 		{
; 2612 : 			if( m_SocketOption[n] != (BYTE)-1  )

  012b0	8a 06		 mov	 al, BYTE PTR [esi]
  012b2	3c ff		 cmp	 al, 255			; 000000ffH
  012b4	74 1e		 je	 SHORT $LN47@Value

; 2613 : 			{
; 2614 : 				if( m_SocketOption[n] != (BYTE)-2 )

  012b6	3c fe		 cmp	 al, 254			; 000000feH
  012b8	74 15		 je	 SHORT $LN332@Value

; 2615 : 				{
; 2616 : 					addzen += g_SocketItem.GetOptionValue(m_SocketOption[n]);

  012ba	50		 push	 eax
  012bb	b9 00 00 00 00	 mov	 ecx, OFFSET ?g_SocketItem@@3VCSocketItems@@A ; g_SocketItem
  012c0	e8 00 00 00 00	 call	 ?GetOptionValue@CSocketItems@@QAEKE@Z ; CSocketItems::GetOptionValue
  012c5	8b 4c 24 20	 mov	 ecx, DWORD PTR _count$1$[esp+56]
  012c9	03 f8		 add	 edi, eax
  012cb	8b 54 24 1c	 mov	 edx, DWORD PTR tv1896[esp+56]
$LN332@Value:

; 2617 : 				}
; 2618 : 
; 2619 : 				count++;

  012cf	41		 inc	 ecx
  012d0	89 4c 24 20	 mov	 DWORD PTR _count$1$[esp+56], ecx
$LN47@Value:

; 2609 : 
; 2610 : 		for(int n = 0; n < MAX_SOCKET_COUNT; n++)

  012d4	46		 inc	 esi
  012d5	83 ea 01	 sub	 edx, 1
  012d8	89 54 24 1c	 mov	 DWORD PTR tv1896[esp+56], edx
  012dc	75 d2		 jne	 SHORT $LL49@Value

; 2620 : 			}
; 2621 : 		}
; 2622 : 
; 2623 : 		Gold = Gold + DWORD( Gold * float(count<<3) / 10.0f);

  012de	89 7c 24 1c	 mov	 DWORD PTR _addzen$1$[esp+56], edi
  012e2	8d 34 cd 00 00
	00 00		 lea	 esi, DWORD PTR [ecx*8]
  012e9	8b 7c 24 10	 mov	 edi, DWORD PTR _Gold$7$[esp+56]
  012ed	8b cb		 mov	 ecx, ebx
  012ef	8b d7		 mov	 edx, edi
  012f1	e8 00 00 00 00	 call	 __ltod3
  012f6	0f 57 c9	 xorps	 xmm1, xmm1
  012f9	f2 0f 5a c8	 cvtsd2ss xmm1, xmm0
  012fd	66 0f 6e c6	 movd	 xmm0, esi
  01301	0f 5b c0	 cvtdq2ps xmm0, xmm0
  01304	f3 0f 59 c1	 mulss	 xmm0, xmm1
  01308	f3 0f 5e 05 00
	00 00 00	 divss	 xmm0, DWORD PTR __real@41200000
  01310	e8 00 00 00 00	 call	 __ftoui3
  01315	33 c9		 xor	 ecx, ecx

; 2624 : 		Gold = Gold + addzen;

  01317	03 44 24 1c	 add	 eax, DWORD PTR _addzen$1$[esp+56]
  0131b	13 c9		 adc	 ecx, ecx
  0131d	03 d8		 add	 ebx, eax
  0131f	13 f9		 adc	 edi, ecx
$LN330@Value:

; 2625 : 	}
; 2626 : 
; 2627 : 	if ( Gold > 3000000000 )

  01321	85 ff		 test	 edi, edi
  01323	7c 17		 jl	 SHORT $LN333@Value
  01325	7f 08		 jg	 SHORT $LN391@Value
  01327	81 fb 00 5e d0
	b2		 cmp	 ebx, -1294967296	; b2d05e00H
  0132d	76 0d		 jbe	 SHORT $LN333@Value
$LN391@Value:

; 2628 : 	{
; 2629 : 		Gold = 3000000000;

  0132f	bb 00 5e d0 b2	 mov	 ebx, -1294967296	; b2d05e00H
  01334	c7 44 24 34 00
	00 00 00	 mov	 DWORD PTR _Gold$[esp+60], 0
$LN333@Value:

; 2630 : 	}
; 2631 : 
; 2632 : 	m_BuyMoney = (DWORD)Gold;

  0133c	8b 4c 24 14	 mov	 ecx, DWORD PTR _this$1$[esp+56]

; 2633 : 	m_SellMoney = (DWORD)Gold;
; 2634 : 	m_SellMoney = m_SellMoney/3;

  01340	b8 ab aa aa aa	 mov	 eax, -1431655765	; aaaaaaabH
  01345	f7 e3		 mul	 ebx
  01347	89 59 78	 mov	 DWORD PTR [ecx+120], ebx
  0134a	d1 ea		 shr	 edx, 1
  0134c	89 51 74	 mov	 DWORD PTR [ecx+116], edx

; 2635 : 
; 2636 : 	if ( (m_Type < ITEMGET(14,0) || m_Type >  ITEMGET(14,8)) &&
; 2637 : 		  m_Type != ITEMGET(13,20) &&
; 2638 : 		  m_Type != ITEMGET(14,28) &&
; 2639 : 		  m_Type != ITEMGET(14,29) &&
; 2640 : 		  m_Type != ITEMGET(14,21) &&
; 2641 : 		  m_Type != ITEMGET(13,15) &&
; 2642 : 		  m_Type != ITEMGET(13,16) &&
; 2643 : 		  m_Type != ITEMGET(13,17) &&
; 2644 : 		  m_Type != ITEMGET(13,18) &&
; 2645 : 		  m_Type != ITEMGET(13,11) &&
; 2646 : 		  m_Type != ITEMGET(13,7)  &&
; 2647 : 		  m_Type != ITEMGET(13,32) &&
; 2648 : 		  m_Type != ITEMGET(13,33) &&
; 2649 : 		  m_Type != ITEMGET(13,34) &&
; 2650 : 		  m_Type != ITEMGET(13,35) &&
; 2651 : 		  m_Type != ITEMGET(13,36) &&
; 2652 : 		  m_Type != ITEMGET(13,37) &&
; 2653 : 		  m_Type != ITEMGET(14,45) &&
; 2654 : 		  m_Type != ITEMGET(14,46) &&
; 2655 : 		  m_Type != ITEMGET(14,47) &&
; 2656 : 		  m_Type != ITEMGET(14,48) &&
; 2657 : 		  m_Type != ITEMGET(14,49) &&
; 2658 : 		  m_Type != ITEMGET(14,50) &&
; 2659 : 		  m_Type != ITEMGET(14,51) &&
; 2660 : 		  m_Type != ITEMGET(14,100) &&
; 2661 : 		  m_Type == ITEMGET(14,85) &&
; 2662 : 		  m_Type == ITEMGET(14,86) &&
; 2663 : 		  m_Type == ITEMGET(14,87) &&
; 2664 : 		  m_Type == ITEMGET(14,90) &&
; 2665 : 		  
; 2666 : 		  (m_Type <  ITEMGET(13,109) || m_Type > ITEMGET(13,115))) //New Rings / NeckLaces
; 2667 : 	{
; 2668 : 		float lc15 = 1.0f-(m_Durability / m_BaseDurability);
; 2669 : 		int lc16 = m_SellMoney*0.6*lc15;
; 2670 : 		m_SellMoney -= lc16;
; 2671 : 	}
; 2672 : 
; 2673 : 	if ( m_SellMoney >= 1000 )

  0134f	81 fa e8 03 00
	00		 cmp	 edx, 1000		; 000003e8H
  01355	72 0f		 jb	 SHORT $LN337@Value

; 2674 : 	{
; 2675 : 		m_SellMoney = m_SellMoney/100*100;

  01357	b8 1f 85 eb 51	 mov	 eax, 1374389535		; 51eb851fH
  0135c	f7 e2		 mul	 edx
  0135e	c1 ea 05	 shr	 edx, 5
  01361	6b c2 64	 imul	 eax, edx, 100
  01364	eb 14		 jmp	 SHORT $LN403@Value
$LN337@Value:

; 2676 : 	}
; 2677 : 	else if ( m_SellMoney >= 100 )

  01366	83 fa 64	 cmp	 edx, 100		; 00000064H
  01369	72 12		 jb	 SHORT $LN339@Value

; 2678 : 	{
; 2679 : 		m_SellMoney = m_SellMoney/10*10;

  0136b	b8 cd cc cc cc	 mov	 eax, -858993459		; cccccccdH
  01370	f7 e2		 mul	 edx
  01372	c1 ea 03	 shr	 edx, 3
  01375	8d 04 92	 lea	 eax, DWORD PTR [edx+edx*4]
  01378	03 c0		 add	 eax, eax
$LN403@Value:
  0137a	89 41 74	 mov	 DWORD PTR [ecx+116], eax
$LN339@Value:

; 2680 : 	}
; 2681 : 
; 2682 : 	if ( m_BuyMoney >= 1000 )

  0137d	81 fb e8 03 00
	00		 cmp	 ebx, 1000		; 000003e8H
  01383	72 17		 jb	 SHORT $LN340@Value

; 2683 : 	{
; 2684 : 		m_BuyMoney = m_BuyMoney/100*100;

  01385	b8 1f 85 eb 51	 mov	 eax, 1374389535		; 51eb851fH
  0138a	f7 e3		 mul	 ebx
  0138c	c1 ea 05	 shr	 edx, 5
  0138f	6b c2 64	 imul	 eax, edx, 100

; 2687 : 	{
; 2688 : 		m_BuyMoney = m_BuyMoney/10*10;

  01392	89 41 78	 mov	 DWORD PTR [ecx+120], eax

; 2689 : 	}
; 2690 : }

  01395	5f		 pop	 edi
  01396	5e		 pop	 esi
  01397	5b		 pop	 ebx
  01398	8b e5		 mov	 esp, ebp
  0139a	5d		 pop	 ebp
  0139b	c3		 ret	 0
$LN340@Value:

; 2685 : 	}
; 2686 : 	else if ( m_BuyMoney >= 100 )

  0139c	83 fb 64	 cmp	 ebx, 100		; 00000064H
  0139f	72 12		 jb	 SHORT $LN342@Value

; 2687 : 	{
; 2688 : 		m_BuyMoney = m_BuyMoney/10*10;

  013a1	b8 cd cc cc cc	 mov	 eax, -858993459		; cccccccdH
  013a6	f7 e3		 mul	 ebx
  013a8	c1 ea 03	 shr	 edx, 3
  013ab	8d 04 92	 lea	 eax, DWORD PTR [edx+edx*4]
  013ae	03 c0		 add	 eax, eax
  013b0	89 41 78	 mov	 DWORD PTR [ecx+120], eax
$LN342@Value:

; 2689 : 	}
; 2690 : }

  013b3	5f		 pop	 edi
  013b4	5e		 pop	 esi
  013b5	5b		 pop	 ebx
  013b6	8b e5		 mov	 esp, ebp
  013b8	5d		 pop	 ebp
  013b9	c3		 ret	 0
  013ba	66 90		 npad	 2
$LN406@Value:
  013bc	00 00 00 00	 DD	 $LN144@Value
  013c0	00 00 00 00	 DD	 $LN189@Value
  013c4	00 00 00 00	 DD	 $LN146@Value
  013c8	00 00 00 00	 DD	 $LN147@Value
  013cc	00 00 00 00	 DD	 $LN225@Value
  013d0	00 00 00 00	 DD	 $LN149@Value
  013d4	00 00 00 00	 DD	 $LN150@Value
$LN407@Value:
  013d8	00 00 00 00	 DD	 $LN154@Value
  013dc	00 00 00 00	 DD	 $LN155@Value
  013e0	00 00 00 00	 DD	 $LN156@Value
  013e4	00 00 00 00	 DD	 $LN157@Value
  013e8	00 00 00 00	 DD	 $LN158@Value
  013ec	00 00 00 00	 DD	 $LN159@Value
  013f0	00 00 00 00	 DD	 $LN160@Value
$LN408@Value:
  013f4	00 00 00 00	 DD	 $LN164@Value
  013f8	00 00 00 00	 DD	 $LN165@Value
  013fc	00 00 00 00	 DD	 $LN166@Value
  01400	00 00 00 00	 DD	 $LN167@Value
  01404	00 00 00 00	 DD	 $LN168@Value
  01408	00 00 00 00	 DD	 $LN147@Value
  0140c	00 00 00 00	 DD	 $LN167@Value
$LN409@Value:
  01410	00 00 00 00	 DD	 $LN294@Value
  01414	00 00 00 00	 DD	 $LN295@Value
  01418	00 00 00 00	 DD	 $LN296@Value
  0141c	00 00 00 00	 DD	 $LN297@Value
  01420	00 00 00 00	 DD	 $LN298@Value
  01424	00 00 00 00	 DD	 $LN299@Value
  01428	00 00 00 00	 DD	 $LN300@Value
  0142c	00 00 00 00	 DD	 $LN301@Value
  01430	00 00 00 00	 DD	 $LN302@Value
  01434	00 00 00 00	 DD	 $LN303@Value
  01438	00 00 00 00	 DD	 $LN304@Value
$LN410@Value:
  0143c	00 00 00 00	 DD	 $LN315@Value
  01440	00 00 00 00	 DD	 $LN316@Value
  01444	00 00 00 00	 DD	 $LN321@Value
  01448	00 00 00 00	 DD	 $LN328@Value
  0144c	00 00 00 00	 DD	 $LN327@Value
  01450	00 00 00 00	 DD	 $LN38@Value
$LN390@Value:
  01454	00		 DB	 0
  01455	00		 DB	 0
  01456	00		 DB	 0
  01457	00		 DB	 0
  01458	00		 DB	 0
  01459	00		 DB	 0
  0145a	00		 DB	 0
  0145b	05		 DB	 5
  0145c	05		 DB	 5
  0145d	05		 DB	 5
  0145e	05		 DB	 5
  0145f	05		 DB	 5
  01460	05		 DB	 5
  01461	05		 DB	 5
  01462	05		 DB	 5
  01463	05		 DB	 5
  01464	05		 DB	 5
  01465	05		 DB	 5
  01466	05		 DB	 5
  01467	05		 DB	 5
  01468	05		 DB	 5
  01469	05		 DB	 5
  0146a	05		 DB	 5
  0146b	05		 DB	 5
  0146c	05		 DB	 5
  0146d	05		 DB	 5
  0146e	05		 DB	 5
  0146f	05		 DB	 5
  01470	05		 DB	 5
  01471	05		 DB	 5
  01472	05		 DB	 5
  01473	05		 DB	 5
  01474	05		 DB	 5
  01475	05		 DB	 5
  01476	05		 DB	 5
  01477	05		 DB	 5
  01478	05		 DB	 5
  01479	05		 DB	 5
  0147a	00		 DB	 0
  0147b	05		 DB	 5
  0147c	05		 DB	 5
  0147d	05		 DB	 5
  0147e	05		 DB	 5
  0147f	05		 DB	 5
  01480	05		 DB	 5
  01481	05		 DB	 5
  01482	05		 DB	 5
  01483	05		 DB	 5
  01484	05		 DB	 5
  01485	05		 DB	 5
  01486	05		 DB	 5
  01487	05		 DB	 5
  01488	05		 DB	 5
  01489	05		 DB	 5
  0148a	05		 DB	 5
  0148b	05		 DB	 5
  0148c	05		 DB	 5
  0148d	05		 DB	 5
  0148e	05		 DB	 5
  0148f	05		 DB	 5
  01490	05		 DB	 5
  01491	05		 DB	 5
  01492	01		 DB	 1
  01493	01		 DB	 1
  01494	02		 DB	 2
  01495	01		 DB	 1
  01496	03		 DB	 3
  01497	01		 DB	 1
  01498	04		 DB	 4
  01499	04		 DB	 4
  0149a	04		 DB	 4
  0149b	04		 DB	 4
  0149c	04		 DB	 4
  0149d	04		 DB	 4
  0149e	04		 DB	 4
  0149f	04		 DB	 4
  014a0	04		 DB	 4
  014a1	04		 DB	 4
  014a2	04		 DB	 4
  014a3	04		 DB	 4
  014a4	04		 DB	 4
  014a5	04		 DB	 4
  014a6	03		 DB	 3
  014a7	03		 DB	 3
  014a8	03		 DB	 3
  014a9	03		 DB	 3
  014aa	03		 DB	 3
  014ab	05		 DB	 5
  014ac	05		 DB	 5
  014ad	05		 DB	 5
  014ae	03		 DB	 3
  014af	03		 DB	 3
  014b0	03		 DB	 3
  014b1	03		 DB	 3
  014b2	05		 DB	 5
  014b3	01		 DB	 1
$LN411@Value:
  014b4	00 00 00 00	 DD	 $LN317@Value
  014b8	00 00 00 00	 DD	 $LN318@Value
  014bc	00 00 00 00	 DD	 $LN319@Value
  014c0	00 00 00 00	 DD	 $LN320@Value
$LN412@Value:
  014c4	00 00 00 00	 DD	 $LN317@Value
  014c8	00 00 00 00	 DD	 $LN323@Value
  014cc	00 00 00 00	 DD	 $LN324@Value
  014d0	00 00 00 00	 DD	 $LN325@Value
$LN413@Value:
  014d4	00 00 00 00	 DD	 $LN225@Value
  014d8	00 00 00 00	 DD	 $LN226@Value
  014dc	00 00 00 00	 DD	 $LN149@Value
  014e0	00 00 00 00	 DD	 $LN150@Value
  014e4	00 00 00 00	 DD	 $LN159@Value
  014e8	00 00 00 00	 DD	 $LN230@Value
$LN414@Value:
  014ec	00 00 00 00	 DD	 $LN144@Value
  014f0	00 00 00 00	 DD	 $LN189@Value
  014f4	00 00 00 00	 DD	 $LN146@Value
  014f8	00 00 00 00	 DD	 $LN147@Value
  014fc	00 00 00 00	 DD	 $LN225@Value
  01500	00 00 00 00	 DD	 $LN149@Value
  01504	00 00 00 00	 DD	 $LN150@Value
  01508	00 00 00 00	 DD	 $LN159@Value
?Value@CItem@@QAEXXZ ENDP				; CItem::Value
_TEXT	ENDS
; Function compile flags: /Ogtp
; File c:\users\michel\desktop\source\gameserver\common\zzzitem.cpp
;	COMDAT ?Convert@CItem@@QAEXHEEEEEEPAEEE@Z
_TEXT	SEGMENT
_SOptionStatValue$1$ = -12				; size = 4
_this$1$ = -8						; size = 4
__type$1$ = -4						; size = 4
tv4661 = 8						; size = 4
_type$ = 8						; size = 4
_Option1$ = 12						; size = 1
_Option2$ = 16						; size = 1
_Option3$ = 20						; size = 1
tv3483 = 24						; size = 4
_Attribute2$ = 24					; size = 1
tv4589 = 28						; size = 4
_SetOption$ = 28					; size = 1
_btOption$1$ = 31					; size = 1
tv4604 = 31						; size = 1
_ItemEffectEx$ = 32					; size = 1
_SocketOption$ = 36					; size = 4
_iChaosItem$2$ = 40					; size = 4
_SocketBonus$ = 40					; size = 1
tv4616 = 44						; size = 4
_ItemLevel$1$ = 44					; size = 4
_DbVersion$ = 44					; size = 1
?Convert@CItem@@QAEXHEEEEEEPAEEE@Z PROC			; CItem::Convert, COMDAT
; _this$ = ecx

; 119  : {

  00000	55		 push	 ebp
  00001	8b ec		 mov	 ebp, esp
  00003	83 ec 0c	 sub	 esp, 12			; 0000000cH

; 120  : 	int _type;
; 121  : 	int ItemLevel;
; 122  : 	LPITEM_ATTRIBUTE p;
; 123  : 	int SOption;
; 124  : 	int SOptionStatValue;
; 125  : 
; 126  : 	_type = type;
; 127  : 
; 128  : 	if ( (DbVersion ) == 0)

  00006	8a 45 2c	 mov	 al, BYTE PTR _DbVersion$[ebp]
  00009	53		 push	 ebx
  0000a	56		 push	 esi
  0000b	8b f1		 mov	 esi, ecx
  0000d	89 75 f8	 mov	 DWORD PTR _this$1$[ebp], esi
  00010	57		 push	 edi
  00011	8b 7d 08	 mov	 edi, DWORD PTR _type$[ebp]
  00014	8b df		 mov	 ebx, edi
  00016	89 5d fc	 mov	 DWORD PTR __type$1$[ebp], ebx
  00019	84 c0		 test	 al, al
  0001b	75 22		 jne	 SHORT $LN30@Convert

; 129  : 	{
; 130  : 		_type=(type/MAX_TYPE_ITEMS*MAX_SUBTYPE_ITEMS)+(type % MAX_TYPE_ITEMS);

  0001d	8b c7		 mov	 eax, edi
  0001f	8b cf		 mov	 ecx, edi
  00021	99		 cdq
  00022	83 e2 0f	 and	 edx, 15			; 0000000fH
  00025	8d 1c 02	 lea	 ebx, DWORD PTR [edx+eax]
  00028	c1 fb 04	 sar	 ebx, 4
  0002b	c1 e3 09	 shl	 ebx, 9
  0002e	81 e1 0f 00 00
	80		 and	 ecx, -2147483633	; 8000000fH
  00034	79 05		 jns	 SHORT $LN501@Convert
  00036	49		 dec	 ecx
  00037	83 c9 f0	 or	 ecx, -16		; fffffff0H
  0003a	41		 inc	 ecx
$LN501@Convert:
  0003b	03 d9		 add	 ebx, ecx
  0003d	eb 23		 jmp	 SHORT $LN504@Convert
$LN30@Convert:

; 131  : 
; 132  : 	}
; 133  : 	else if ( DbVersion <= 2 )

  0003f	3c 02		 cmp	 al, 2
  00041	77 22		 ja	 SHORT $LN32@Convert

; 134  : 	{
; 135  : 		_type = (type/32*MAX_SUBTYPE_ITEMS) + (type % 32 );

  00043	8b c7		 mov	 eax, edi
  00045	99		 cdq
  00046	83 e2 1f	 and	 edx, 31			; 0000001fH
  00049	8d 1c 02	 lea	 ebx, DWORD PTR [edx+eax]
  0004c	8b c7		 mov	 eax, edi
  0004e	c1 fb 05	 sar	 ebx, 5
  00051	c1 e3 09	 shl	 ebx, 9
  00054	25 1f 00 00 80	 and	 eax, -2147483617	; 8000001fH
  00059	79 05		 jns	 SHORT $LN502@Convert
  0005b	48		 dec	 eax
  0005c	83 c8 e0	 or	 eax, -32		; ffffffe0H
  0005f	40		 inc	 eax
$LN502@Convert:
  00060	03 d8		 add	 ebx, eax
$LN504@Convert:
  00062	89 5d fc	 mov	 DWORD PTR __type$1$[ebp], ebx
$LN32@Convert:

; 136  : 	}
; 137  : 
; 138  : 	if ( _type >MAX_ITEMS-1)

  00065	81 fb ff 1f 00
	00		 cmp	 ebx, 8191		; 00001fffH
  0006b	7e 11		 jle	 SHORT $LN33@Convert

; 139  : 	{
; 140  : 		LogAddC(2, "error-L1 : ItemIndex error %d", _type);

  0006d	53		 push	 ebx
  0006e	68 00 00 00 00	 push	 OFFSET ??_C@_0BO@NENAGJKH@error?9L1?5?3?5ItemIndex?5error?5?$CFd?$AA@
  00073	6a 02		 push	 2
  00075	ff 15 00 00 00
	00		 call	 DWORD PTR ?LogAddC@@3P6AXEPADZZA ; LogAddC
  0007b	83 c4 0c	 add	 esp, 12			; 0000000cH
$LN33@Convert:

; 141  : 	}
; 142  : 
; 143  : 	p=&ItemAttribute[_type];

  0007e	6b d3 70	 imul	 edx, ebx, 112

; 144  : 	m_serial=ItemAttribute[_type].Serial ;
; 145  : 	m_Type=type;
; 146  : 
; 147  : 	if ( (DbVersion ) <= 2)

  00081	80 7d 2c 02	 cmp	 BYTE PTR _DbVersion$[ebp], 2
  00085	89 55 08	 mov	 DWORD PTR tv4661[ebp], edx
  00088	8a 82 25 00 00
	00		 mov	 al, BYTE PTR ?ItemAttribute@@3PAUITEM_ATTRIBUTE@@A[edx+37]
  0008e	88 46 04	 mov	 BYTE PTR [esi+4], al
  00091	66 89 7e 06	 mov	 WORD PTR [esi+6], di
  00095	77 04		 ja	 SHORT $LN34@Convert

; 148  : 	{
; 149  : 		this->m_Type=_type;

  00097	66 89 5e 06	 mov	 WORD PTR [esi+6], bx
$LN34@Convert:

; 150  : 	}
; 151  : 
; 152  : 	m_NewOption =Attribute2;

  0009b	8a 4d 18	 mov	 cl, BYTE PTR _Attribute2$[ebp]
  0009e	88 8e 93 00 00
	00		 mov	 BYTE PTR [esi+147], cl

; 153  : 	
; 154  : 	if (p->OptionFlag  == 0)

  000a4	80 ba 26 00 00
	00 00		 cmp	 BYTE PTR ?ItemAttribute@@3PAUITEM_ATTRIBUTE@@A[edx+38], 0
  000ab	75 07		 jne	 SHORT $LN35@Convert

; 155  : 	{
; 156  : 		m_NewOption=0;

  000ad	c6 86 93 00 00
	00 00		 mov	 BYTE PTR [esi+147], 0
$LN35@Convert:

; 157  : 	}
; 158  : 
; 159  : 	if ( (_type >= ITEMGET(12,3) ) && (_type <= ITEMGET(12,6) )	||
; 160  : 	     _type == ITEMGET(13,30)	||
; 161  : 		 _type == ITEMGET(12,41)	||
; 162  : 		 _type == ITEMGET(12,42)	||
; 163  : 		 _type == ITEMGET(12,43)	||
; 164  : 		 ( _type >= ITEMGET(12,36) ) && (_type <= ITEMGET(12,40) )	||
; 165  : 		 _type == ITEMGET(12,49) ||
; 166  : 		 _type == ITEMGET(12,50) ||

  000b4	81 fb 03 18 00
	00		 cmp	 ebx, 6147		; 00001803H
  000ba	7c 08		 jl	 SHORT $LN38@Convert
  000bc	81 fb 06 18 00
	00		 cmp	 ebx, 6150		; 00001806H
  000c2	7e 4b		 jle	 SHORT $LN37@Convert
$LN38@Convert:
  000c4	81 fb 1e 1a 00
	00		 cmp	 ebx, 6686		; 00001a1eH
  000ca	74 43		 je	 SHORT $LN37@Convert
  000cc	81 fb 29 18 00
	00		 cmp	 ebx, 6185		; 00001829H
  000d2	74 3b		 je	 SHORT $LN37@Convert
  000d4	81 fb 2a 18 00
	00		 cmp	 ebx, 6186		; 0000182aH
  000da	74 33		 je	 SHORT $LN37@Convert
  000dc	81 fb 2b 18 00
	00		 cmp	 ebx, 6187		; 0000182bH
  000e2	74 2b		 je	 SHORT $LN37@Convert
  000e4	81 fb 24 18 00
	00		 cmp	 ebx, 6180		; 00001824H
  000ea	7c 08		 jl	 SHORT $LN39@Convert
  000ec	81 fb 28 18 00
	00		 cmp	 ebx, 6184		; 00001828H
  000f2	7e 1b		 jle	 SHORT $LN37@Convert
$LN39@Convert:
  000f4	81 fb 31 18 00
	00		 cmp	 ebx, 6193		; 00001831H
  000fa	74 13		 je	 SHORT $LN37@Convert
  000fc	81 fb 32 18 00
	00		 cmp	 ebx, 6194		; 00001832H
  00102	74 0b		 je	 SHORT $LN37@Convert
  00104	8d 83 fa e6 ff
	ff		 lea	 eax, DWORD PTR [ebx-6406]
  0010a	83 f8 05	 cmp	 eax, 5
  0010d	77 02		 ja	 SHORT $LN36@Convert
$LN37@Convert:

; 167  : 		 (_type  >= ITEMGET(12,262) && _type <= ITEMGET(12,267) )
; 168  : 
; 169  : #if (CUSTOM_WINGS == 1)
; 170  : 		 || ( _type >= ITEMGET(12,440))  && (_type <= ITEMGET(12,445) )
; 171  : #endif
; 172  : 	)
; 173  : 
; 174  : 	{
; 175  : 		Attribute2=0;

  0010f	32 c9		 xor	 cl, cl
$LN36@Convert:

; 176  : 	}
; 177  : 
; 178  : 	if( _type == ITEMGET(13,37) )

  00111	0f b6 c1	 movzx	 eax, cl
  00114	33 c9		 xor	 ecx, ecx
  00116	81 fb 25 1a 00
	00		 cmp	 ebx, 6693		; 00001a25H

; 179  : 	{
; 180  : 		Attribute2=0;
; 181  : 	}
; 182  : 
; 183  : 	SetOption = SetOption & 15;
; 184  : 		
; 185  : 	SOption=SetOption & 3;
; 186  : 	SOptionStatValue=0;

  0011c	c7 45 f4 00 00
	00 00		 mov	 DWORD PTR _SOptionStatValue$1$[ebp], 0
  00123	0f 44 c1	 cmove	 eax, ecx
  00126	89 45 18	 mov	 DWORD PTR tv3483[ebp], eax
  00129	8a 45 1c	 mov	 al, BYTE PTR _SetOption$[ebp]
  0012c	24 0f		 and	 al, 15			; 0000000fH
  0012e	0f b6 c8	 movzx	 ecx, al
  00131	8b f9		 mov	 edi, ecx
  00133	88 45 1c	 mov	 BYTE PTR _SetOption$[ebp], al
  00136	83 e7 03	 and	 edi, 3
  00139	89 4d 2c	 mov	 DWORD PTR tv4616[ebp], ecx

; 187  : 
; 188  : 	if (SOption != 1 && SOption != 2)

  0013c	83 ff 01	 cmp	 edi, 1
  0013f	74 08		 je	 SHORT $LN41@Convert
  00141	33 c9		 xor	 ecx, ecx
  00143	83 ff 02	 cmp	 edi, 2
  00146	0f 45 f9	 cmovne	 edi, ecx
$LN41@Convert:

; 189  : 	{
; 190  : 		SOption=0;
; 191  : 	}
; 192  : 
; 193  : 	if ( (( (SetOption>>2) & 3) != 1) && ( ((SetOption>>2) & 3) != 2) )

  00149	c0 e8 02	 shr	 al, 2
  0014c	24 03		 and	 al, 3
  0014e	3c 01		 cmp	 al, 1
  00150	74 07		 je	 SHORT $LN42@Convert
  00152	33 c9		 xor	 ecx, ecx
  00154	3c 02		 cmp	 al, 2
  00156	0f 45 f9	 cmovne	 edi, ecx
$LN42@Convert:

; 194  : 	{
; 195  : 		SOption=0;
; 196  : 	}
; 197  : 
; 198  : 	if ( gSetItemOption.IsSetItem(_type) != 0 && SetOption != (BYTE)-1 && SOption != 0)

  00159	53		 push	 ebx
  0015a	b9 00 00 00 00	 mov	 ecx, OFFSET ?gSetItemOption@@3VCSetItemOption@@A ; gSetItemOption
  0015f	e8 00 00 00 00	 call	 ?IsSetItem@CSetItemOption@@QAEHH@Z ; CSetItemOption::IsSetItem
  00164	85 c0		 test	 eax, eax
  00166	74 27		 je	 SHORT $LN43@Convert
  00168	8a 45 1c	 mov	 al, BYTE PTR _SetOption$[ebp]
  0016b	3c ff		 cmp	 al, 255			; 000000ffH
  0016d	74 20		 je	 SHORT $LN43@Convert
  0016f	85 ff		 test	 edi, edi
  00171	74 1c		 je	 SHORT $LN43@Convert

; 199  : 	{
; 200  : 		m_SetOption = SetOption;
; 201  : 		if ( m_SetOption != 0 )

  00173	88 86 aa 00 00
	00		 mov	 BYTE PTR [esi+170], al
  00179	84 c0		 test	 al, al
  0017b	74 19		 je	 SHORT $LN44@Convert

; 202  : 		{
; 203  : 			// Disable this line to enable full exc-anc items
; 204  : #if (__CUSTOM__ == 1)
; 205  : #else
; 206  : 			m_NewOption = 0;
; 207  : #endif
; 208  : 			Attribute2 = 0;
; 209  : 			SOptionStatValue = (SetOption>>2)&3;

  0017d	8b 45 2c	 mov	 eax, DWORD PTR tv4616[ebp]
  00180	c1 e8 02	 shr	 eax, 2
  00183	83 e0 03	 and	 eax, 3
  00186	c6 45 18 00	 mov	 BYTE PTR tv3483[ebp], 0
  0018a	89 45 f4	 mov	 DWORD PTR _SOptionStatValue$1$[ebp], eax

; 210  : 		}
; 211  : 	}
; 212  : 	else

  0018d	eb 07		 jmp	 SHORT $LN44@Convert
$LN43@Convert:

; 213  : 	{
; 214  : 		m_SetOption = 0;

  0018f	c6 86 aa 00 00
	00 00		 mov	 BYTE PTR [esi+170], 0
$LN44@Convert:

; 215  : 	}
; 216  : 
; 217  : 	m_ItemOptionEx = ItemEffectEx;

  00196	8a 45 20	 mov	 al, BYTE PTR _ItemEffectEx$[ebp]

; 218  : 
; 219  : 	if( g_SocketItem.IsSocketItem(this) == true )

  00199	b9 00 00 00 00	 mov	 ecx, OFFSET ?g_SocketItem@@3VCSocketItems@@A ; g_SocketItem
  0019e	56		 push	 esi
  0019f	88 86 c6 00 00
	00		 mov	 BYTE PTR [esi+198], al
  001a5	e8 00 00 00 00	 call	 ?IsSocketItem@CSocketItems@@QAE_NPAVCItem@@@Z ; CSocketItems::IsSocketItem
  001aa	3c 01		 cmp	 al, 1
  001ac	75 5d		 jne	 SHORT $LN46@Convert

; 220  : 	{
; 221  : 		if( SocketOption != NULL )

  001ae	8b 4d 24	 mov	 ecx, DWORD PTR _SocketOption$[ebp]
  001b1	85 c9		 test	 ecx, ecx
  001b3	74 35		 je	 SHORT $LN442@Convert

; 222  : 		{
; 223  : 			m_SocketBonus = SocketBonus;

  001b5	8a 45 28	 mov	 al, BYTE PTR _SocketBonus$[ebp]
  001b8	88 86 c7 00 00
	00		 mov	 BYTE PTR [esi+199], al

; 224  : 
; 225  : 			for(int n = 0; n < MAX_SOCKET_COUNT; n++)
; 226  : 			{
; 227  : 				m_SocketOption[n] = SocketOption[n];

  001be	8a 01		 mov	 al, BYTE PTR [ecx]
  001c0	88 86 c8 00 00
	00		 mov	 BYTE PTR [esi+200], al
  001c6	8a 41 01	 mov	 al, BYTE PTR [ecx+1]
  001c9	88 86 c9 00 00
	00		 mov	 BYTE PTR [esi+201], al
  001cf	8a 41 02	 mov	 al, BYTE PTR [ecx+2]
  001d2	88 86 ca 00 00
	00		 mov	 BYTE PTR [esi+202], al
  001d8	8a 41 03	 mov	 al, BYTE PTR [ecx+3]
  001db	88 86 cb 00 00
	00		 mov	 BYTE PTR [esi+203], al
  001e1	8a 41 04	 mov	 al, BYTE PTR [ecx+4]
  001e4	88 86 cc 00 00
	00		 mov	 BYTE PTR [esi+204], al
$LN442@Convert:

; 228  : 			}
; 229  : 		}
; 230  : 
; 231  : 		if( g_SocketItem.CheckSocketOption(this) == true )

  001ea	56		 push	 esi
  001eb	b9 00 00 00 00	 mov	 ecx, OFFSET ?g_SocketItem@@3VCSocketItems@@A ; g_SocketItem
  001f0	e8 00 00 00 00	 call	 ?CheckSocketOption@CSocketItems@@QAE_NPAVCItem@@@Z ; CSocketItems::CheckSocketOption
  001f5	3c 01		 cmp	 al, 1
  001f7	75 09		 jne	 SHORT $LN49@Convert

; 232  : 		{
; 233  : #if (__CUSTOM__ == 1)
; 234  : 
; 235  : #else
; 236  : 			m_ItemOptionEx = 0;
; 237  : 			m_SetOption = 0;
; 238  : 			Attribute2 = 0;
; 239  : 			m_NewOption = 0;
; 240  : #endif
; 241  : 			m_JewelOfHarmonyOption = 0;

  001f9	c6 86 c0 00 00
	00 00		 mov	 BYTE PTR [esi+192], 0

; 242  : 			
; 243  : 		}
; 244  : 		else

  00200	eb 6e		 jmp	 SHORT $LN10@Convert
$LN49@Convert:

; 245  : 		{
; 246  : 			m_SocketBonus = 0;

  00202	c6 86 c7 00 00
	00 00		 mov	 BYTE PTR [esi+199], 0

; 247  : 		}

  00209	eb 65		 jmp	 SHORT $LN10@Convert
$LN46@Convert:

; 248  : 	}
; 249  : 	else if( g_ElementalSystem.IsElementalItem(this) )

  0020b	56		 push	 esi
  0020c	b9 00 00 00 00	 mov	 ecx, OFFSET ?g_ElementalSystem@@3VCElementalSystem@@A ; g_ElementalSystem
  00211	e8 00 00 00 00	 call	 ?IsElementalItem@CElementalSystem@@QAEHPAVCItem@@@Z ; CElementalSystem::IsElementalItem
  00216	85 c0		 test	 eax, eax
  00218	74 3e		 je	 SHORT $LN51@Convert

; 250  : 	{
; 251  : 		if( SocketOption != NULL )

  0021a	8b 4d 24	 mov	 ecx, DWORD PTR _SocketOption$[ebp]
  0021d	85 c9		 test	 ecx, ecx
  0021f	74 4f		 je	 SHORT $LN10@Convert

; 252  : 		{
; 253  : 			m_SocketBonus = SocketBonus;

  00221	8a 45 28	 mov	 al, BYTE PTR _SocketBonus$[ebp]
  00224	88 86 c7 00 00
	00		 mov	 BYTE PTR [esi+199], al

; 254  : 
; 255  : 			for(int n = 0; n < MAX_SOCKET_COUNT; n++)
; 256  : 			{
; 257  : 				m_SocketOption[n] = SocketOption[n];

  0022a	8a 01		 mov	 al, BYTE PTR [ecx]
  0022c	88 86 c8 00 00
	00		 mov	 BYTE PTR [esi+200], al
  00232	8a 41 01	 mov	 al, BYTE PTR [ecx+1]
  00235	88 86 c9 00 00
	00		 mov	 BYTE PTR [esi+201], al
  0023b	8a 41 02	 mov	 al, BYTE PTR [ecx+2]
  0023e	88 86 ca 00 00
	00		 mov	 BYTE PTR [esi+202], al
  00244	8a 41 03	 mov	 al, BYTE PTR [ecx+3]
  00247	88 86 cb 00 00
	00		 mov	 BYTE PTR [esi+203], al
  0024d	8a 41 04	 mov	 al, BYTE PTR [ecx+4]
  00250	88 86 cc 00 00
	00		 mov	 BYTE PTR [esi+204], al

; 258  : 			}
; 259  : 		}
; 260  : 	}
; 261  : #if (ENABLETEST_MUUN == 1)
; 262  : 	else if (g_CMuunSystem.IsMuunItem(this)) {
; 263  : 		if (SocketOption != 0) {
; 264  : 			m_SocketBonus = SocketBonus;
; 265  : 			for (int n = 0; n < MAX_SOCKET_COUNT; n++) {
; 266  : 				m_SocketOption[n] = SocketOption[n];
; 267  : 			}
; 268  : 		}
; 269  : 		m_ItemOptionEx = 0;
; 270  : 		m_SetOption = 0;
; 271  : 		Attribute2 = 0;
; 272  : 		m_NewOption = 0;
; 273  : 		m_JewelOfHarmonyOption = 0;
; 274  : 	}
; 275  : 	else if (g_CMuunSystem.IsStoneofEvolution(this)) {
; 276  : 		if (SocketOption != 0) {
; 277  : 			m_SocketBonus = 0;
; 278  : 			for (int n = 0; n < MAX_SOCKET_COUNT; n++) {
; 279  : 				m_SocketOption[n] = SocketOption[n];
; 280  : 			}
; 281  : 		}
; 282  : 		m_ItemOptionEx = 0;
; 283  : 		m_SetOption = 0;
; 284  : 		Attribute2 = 0;
; 285  : 		m_NewOption = 0;
; 286  : 		m_JewelOfHarmonyOption = 0;
; 287  : 	}
; 288  : #endif
; 289  : 	else

  00256	eb 18		 jmp	 SHORT $LN10@Convert
$LN51@Convert:

; 290  : 	{
; 291  : 		m_SocketBonus = 0;

  00258	c6 86 c7 00 00
	00 00		 mov	 BYTE PTR [esi+199], 0

; 292  : 
; 293  : 		for(int n = 0; n < MAX_SOCKET_COUNT; n++)
; 294  : 		{
; 295  : 			m_SocketOption[n] = (BYTE)-1;

  0025f	c7 86 c8 00 00
	00 ff ff ff ff	 mov	 DWORD PTR [esi+200], -1
  00269	c6 86 cc 00 00
	00 ff		 mov	 BYTE PTR [esi+204], -1
$LN10@Convert:

; 296  : 		}
; 297  : 	}
; 298  : 
; 299  : 	memset( m_SkillResistance , 0, sizeof(m_SkillResistance) );

  00270	33 c0		 xor	 eax, eax
  00272	89 86 ad 00 00
	00		 mov	 DWORD PTR [esi+173], eax
  00278	66 89 86 b1 00
	00 00		 mov	 WORD PTR [esi+177], ax
  0027f	88 86 b3 00 00
	00		 mov	 BYTE PTR [esi+179], al

; 300  : 	
; 301  : 	if ( _type == ITEMGET(0,19) || _type == ITEMGET(4,18) || _type == ITEMGET(5,10) || _type == ITEMGET(5,36) || _type == ITEMGET(2,13))

  00285	83 fb 13	 cmp	 ebx, 19			; 00000013H
  00288	74 20		 je	 SHORT $LN55@Convert
  0028a	81 fb 12 08 00
	00		 cmp	 ebx, 2066		; 00000812H
  00290	74 18		 je	 SHORT $LN55@Convert
  00292	81 fb 0a 0a 00
	00		 cmp	 ebx, 2570		; 00000a0aH
  00298	74 10		 je	 SHORT $LN55@Convert
  0029a	81 fb 24 0a 00
	00		 cmp	 ebx, 2596		; 00000a24H
  002a0	74 08		 je	 SHORT $LN55@Convert
  002a2	81 fb 0d 04 00
	00		 cmp	 ebx, 1037		; 0000040dH
  002a8	75 03		 jne	 SHORT $LN54@Convert
$LN55@Convert:

; 302  : 	{
; 303  : 		Attribute2=0;

  002aa	88 45 18	 mov	 BYTE PTR tv3483[ebp], al
$LN54@Convert:

; 304  : 	}
; 305  : 
; 306  : 	int iChaosItem = 0;
; 307  : 
; 308  : 	if ( m_Type == ITEMGET(2,6) )

  002ad	0f b7 46 06	 movzx	 eax, WORD PTR [esi+6]
  002b1	ba 06 04 00 00	 mov	 edx, 1030		; 00000406H
  002b6	33 c9		 xor	 ecx, ecx
  002b8	66 3b c2	 cmp	 ax, dx
  002bb	75 09		 jne	 SHORT $LN56@Convert

; 309  : 	{
; 310  : 		iChaosItem = 15;

  002bd	c7 45 28 0f 00
	00 00		 mov	 DWORD PTR _iChaosItem$2$[ebp], 15 ; 0000000fH
  002c4	eb 26		 jmp	 SHORT $LN60@Convert
$LN56@Convert:

; 311  : 	}
; 312  : 	else if ( m_Type == ITEMGET(5,7) )

  002c6	ba 07 0a 00 00	 mov	 edx, 2567		; 00000a07H
  002cb	66 3b c2	 cmp	 ax, dx
  002ce	75 09		 jne	 SHORT $LN58@Convert

; 313  : 	{
; 314  : 		iChaosItem = 25;

  002d0	c7 45 28 19 00
	00 00		 mov	 DWORD PTR _iChaosItem$2$[ebp], 25 ; 00000019H
  002d7	eb 13		 jmp	 SHORT $LN60@Convert
$LN58@Convert:

; 315  : 	}
; 316  : 	else if ( m_Type == ITEMGET(4,6) )

  002d9	bf 06 08 00 00	 mov	 edi, 2054		; 00000806H
  002de	ba 1e 00 00 00	 mov	 edx, 30			; 0000001eH
  002e3	66 3b c7	 cmp	 ax, di
  002e6	0f 44 ca	 cmove	 ecx, edx
  002e9	89 4d 28	 mov	 DWORD PTR _iChaosItem$2$[ebp], ecx
$LN60@Convert:

; 317  : 	{
; 318  : 		iChaosItem = 30;
; 319  : 	}
; 320  : 
; 321  : 	if ( ItemGetDurability(m_Type, 0, 0, 0) != 0 )

  002ec	6a 00		 push	 0
  002ee	6a 00		 push	 0
  002f0	0f bf f8	 movsx	 edi, ax
  002f3	6a 00		 push	 0
  002f5	57		 push	 edi
  002f6	e8 00 00 00 00	 call	 ?ItemGetDurability@@YAHHHHH@Z ; ItemGetDurability
  002fb	83 c4 10	 add	 esp, 16			; 00000010H
  002fe	0f 57 d2	 xorps	 xmm2, xmm2
  00301	85 c0		 test	 eax, eax
  00303	74 31		 je	 SHORT $LN61@Convert

; 322  : 	{
; 323  : 		m_BaseDurability = (float)ItemGetDurability(m_Type, m_Level, Attribute2 & 0x7F, m_SetOption);

  00305	0f b6 86 aa 00
	00 00		 movzx	 eax, BYTE PTR [esi+170]
  0030c	50		 push	 eax
  0030d	8b 45 18	 mov	 eax, DWORD PTR tv3483[ebp]
  00310	0f b6 c0	 movzx	 eax, al
  00313	83 e0 7f	 and	 eax, 127		; 0000007fH
  00316	50		 push	 eax
  00317	0f bf 46 08	 movsx	 eax, WORD PTR [esi+8]
  0031b	50		 push	 eax
  0031c	57		 push	 edi
  0031d	e8 00 00 00 00	 call	 ?ItemGetDurability@@YAHHHHH@Z ; ItemGetDurability
  00322	83 c4 10	 add	 esp, 16			; 00000010H
  00325	0f 57 d2	 xorps	 xmm2, xmm2
  00328	66 0f 6e c0	 movd	 xmm0, eax
  0032c	0f 5b c0	 cvtdq2ps xmm0, xmm0
  0032f	f3 0f 11 46 2c	 movss	 DWORD PTR [esi+44], xmm0

; 324  : 	}
; 325  : 	else

  00334	eb 07		 jmp	 SHORT $LN62@Convert
$LN61@Convert:

; 326  : 	{
; 327  : 		m_BaseDurability = 0;

  00336	c7 46 2c 00 00
	00 00		 mov	 DWORD PTR [esi+44], 0
$LN62@Convert:

; 328  : 	}
; 329  : 
; 330  : 	m_DurabilityState[0] = m_BaseDurability * 0.5f;

  0033d	f3 0f 10 46 2c	 movss	 xmm0, DWORD PTR [esi+44]
  00342	f3 0f 59 05 00
	00 00 00	 mulss	 xmm0, DWORD PTR __real@3f000000

; 331  : 	m_DurabilityState[1] = m_BaseDurability * 0.3f;
; 332  : 	m_DurabilityState[2] = m_BaseDurability * 0.2f;
; 333  : 	m_Value = p->Value;

  0034a	8b 55 08	 mov	 edx, DWORD PTR tv4661[ebp]
  0034d	f3 0f 11 86 94
	00 00 00	 movss	 DWORD PTR [esi+148], xmm0
  00355	f3 0f 10 46 2c	 movss	 xmm0, DWORD PTR [esi+44]
  0035a	f3 0f 59 05 00
	00 00 00	 mulss	 xmm0, DWORD PTR __real@3e99999a
  00362	f3 0f 11 86 98
	00 00 00	 movss	 DWORD PTR [esi+152], xmm0
  0036a	f3 0f 10 46 2c	 movss	 xmm0, DWORD PTR [esi+44]
  0036f	f3 0f 59 05 00
	00 00 00	 mulss	 xmm0, DWORD PTR __real@3e4ccccd
  00377	f3 0f 11 86 9c
	00 00 00	 movss	 DWORD PTR [esi+156], xmm0
  0037f	0f b7 82 3c 00
	00 00		 movzx	 eax, WORD PTR ?ItemAttribute@@3PAUITEM_ATTRIBUTE@@A[edx+60]
  00386	89 46 70	 mov	 DWORD PTR [esi+112], eax

; 334  : 	m_AttackSpeed = p->AttackSpeed;

  00389	8a 82 28 00 00
	00		 mov	 al, BYTE PTR ?ItemAttribute@@3PAUITEM_ATTRIBUTE@@A[edx+40]
  0038f	88 46 0d	 mov	 BYTE PTR [esi+13], al

; 335  : 	m_TwoHand = p->TwoHand;

  00392	8a 82 21 00 00
	00		 mov	 al, BYTE PTR ?ItemAttribute@@3PAUITEM_ATTRIBUTE@@A[edx+33]
  00398	88 46 0c	 mov	 BYTE PTR [esi+12], al

; 336  : 
; 337  : 	m_DamageMin = p->DamageMin;

  0039b	0f b6 82 2a 00
	00 00		 movzx	 eax, BYTE PTR ?ItemAttribute@@3PAUITEM_ATTRIBUTE@@A[edx+42]
  003a2	66 89 46 10	 mov	 WORD PTR [esi+16], ax

; 338  : 	m_DamageMax = p->DamageMax;

  003a6	0f b6 82 2b 00
	00 00		 movzx	 eax, BYTE PTR ?ItemAttribute@@3PAUITEM_ATTRIBUTE@@A[edx+43]
  003ad	66 89 46 12	 mov	 WORD PTR [esi+18], ax

; 339  : 
; 340  : 	m_SuccessfulBlocking = p->SuccessfulBlocking;

  003b1	8a 82 2c 00 00
	00		 mov	 al, BYTE PTR ?ItemAttribute@@3PAUITEM_ATTRIBUTE@@A[edx+44]
  003b7	88 46 14	 mov	 BYTE PTR [esi+20], al

; 341  : 	m_Defense = p->Defense;

  003ba	0f b6 82 2d 00
	00 00		 movzx	 eax, BYTE PTR ?ItemAttribute@@3PAUITEM_ATTRIBUTE@@A[edx+45]
  003c1	66 89 46 16	 mov	 WORD PTR [esi+22], ax

; 342  : 	m_MagicDefense = p->MagicDefense;

  003c5	0f b6 82 2e 00
	00 00		 movzx	 eax, BYTE PTR ?ItemAttribute@@3PAUITEM_ATTRIBUTE@@A[edx+46]
  003cc	66 89 46 18	 mov	 WORD PTR [esi+24], ax

; 343  : 	m_WalkSpeed = p->WalkSpeed;

  003d0	8a 82 29 00 00
	00		 mov	 al, BYTE PTR ?ItemAttribute@@3PAUITEM_ATTRIBUTE@@A[edx+41]
  003d6	88 46 0e	 mov	 BYTE PTR [esi+14], al

; 344  : 
; 345  : 	if( (_type >> 9) == 5 && p->ItemSlot == 1)

  003d9	8b c3		 mov	 eax, ebx
  003db	c1 f8 09	 sar	 eax, 9
  003de	89 45 1c	 mov	 DWORD PTR tv4589[ebp], eax
  003e1	83 f8 05	 cmp	 eax, 5
  003e4	75 18		 jne	 SHORT $LN63@Convert
  003e6	83 ba 64 00 00
	00 01		 cmp	 DWORD PTR ?ItemAttribute@@3PAUITEM_ATTRIBUTE@@A[edx+100], 1
  003ed	75 0f		 jne	 SHORT $LN63@Convert

; 346  : 	{
; 347  : 		m_Magic = 0;

  003ef	33 c0		 xor	 eax, eax
  003f1	66 89 46 20	 mov	 WORD PTR [esi+32], ax

; 348  : 		m_CurseMagic = p->MagicPW;

  003f5	66 8b 82 54 00
	00 00		 mov	 ax, WORD PTR ?ItemAttribute@@3PAUITEM_ATTRIBUTE@@A[edx+84]

; 349  : 	}
; 350  : 	else

  003fc	eb 0d		 jmp	 SHORT $LN505@Convert
$LN63@Convert:

; 351  : 	{
; 352  : 		m_Magic = p->MagicPW;

  003fe	66 8b 82 54 00
	00 00		 mov	 ax, WORD PTR ?ItemAttribute@@3PAUITEM_ATTRIBUTE@@A[edx+84]
  00405	66 89 46 20	 mov	 WORD PTR [esi+32], ax

; 353  : 		m_CurseMagic = 0;

  00409	33 c0		 xor	 eax, eax
$LN505@Convert:

; 354  : 	}
; 355  : 
; 356  : 	m_serial = p->Serial;
; 357  : 	m_QuestItem = (bool)p->QuestItem;
; 358  : 	m_RequireLeaderShip = 0;
; 359  : 
; 360  : 	if (m_BaseDurability > 10.0f )

  0040b	f3 0f 10 4e 2c	 movss	 xmm1, DWORD PTR [esi+44]
  00410	66 89 46 22	 mov	 WORD PTR [esi+34], ax
  00414	8a 82 25 00 00
	00		 mov	 al, BYTE PTR ?ItemAttribute@@3PAUITEM_ATTRIBUTE@@A[edx+37]
  0041a	88 46 04	 mov	 BYTE PTR [esi+4], al
  0041d	8a 82 60 00 00
	00		 mov	 al, BYTE PTR ?ItemAttribute@@3PAUITEM_ATTRIBUTE@@A[edx+96]
  00423	88 86 a9 00 00
	00		 mov	 BYTE PTR [esi+169], al
  00429	33 c0		 xor	 eax, eax
  0042b	0f 2f 0d 00 00
	00 00		 comiss	 xmm1, DWORD PTR __real@41200000
  00432	66 89 46 5c	 mov	 WORD PTR [esi+92], ax
  00436	76 1f		 jbe	 SHORT $LN67@Convert

; 361  : 	{
; 362  : 		if( _type != ITEMGET(13,20) &&

  00438	81 fb 14 1a 00
	00		 cmp	 ebx, 6676		; 00001a14H
  0043e	74 17		 je	 SHORT $LN67@Convert
  00440	81 fb 26 1a 00
	00		 cmp	 ebx, 6694		; 00001a26H
  00446	74 0f		 je	 SHORT $LN67@Convert

; 363  : 			_type != ITEMGET(13,38) )
; 364  : 		{
; 365  : 			if( m_Durability > m_BaseDurability )

  00448	f3 0f 10 46 24	 movss	 xmm0, DWORD PTR [esi+36]
  0044d	0f 2f c1	 comiss	 xmm0, xmm1
  00450	76 05		 jbe	 SHORT $LN67@Convert

; 366  : 			{
; 367  : 				m_Durability = m_BaseDurability;

  00452	f3 0f 11 4e 24	 movss	 DWORD PTR [esi+36], xmm1
$LN67@Convert:

; 368  : 			}
; 369  : 		}
; 370  : 	}
; 371  : 
; 372  : 	if (m_Durability == 0 )

  00457	f3 0f 10 4e 24	 movss	 xmm1, DWORD PTR [esi+36]
  0045c	0f 2e ca	 ucomiss xmm1, xmm2
  0045f	9f		 lahf
  00460	f6 c4 44	 test	 ah, 68			; 00000044H
  00463	7a 0c		 jp	 SHORT $LN68@Convert

; 373  : 	{
; 374  : 		m_CurrentDurabilityState = 1;

  00465	c7 86 a4 00 00
	00 00 00 80 3f	 mov	 DWORD PTR [esi+164], 1065353216 ; 3f800000H
  0046f	eb 55		 jmp	 SHORT $LN75@Convert
$LN68@Convert:

; 375  : 	}
; 376  : 	else if ( m_Durability < m_DurabilityState[2] )

  00471	f3 0f 10 86 9c
	00 00 00	 movss	 xmm0, DWORD PTR [esi+156]
  00479	0f 2f c1	 comiss	 xmm0, xmm1
  0047c	76 0c		 jbe	 SHORT $LN70@Convert

; 377  : 	{
; 378  : 		m_CurrentDurabilityState = (float)0.5;

  0047e	c7 86 a4 00 00
	00 00 00 00 3f	 mov	 DWORD PTR [esi+164], 1056964608 ; 3f000000H
  00488	eb 3c		 jmp	 SHORT $LN75@Convert
$LN70@Convert:

; 379  : 	}
; 380  : 	else if ( m_Durability < m_DurabilityState[1] )

  0048a	f3 0f 10 86 98
	00 00 00	 movss	 xmm0, DWORD PTR [esi+152]
  00492	0f 2f c1	 comiss	 xmm0, xmm1
  00495	76 0c		 jbe	 SHORT $LN72@Convert

; 381  : 	{
; 382  : 		m_CurrentDurabilityState = (float)0.3;

  00497	c7 86 a4 00 00
	00 9a 99 99 3e	 mov	 DWORD PTR [esi+164], 1050253722 ; 3e99999aH
  004a1	eb 23		 jmp	 SHORT $LN75@Convert
$LN72@Convert:

; 383  : 	}
; 384  : 	else if ( m_Durability < m_DurabilityState[0] )

  004a3	f3 0f 10 86 94
	00 00 00	 movss	 xmm0, DWORD PTR [esi+148]
  004ab	0f 2f c1	 comiss	 xmm0, xmm1
  004ae	76 0c		 jbe	 SHORT $LN74@Convert

; 385  : 	{
; 386  : 		m_CurrentDurabilityState = (float)0.2;

  004b0	c7 86 a4 00 00
	00 cd cc 4c 3e	 mov	 DWORD PTR [esi+164], 1045220557 ; 3e4ccccdH

; 387  : 	}
; 388  : 	else

  004ba	eb 0a		 jmp	 SHORT $LN75@Convert
$LN74@Convert:

; 389  : 	{
; 390  : 		m_CurrentDurabilityState = 0.0;

  004bc	c7 86 a4 00 00
	00 00 00 00 00	 mov	 DWORD PTR [esi+164], 0
$LN75@Convert:

; 391  : 	}
; 392  : 
; 393  : 	memcpy(m_RequireClass, p->RequireClass , sizeof(m_RequireClass));

  004c6	8b 82 3e 00 00
	00		 mov	 eax, DWORD PTR ?ItemAttribute@@3PAUITEM_ATTRIBUTE@@A[edx+62]
  004cc	89 46 60	 mov	 DWORD PTR [esi+96], eax
  004cf	66 8b 82 42 00
	00 00		 mov	 ax, WORD PTR ?ItemAttribute@@3PAUITEM_ATTRIBUTE@@A[edx+66]
  004d6	66 89 46 64	 mov	 WORD PTR [esi+100], ax
  004da	8a 82 44 00 00
	00		 mov	 al, BYTE PTR ?ItemAttribute@@3PAUITEM_ATTRIBUTE@@A[edx+68]
  004e0	88 46 66	 mov	 BYTE PTR [esi+102], al

; 394  : 
; 395  : 	for ( int i = 0; i<MAX_ITEM_SPECIAL_ATTRIBUTE ; i++ )
; 396  : 	{
; 397  : 		m_Resistance[i] = p->Resistance[i] * m_Level;

  004e3	0f b6 46 08	 movzx	 eax, BYTE PTR [esi+8]
  004e7	0f b6 8a 45 00
	00 00		 movzx	 ecx, BYTE PTR ?ItemAttribute@@3PAUITEM_ATTRIBUTE@@A[edx+69]
  004ee	0f af c8	 imul	 ecx, eax
  004f1	88 4e 67	 mov	 BYTE PTR [esi+103], cl
  004f4	0f b6 46 08	 movzx	 eax, BYTE PTR [esi+8]
  004f8	0f b6 8a 46 00
	00 00		 movzx	 ecx, BYTE PTR ?ItemAttribute@@3PAUITEM_ATTRIBUTE@@A[edx+70]
  004ff	0f af c8	 imul	 ecx, eax
  00502	88 4e 68	 mov	 BYTE PTR [esi+104], cl
  00505	0f b6 46 08	 movzx	 eax, BYTE PTR [esi+8]
  00509	0f b6 8a 47 00
	00 00		 movzx	 ecx, BYTE PTR ?ItemAttribute@@3PAUITEM_ATTRIBUTE@@A[edx+71]
  00510	0f af c8	 imul	 ecx, eax
  00513	88 4e 69	 mov	 BYTE PTR [esi+105], cl
  00516	0f b6 46 08	 movzx	 eax, BYTE PTR [esi+8]
  0051a	0f b6 8a 48 00
	00 00		 movzx	 ecx, BYTE PTR ?ItemAttribute@@3PAUITEM_ATTRIBUTE@@A[edx+72]
  00521	0f af c8	 imul	 ecx, eax
  00524	88 4e 6a	 mov	 BYTE PTR [esi+106], cl
  00527	0f b6 46 08	 movzx	 eax, BYTE PTR [esi+8]
  0052b	0f b6 8a 49 00
	00 00		 movzx	 ecx, BYTE PTR ?ItemAttribute@@3PAUITEM_ATTRIBUTE@@A[edx+73]
  00532	0f af c8	 imul	 ecx, eax
  00535	88 4e 6b	 mov	 BYTE PTR [esi+107], cl
  00538	0f b6 46 08	 movzx	 eax, BYTE PTR [esi+8]
  0053c	0f b6 8a 4a 00
	00 00		 movzx	 ecx, BYTE PTR ?ItemAttribute@@3PAUITEM_ATTRIBUTE@@A[edx+74]
  00543	0f af c8	 imul	 ecx, eax
  00546	88 4e 6c	 mov	 BYTE PTR [esi+108], cl
  00549	0f b6 46 08	 movzx	 eax, BYTE PTR [esi+8]
  0054d	0f b6 8a 4b 00
	00 00		 movzx	 ecx, BYTE PTR ?ItemAttribute@@3PAUITEM_ATTRIBUTE@@A[edx+75]
  00554	0f af c8	 imul	 ecx, eax

; 398  : 	}
; 399  : 
; 400  : 	ItemLevel = p->Level;
; 401  : 
; 402  : 	if ( ( Attribute2 & 0x3F) > 0 )

  00557	80 65 18 3f	 and	 BYTE PTR tv3483[ebp], 63 ; 0000003fH
  0055b	88 4e 6d	 mov	 BYTE PTR [esi+109], cl
  0055e	0f b6 ba 22 00
	00 00		 movzx	 edi, BYTE PTR ?ItemAttribute@@3PAUITEM_ATTRIBUTE@@A[edx+34]
  00565	89 7d 2c	 mov	 DWORD PTR _ItemLevel$1$[ebp], edi
  00568	77 09		 ja	 SHORT $LN506@Convert

; 403  : 	{
; 404  : 		ItemLevel = p->Level + 25;
; 405  : 	}
; 406  : 	else if (m_SetOption != 0 )

  0056a	80 be aa 00 00
	00 00		 cmp	 BYTE PTR [esi+170], 0
  00571	74 06		 je	 SHORT $LN78@Convert
$LN506@Convert:

; 407  : 	{
; 408  : 		ItemLevel = p->Level + 25;

  00573	83 c7 19	 add	 edi, 25			; 00000019H
  00576	89 7d 2c	 mov	 DWORD PTR _ItemLevel$1$[ebp], edi
$LN78@Convert:

; 409  : 	}
; 410  : 
; 411  : 	if( g_ElementalSystem.IsPentagram(m_Type) )

  00579	0f bf 46 06	 movsx	 eax, WORD PTR [esi+6]
  0057d	b9 00 00 00 00	 mov	 ecx, OFFSET ?g_ElementalSystem@@3VCElementalSystem@@A ; g_ElementalSystem
  00582	50		 push	 eax
  00583	e8 00 00 00 00	 call	 ?IsPentagram@CElementalSystem@@QAEHH@Z ; CElementalSystem::IsPentagram
  00588	85 c0		 test	 eax, eax
  0058a	74 51		 je	 SHORT $LN79@Convert

; 412  : 	{
; 413  : 		m_DamageMin = p->RequireLevel;

  0058c	8b 55 08	 mov	 edx, DWORD PTR tv4661[ebp]

; 414  : 		m_DamageMax = p->RequireEnergy;
; 415  : 		m_Defense = p->Defense;
; 416  : 
; 417  : 		m_RequireLevel = p->Level + 4*m_Level;

  0058f	66 8b 4e 08	 mov	 cx, WORD PTR [esi+8]
  00593	66 c1 e1 02	 shl	 cx, 2
  00597	0f b7 82 3a 00
	00 00		 movzx	 eax, WORD PTR ?ItemAttribute@@3PAUITEM_ATTRIBUTE@@A[edx+58]
  0059e	66 89 46 10	 mov	 WORD PTR [esi+16], ax
  005a2	0f b7 82 38 00
	00 00		 movzx	 eax, WORD PTR ?ItemAttribute@@3PAUITEM_ATTRIBUTE@@A[edx+56]
  005a9	66 89 46 12	 mov	 WORD PTR [esi+18], ax
  005ad	0f b6 82 2d 00
	00 00		 movzx	 eax, BYTE PTR ?ItemAttribute@@3PAUITEM_ATTRIBUTE@@A[edx+45]
  005b4	66 89 46 16	 mov	 WORD PTR [esi+22], ax
  005b8	0f b6 82 22 00
	00 00		 movzx	 eax, BYTE PTR ?ItemAttribute@@3PAUITEM_ATTRIBUTE@@A[edx+34]
  005bf	66 03 c8	 add	 cx, ax

; 418  : 
; 419  : 		m_RequireLeaderShip = 0;

  005c2	33 c0		 xor	 eax, eax
  005c4	66 89 4e 58	 mov	 WORD PTR [esi+88], cx

; 420  : 		m_RequireVitality = 0;

  005c8	89 46 5a	 mov	 DWORD PTR [esi+90], eax

; 421  : 		m_RequireEnergy = 0;
; 422  : 		m_RequireDexterity = 0;

  005cb	89 46 54	 mov	 DWORD PTR [esi+84], eax

; 423  : 		m_RequireStrength = 0;

  005ce	66 89 46 52	 mov	 WORD PTR [esi+82], ax

; 424  : 
; 425  : 		m_CurrentDurabilityState = 0;

  005d2	89 86 a4 00 00
	00		 mov	 DWORD PTR [esi+164], eax

; 426  : 	}
; 427  : 	else

  005d8	e9 15 03 00 00	 jmp	 $LN108@Convert
$LN79@Convert:

; 428  : 	{
; 429  : 		if ( p->RequireStrength != 0 )

  005dd	8b 4d 08	 mov	 ecx, DWORD PTR tv4661[ebp]
  005e0	0f b7 91 34 00
	00 00		 movzx	 edx, WORD PTR ?ItemAttribute@@3PAUITEM_ATTRIBUTE@@A[ecx+52]
  005e7	66 85 d2	 test	 dx, dx
  005ea	74 28		 je	 SHORT $LN81@Convert

; 430  : 		{
; 431  : 			m_RequireStrength = ((p->RequireStrength * (ItemLevel + m_Level * 3 ) ) * 3) / 100 + 20;

  005ec	0f bf 46 08	 movsx	 eax, WORD PTR [esi+8]
  005f0	8d 0c 47	 lea	 ecx, DWORD PTR [edi+eax*2]
  005f3	03 c8		 add	 ecx, eax
  005f5	b8 1f 85 eb 51	 mov	 eax, 1374389535		; 51eb851fH
  005fa	0f af ca	 imul	 ecx, edx
  005fd	8d 0c 49	 lea	 ecx, DWORD PTR [ecx+ecx*2]
  00600	f7 e9		 imul	 ecx

; 432  : 		}
; 433  : 		else

  00602	8b 4d 08	 mov	 ecx, DWORD PTR tv4661[ebp]
  00605	c1 fa 05	 sar	 edx, 5
  00608	8b c2		 mov	 eax, edx
  0060a	c1 e8 1f	 shr	 eax, 31			; 0000001fH
  0060d	83 c0 14	 add	 eax, 20			; 00000014H
  00610	03 c2		 add	 eax, edx
  00612	eb 02		 jmp	 SHORT $LN507@Convert
$LN81@Convert:

; 434  : 		{
; 435  : 			m_RequireStrength = 0;

  00614	33 c0		 xor	 eax, eax
$LN507@Convert:
  00616	66 89 46 52	 mov	 WORD PTR [esi+82], ax

; 436  : 		}
; 437  : 
; 438  : 
; 439  : 		if ( p->RequireDexterity != 0 )

  0061a	0f b7 91 36 00
	00 00		 movzx	 edx, WORD PTR ?ItemAttribute@@3PAUITEM_ATTRIBUTE@@A[ecx+54]
  00621	66 85 d2	 test	 dx, dx
  00624	74 28		 je	 SHORT $LN83@Convert

; 440  : 		{
; 441  : 			m_RequireDexterity = ((p->RequireDexterity * (ItemLevel + m_Level * 3 ) ) * 3) / 100 + 20;

  00626	0f bf 46 08	 movsx	 eax, WORD PTR [esi+8]
  0062a	8d 0c 47	 lea	 ecx, DWORD PTR [edi+eax*2]
  0062d	03 c8		 add	 ecx, eax
  0062f	b8 1f 85 eb 51	 mov	 eax, 1374389535		; 51eb851fH
  00634	0f af ca	 imul	 ecx, edx
  00637	8d 0c 49	 lea	 ecx, DWORD PTR [ecx+ecx*2]
  0063a	f7 e9		 imul	 ecx

; 442  : 		}
; 443  : 		else

  0063c	8b 4d 08	 mov	 ecx, DWORD PTR tv4661[ebp]
  0063f	c1 fa 05	 sar	 edx, 5
  00642	8b c2		 mov	 eax, edx
  00644	c1 e8 1f	 shr	 eax, 31			; 0000001fH
  00647	83 c0 14	 add	 eax, 20			; 00000014H
  0064a	03 c2		 add	 eax, edx
  0064c	eb 02		 jmp	 SHORT $LN508@Convert
$LN83@Convert:

; 444  : 		{
; 445  : 			m_RequireDexterity  = 0;

  0064e	33 c0		 xor	 eax, eax
$LN508@Convert:
  00650	66 89 46 54	 mov	 WORD PTR [esi+84], ax

; 446  : 		}
; 447  : 
; 448  : 		if ( p->RequireEnergy != 0 )

  00654	0f b7 91 38 00
	00 00		 movzx	 edx, WORD PTR ?ItemAttribute@@3PAUITEM_ATTRIBUTE@@A[ecx+56]
  0065b	66 85 d2	 test	 dx, dx
  0065e	74 28		 je	 SHORT $LN85@Convert

; 449  : 		{
; 450  : 			m_RequireEnergy = ((p->RequireEnergy * (ItemLevel + m_Level * 3 ) ) * 4) / 100 + 20;

  00660	0f bf 46 08	 movsx	 eax, WORD PTR [esi+8]
  00664	8d 0c 47	 lea	 ecx, DWORD PTR [edi+eax*2]
  00667	03 c8		 add	 ecx, eax
  00669	b8 1f 85 eb 51	 mov	 eax, 1374389535		; 51eb851fH
  0066e	0f af ca	 imul	 ecx, edx
  00671	c1 e1 02	 shl	 ecx, 2
  00674	f7 e9		 imul	 ecx

; 451  : 		}
; 452  : 		else

  00676	8b 4d 08	 mov	 ecx, DWORD PTR tv4661[ebp]
  00679	c1 fa 05	 sar	 edx, 5
  0067c	8b c2		 mov	 eax, edx
  0067e	c1 e8 1f	 shr	 eax, 31			; 0000001fH
  00681	83 c0 14	 add	 eax, 20			; 00000014H
  00684	03 c2		 add	 eax, edx
  00686	eb 02		 jmp	 SHORT $LN509@Convert
$LN85@Convert:

; 453  : 		{
; 454  : 			m_RequireEnergy = 0;

  00688	33 c0		 xor	 eax, eax
$LN509@Convert:
  0068a	66 89 46 56	 mov	 WORD PTR [esi+86], ax

; 455  : 		}
; 456  : 		
; 457  : 		if ( p->RequireEnergy != 0 )

  0068e	0f b7 81 38 00
	00 00		 movzx	 eax, WORD PTR ?ItemAttribute@@3PAUITEM_ATTRIBUTE@@A[ecx+56]
  00695	66 85 c0	 test	 ax, ax
  00698	74 34		 je	 SHORT $LN87@Convert

; 458  : 		{
; 459  : 			if( (_type >> 9) == 5 && p->ItemSlot == 1 )

  0069a	83 7d 1c 05	 cmp	 DWORD PTR tv4589[ebp], 5
  0069e	75 34		 jne	 SHORT $LN88@Convert
  006a0	83 b9 64 00 00
	00 01		 cmp	 DWORD PTR ?ItemAttribute@@3PAUITEM_ATTRIBUTE@@A[ecx+100], 1
  006a7	75 2b		 jne	 SHORT $LN88@Convert

; 460  : 			{
; 461  : 				m_RequireEnergy = (p->RequireEnergy * (ItemLevel + m_Level) * 3 ) / 100 + 20;

  006a9	0f bf 4e 08	 movsx	 ecx, WORD PTR [esi+8]
  006ad	03 cf		 add	 ecx, edi
  006af	0f af c8	 imul	 ecx, eax
  006b2	b8 1f 85 eb 51	 mov	 eax, 1374389535		; 51eb851fH
  006b7	8d 0c 49	 lea	 ecx, DWORD PTR [ecx+ecx*2]
  006ba	f7 e9		 imul	 ecx

; 462  : 			}
; 463  : 		}
; 464  : 		else

  006bc	8b 4d 08	 mov	 ecx, DWORD PTR tv4661[ebp]
  006bf	c1 fa 05	 sar	 edx, 5
  006c2	8b c2		 mov	 eax, edx
  006c4	c1 e8 1f	 shr	 eax, 31			; 0000001fH
  006c7	83 c0 14	 add	 eax, 20			; 00000014H
  006ca	03 c2		 add	 eax, edx
  006cc	eb 02		 jmp	 SHORT $LN510@Convert
$LN87@Convert:

; 465  : 		{
; 466  : 			m_RequireEnergy = 0;

  006ce	33 c0		 xor	 eax, eax
$LN510@Convert:
  006d0	66 89 46 56	 mov	 WORD PTR [esi+86], ax
$LN88@Convert:

; 467  : 		}
; 468  : 
; 469  : 		if ( _type >= ITEMGET(0,0) && _type < ITEMGET(12,0) )

  006d4	81 fb ff 17 00
	00		 cmp	 ebx, 6143		; 000017ffH
  006da	77 78		 ja	 SHORT $LN94@Convert

; 470  : 		{
; 471  : 			if ( p->RequireVitality != 0 )

  006dc	0f b7 91 4c 00
	00 00		 movzx	 edx, WORD PTR ?ItemAttribute@@3PAUITEM_ATTRIBUTE@@A[ecx+76]
  006e3	66 85 d2	 test	 dx, dx
  006e6	74 28		 je	 SHORT $LN91@Convert

; 472  : 			{
; 473  : 				m_RequireVitality = ((p->RequireVitality * (ItemLevel + m_Level * 3 ) ) * 3) / 100 + 20;

  006e8	0f bf 46 08	 movsx	 eax, WORD PTR [esi+8]
  006ec	8d 0c 47	 lea	 ecx, DWORD PTR [edi+eax*2]
  006ef	03 c8		 add	 ecx, eax
  006f1	b8 1f 85 eb 51	 mov	 eax, 1374389535		; 51eb851fH
  006f6	0f af ca	 imul	 ecx, edx
  006f9	8d 0c 49	 lea	 ecx, DWORD PTR [ecx+ecx*2]
  006fc	f7 e9		 imul	 ecx

; 474  : 			}
; 475  : 			else

  006fe	8b 4d 08	 mov	 ecx, DWORD PTR tv4661[ebp]
  00701	c1 fa 05	 sar	 edx, 5
  00704	8b c2		 mov	 eax, edx
  00706	c1 e8 1f	 shr	 eax, 31			; 0000001fH
  00709	83 c0 14	 add	 eax, 20			; 00000014H
  0070c	03 c2		 add	 eax, edx
  0070e	eb 02		 jmp	 SHORT $LN511@Convert
$LN91@Convert:

; 476  : 			{
; 477  : 				m_RequireVitality = 0;

  00710	33 c0		 xor	 eax, eax
$LN511@Convert:
  00712	66 89 46 5a	 mov	 WORD PTR [esi+90], ax

; 478  : 			}
; 479  : 	
; 480  : 			if ( p->RequireLeadership != 0 )

  00716	83 b9 6c 00 00
	00 00		 cmp	 DWORD PTR ?ItemAttribute@@3PAUITEM_ATTRIBUTE@@A[ecx+108], 0
  0071d	74 2f		 je	 SHORT $LN93@Convert

; 481  : 			{
; 482  : 				m_RequireLeaderShip = ((p->RequireVitality * (ItemLevel + m_Level * 3 ) ) * 3) / 100 + 20;

  0071f	0f bf 4e 08	 movsx	 ecx, WORD PTR [esi+8]
  00723	8b 45 08	 mov	 eax, DWORD PTR tv4661[ebp]
  00726	8d 14 4f	 lea	 edx, DWORD PTR [edi+ecx*2]
  00729	03 d1		 add	 edx, ecx
  0072b	0f b7 88 4c 00
	00 00		 movzx	 ecx, WORD PTR ?ItemAttribute@@3PAUITEM_ATTRIBUTE@@A[eax+76]
  00732	0f af d1	 imul	 edx, ecx
  00735	b8 1f 85 eb 51	 mov	 eax, 1374389535		; 51eb851fH
  0073a	8d 0c 52	 lea	 ecx, DWORD PTR [edx+edx*2]
  0073d	f7 e9		 imul	 ecx
  0073f	c1 fa 05	 sar	 edx, 5
  00742	8b c2		 mov	 eax, edx
  00744	c1 e8 1f	 shr	 eax, 31			; 0000001fH
  00747	83 c0 14	 add	 eax, 20			; 00000014H
  0074a	03 c2		 add	 eax, edx

; 483  : 			}
; 484  : 			else

  0074c	eb 02		 jmp	 SHORT $LN512@Convert
$LN93@Convert:

; 485  : 			{
; 486  : 				m_RequireLeaderShip = 0;

  0074e	33 c0		 xor	 eax, eax
$LN512@Convert:
  00750	66 89 46 5c	 mov	 WORD PTR [esi+92], ax
$LN94@Convert:

; 487  : 			}
; 488  : 		}
; 489  : 	
; 490  : 		if ( _type == ITEMGET(13,5) )

  00754	81 fb 05 1a 00
	00		 cmp	 ebx, 6661		; 00001a05H
  0075a	75 39		 jne	 SHORT $LN95@Convert

; 491  : 		{
; 492  : 			m_RequireLeaderShip = m_PetItem_Level * 15 + 185;

  0075c	66 8b 86 b8 00
	00 00		 mov	 ax, WORD PTR [esi+184]
  00763	66 8b c8	 mov	 cx, ax
  00766	66 c1 e1 04	 shl	 cx, 4
  0076a	66 2b c8	 sub	 cx, ax
  0076d	b8 b9 00 00 00	 mov	 eax, 185		; 000000b9H
  00772	66 03 c8	 add	 cx, ax

; 493  : 			p->RequireLeadership = m_PetItem_Level * 15 + 185;

  00775	8b 86 b8 00 00
	00		 mov	 eax, DWORD PTR [esi+184]
  0077b	66 89 4e 5c	 mov	 WORD PTR [esi+92], cx
  0077f	8b c8		 mov	 ecx, eax
  00781	c1 e1 04	 shl	 ecx, 4
  00784	2b c8		 sub	 ecx, eax
  00786	8b 45 08	 mov	 eax, DWORD PTR tv4661[ebp]
  00789	81 c1 b9 00 00
	00		 add	 ecx, 185		; 000000b9H
  0078f	89 88 6c 00 00
	00		 mov	 DWORD PTR ?ItemAttribute@@3PAUITEM_ATTRIBUTE@@A[eax+108], ecx
$LN95@Convert:

; 494  : 		}
; 495  : 	
; 496  : 		if ( g_kJewelOfHarmonySystem.IsActive(this) == TRUE )

  00795	56		 push	 esi
  00796	b9 00 00 00 00	 mov	 ecx, OFFSET ?g_kJewelOfHarmonySystem@@3VCJewelOfHarmonySystem@@A ; g_kJewelOfHarmonySystem
  0079b	e8 00 00 00 00	 call	 ?IsActive@CJewelOfHarmonySystem@@QAEHPAVCItem@@@Z ; CJewelOfHarmonySystem::IsActive
  007a0	83 f8 01	 cmp	 eax, 1
  007a3	75 6d		 jne	 SHORT $LN96@Convert

; 497  : 		{
; 498  : 			BYTE btOption = g_kJewelOfHarmonySystem.GetItemStrengthenOption(this);

  007a5	56		 push	 esi
  007a6	b9 00 00 00 00	 mov	 ecx, OFFSET ?g_kJewelOfHarmonySystem@@3VCJewelOfHarmonySystem@@A ; g_kJewelOfHarmonySystem
  007ab	e8 00 00 00 00	 call	 ?GetItemStrengthenOption@CJewelOfHarmonySystem@@QAEEPAVCItem@@@Z ; CJewelOfHarmonySystem::GetItemStrengthenOption

; 499  : 			int iType = g_kJewelOfHarmonySystem._GetItemType(this);

  007b0	56		 push	 esi
  007b1	b9 00 00 00 00	 mov	 ecx, OFFSET ?g_kJewelOfHarmonySystem@@3VCJewelOfHarmonySystem@@A ; g_kJewelOfHarmonySystem
  007b6	88 45 1f	 mov	 BYTE PTR _btOption$1$[ebp], al
  007b9	e8 00 00 00 00	 call	 ?_GetItemType@CJewelOfHarmonySystem@@QAEHPAVCItem@@@Z ; CJewelOfHarmonySystem::_GetItemType

; 500  : 	
; 501  : 			if( iType == 1 )

  007be	83 f8 01	 cmp	 eax, 1
  007c1	75 13		 jne	 SHORT $LN98@Convert

; 502  : 			{
; 503  : 				if ( btOption == AT_JEWELOFHARMONY_WEAPON_DECREASE_REQUIRE_STR )

  007c3	8a 45 1f	 mov	 al, BYTE PTR _btOption$1$[ebp]
  007c6	3c 03		 cmp	 al, 3
  007c8	75 04		 jne	 SHORT $LN100@Convert

; 504  : 					m_HJOpStrength = g_kJewelOfHarmonySystem.GetItemEffectValue(this,

  007ca	6a 03		 push	 3
  007cc	eb 16		 jmp	 SHORT $LN514@Convert
$LN100@Convert:

; 505  : 					AT_JEWELOFHARMONY_WEAPON_DECREASE_REQUIRE_STR);
; 506  : 				else if ( btOption == AT_JEWELOFHARMONY_WEAPON_DECREASE_REQUIRE_DEX )

  007ce	3c 04		 cmp	 al, 4
  007d0	75 48		 jne	 SHORT $LN97@Convert

; 507  : 					m_HJOpDexterity = g_kJewelOfHarmonySystem.GetItemEffectValue(this,

  007d2	6a 04		 push	 4

; 508  : 					AT_JEWELOFHARMONY_WEAPON_DECREASE_REQUIRE_DEX);
; 509  : 			}

  007d4	eb 28		 jmp	 SHORT $LN513@Convert
$LN98@Convert:

; 510  : 			else if( iType == 2 )

  007d6	83 f8 02	 cmp	 eax, 2
  007d9	75 3f		 jne	 SHORT $LN97@Convert

; 511  : 			{
; 512  : 				if ( btOption == AT_JEWELOFHARMONY_WEAPON_IMPROVE_MAXATTACKDAMAGE )

  007db	8a 45 1f	 mov	 al, BYTE PTR _btOption$1$[ebp]
  007de	3c 02		 cmp	 al, 2
  007e0	75 16		 jne	 SHORT $LN104@Convert

; 513  : 					m_HJOpStrength = g_kJewelOfHarmonySystem.GetItemEffectValue(this,

  007e2	6a 02		 push	 2
$LN514@Convert:
  007e4	56		 push	 esi
  007e5	b9 00 00 00 00	 mov	 ecx, OFFSET ?g_kJewelOfHarmonySystem@@3VCJewelOfHarmonySystem@@A ; g_kJewelOfHarmonySystem
  007ea	e8 00 00 00 00	 call	 ?GetItemEffectValue@CJewelOfHarmonySystem@@QAEHPAVCItem@@H@Z ; CJewelOfHarmonySystem::GetItemEffectValue
  007ef	66 89 86 c2 00
	00 00		 mov	 WORD PTR [esi+194], ax
  007f6	eb 22		 jmp	 SHORT $LN97@Convert
$LN104@Convert:

; 514  : 					AT_JEWELOFHARMONY_WEAPON_IMPROVE_MAXATTACKDAMAGE);
; 515  : 				else if ( btOption == AT_JEWELOFHARMONY_WEAPON_DECREASE_REQUIRE_STR )

  007f8	3c 03		 cmp	 al, 3
  007fa	75 1e		 jne	 SHORT $LN97@Convert

; 516  : 					m_HJOpDexterity = g_kJewelOfHarmonySystem.GetItemEffectValue(this,

  007fc	6a 03		 push	 3
$LN513@Convert:
  007fe	56		 push	 esi
  007ff	b9 00 00 00 00	 mov	 ecx, OFFSET ?g_kJewelOfHarmonySystem@@3VCJewelOfHarmonySystem@@A ; g_kJewelOfHarmonySystem
  00804	e8 00 00 00 00	 call	 ?GetItemEffectValue@CJewelOfHarmonySystem@@QAEHPAVCItem@@H@Z ; CJewelOfHarmonySystem::GetItemEffectValue
  00809	66 89 86 c4 00
	00 00		 mov	 WORD PTR [esi+196], ax

; 517  : 					AT_JEWELOFHARMONY_WEAPON_DECREASE_REQUIRE_STR);
; 518  : 			}
; 519  : 		}
; 520  : 		else

  00810	eb 08		 jmp	 SHORT $LN97@Convert
$LN96@Convert:

; 521  : 		{
; 522  : 			m_HJOpStrength = 0;

  00812	33 c0		 xor	 eax, eax
  00814	89 86 c2 00 00
	00		 mov	 DWORD PTR [esi+194], eax
$LN97@Convert:

; 523  : 			m_HJOpDexterity  = 0;
; 524  : 		}
; 525  : 	
; 526  : 		g_SocketItem.SetSocketOption(this);

  0081a	56		 push	 esi
  0081b	b9 00 00 00 00	 mov	 ecx, OFFSET ?g_SocketItem@@3VCSocketItems@@A ; g_SocketItem
  00820	e8 00 00 00 00	 call	 ?SetSocketOption@CSocketItems@@QAEXPAVCItem@@@Z ; CSocketItems::SetSocketOption

; 527  : 	
; 528  : 		if ( p->RequireLevel != 0 )

  00825	8b 45 08	 mov	 eax, DWORD PTR tv4661[ebp]
  00828	0f b7 90 3a 00
	00 00		 movzx	 edx, WORD PTR ?ItemAttribute@@3PAUITEM_ATTRIBUTE@@A[eax+58]
  0082f	66 85 d2	 test	 dx, dx
  00832	0f 84 b1 00 00
	00		 je	 $LN107@Convert

; 529  : 		{
; 530  : 			if ( _type == ITEMGET(13,4) )	// DarkHorse

  00838	81 fb 04 1a 00
	00		 cmp	 ebx, 6660		; 00001a04H
  0083e	75 13		 jne	 SHORT $LN109@Convert

; 531  : 			{
; 532  : 				m_RequireLevel = m_PetItem_Level * 2 + 218;

  00840	66 8b 86 b8 00
	00 00		 mov	 ax, WORD PTR [esi+184]
  00847	66 83 c0 6d	 add	 ax, 109			; 0000006dH
  0084b	66 03 c0	 add	 ax, ax
  0084e	e9 98 00 00 00	 jmp	 $LN515@Convert
$LN109@Convert:

; 533  : 			}
; 534  : 	#if ( CUSTOM_WINGS == 1 )
; 535  : 			else if ( _type >= ITEMGET(12,440) && _type <= ITEMGET(12,445) )
; 536  : 			{
; 537  : 				m_RequireLevel = p->RequireLevel;
; 538  : 			}
; 539  : 	#endif
; 540  : 			else if ( _type >= ITEMGET(12,36) && _type <= ITEMGET(12,40) )

  00853	8d 83 dc e7 ff
	ff		 lea	 eax, DWORD PTR [ebx-6180]
  00859	83 f8 04	 cmp	 eax, 4
  0085c	77 09		 ja	 SHORT $LN111@Convert
$LN128@Convert:

; 541  : 			{
; 542  : 				m_RequireLevel = p->RequireLevel;

  0085e	66 89 56 58	 mov	 WORD PTR [esi+88], dx
  00862	e9 88 00 00 00	 jmp	 $LN516@Convert
$LN111@Convert:

; 543  : 			}
; 544  : 			else if ( _type >= ITEMGET(12,3) && _type <= ITEMGET(12,6) )

  00867	8d 83 fd e7 ff
	ff		 lea	 eax, DWORD PTR [ebx-6147]
  0086d	83 f8 03	 cmp	 eax, 3
  00870	77 17		 ja	 SHORT $LN113@Convert
$LN517@Convert:

; 545  : 			{
; 546  : 				m_RequireLevel = p->RequireLevel + (m_Level * 5);

  00872	66 8b 46 08	 mov	 ax, WORD PTR [esi+8]
  00876	66 8b c8	 mov	 cx, ax
  00879	66 c1 e0 02	 shl	 ax, 2
  0087d	66 03 c8	 add	 cx, ax
  00880	66 03 ca	 add	 cx, dx
  00883	66 89 4e 58	 mov	 WORD PTR [esi+88], cx
  00887	eb 66		 jmp	 SHORT $LN516@Convert
$LN113@Convert:

; 547  : 			}
; 548  : 			else if ( _type == ITEMGET(12,42) )

  00889	81 fb 2a 18 00
	00		 cmp	 ebx, 6186		; 0000182aH
  0088f	74 e1		 je	 SHORT $LN517@Convert

; 549  : 			{
; 550  : 				m_RequireLevel = p->RequireLevel + (m_Level * 5);
; 551  : 			}
; 552  : 			else if ( _type == ITEMGET(12,43) )

  00891	81 fb 2b 18 00
	00		 cmp	 ebx, 6187		; 0000182bH
  00897	75 06		 jne	 SHORT $LN117@Convert

; 553  : 			{
; 554  : 				m_RequireLevel = p->RequireLevel;

  00899	66 89 56 58	 mov	 WORD PTR [esi+88], dx
  0089d	eb 50		 jmp	 SHORT $LN516@Convert
$LN117@Convert:

; 555  : 			}
; 556  : 			else if ( _type == ITEMGET(12,50) )

  0089f	81 fb 32 18 00
	00		 cmp	 ebx, 6194		; 00001832H
  008a5	75 06		 jne	 SHORT $LN119@Convert

; 557  : 			{
; 558  : 				m_RequireLevel = p->RequireLevel;

  008a7	66 89 56 58	 mov	 WORD PTR [esi+88], dx
  008ab	eb 42		 jmp	 SHORT $LN516@Convert
$LN119@Convert:

; 559  : 			}
; 560  : 			else if ( _type >= ITEMGET(12,7) && _type <= ITEMGET(12,24) )

  008ad	8d 83 f9 e7 ff
	ff		 lea	 eax, DWORD PTR [ebx-6151]
  008b3	83 f8 11	 cmp	 eax, 17			; 00000011H
  008b6	77 06		 ja	 SHORT $LN121@Convert

; 561  : 			{
; 562  : 				m_RequireLevel = p->RequireLevel;

  008b8	66 89 56 58	 mov	 WORD PTR [esi+88], dx
  008bc	eb 31		 jmp	 SHORT $LN516@Convert
$LN121@Convert:

; 563  : 			}
; 564  : 			else if ( _type >= ITEMGET(0,0) && _type < ITEMGET(12,0) )

  008be	81 fb ff 17 00
	00		 cmp	 ebx, 6143		; 000017ffH
  008c4	77 06		 ja	 SHORT $LN123@Convert

; 565  : 			{
; 566  : 				if ( p->RequireLevel )
; 567  : 					m_RequireLevel = p->RequireLevel;

  008c6	66 89 56 58	 mov	 WORD PTR [esi+88], dx

; 568  : 			}

  008ca	eb 23		 jmp	 SHORT $LN516@Convert
$LN123@Convert:

; 569  : 			else if ( _type == ITEMGET(12,266) || _type == ITEMGET(12,267) )

  008cc	81 fb 0a 19 00
	00		 cmp	 ebx, 6410		; 0000190aH
  008d2	74 8a		 je	 SHORT $LN128@Convert
  008d4	81 fb 0b 19 00
	00		 cmp	 ebx, 6411		; 0000190bH
  008da	74 82		 je	 SHORT $LN128@Convert

; 570  : 			{
; 571  : 				m_RequireLevel = p->RequireLevel;
; 572  : 			}
; 573  : 			else
; 574  : 			{
; 575  : 				m_RequireLevel = p->RequireLevel + m_Level * 4;

  008dc	66 8b 46 08	 mov	 ax, WORD PTR [esi+8]
  008e0	66 c1 e0 02	 shl	 ax, 2
  008e4	66 03 c2	 add	 ax, dx
  008e7	eb 02		 jmp	 SHORT $LN515@Convert
$LN107@Convert:

; 576  : 			}
; 577  : 		}
; 578  : 		else
; 579  : 		{
; 580  : 			m_RequireLevel = 0;

  008e9	33 c0		 xor	 eax, eax
$LN515@Convert:
  008eb	66 89 46 58	 mov	 WORD PTR [esi+88], ax
$LN516@Convert:
  008ef	8b 55 08	 mov	 edx, DWORD PTR tv4661[ebp]
$LN108@Convert:

; 581  : 		}
; 582  : 	}
; 583  : 
; 584  : 	if ( m_Type == ITEMGET(13,10) )

  008f2	0f b7 46 06	 movzx	 eax, WORD PTR [esi+6]
  008f6	b9 0a 1a 00 00	 mov	 ecx, 6666		; 00001a0aH
  008fb	66 3b c1	 cmp	 ax, cx
  008fe	75 13		 jne	 SHORT $LN131@Convert

; 585  : 	{
; 586  : 		if ( ItemLevel <= 2 )
; 587  : 		{
; 588  : 			m_RequireLevel = 20;

  00900	b8 14 00 00 00	 mov	 eax, 20			; 00000014H
  00905	83 ff 02	 cmp	 edi, 2
  00908	7e 05		 jle	 SHORT $LN518@Convert

; 589  : 		}
; 590  : 		else
; 591  : 		{
; 592  : 			m_RequireLevel = 50;

  0090a	b8 32 00 00 00	 mov	 eax, 50			; 00000032H
$LN518@Convert:
  0090f	66 89 46 58	 mov	 WORD PTR [esi+88], ax
$LN131@Convert:

; 593  : 		}
; 594  : 	}
; 595  : 
; 596  : 	if ( (Attribute2 & 0x3F) > 0 )

  00913	8b 45 18	 mov	 eax, DWORD PTR tv3483[ebp]
  00916	84 c0		 test	 al, al
  00918	74 1c		 je	 SHORT $LN134@Convert

; 597  : 	{
; 598  : 		if ( m_RequireLevel > 0 )

  0091a	0f b7 46 58	 movzx	 eax, WORD PTR [esi+88]
  0091e	66 85 c0	 test	 ax, ax
  00921	74 13		 je	 SHORT $LN134@Convert

; 599  : 		{
; 600  : 			if ( _type < ITEMGET(0,0) || _type >= ITEMGET(12,0) )

  00923	85 db		 test	 ebx, ebx
  00925	78 08		 js	 SHORT $LN135@Convert
  00927	81 fb 00 18 00
	00		 cmp	 ebx, 6144		; 00001800H
  0092d	7c 07		 jl	 SHORT $LN134@Convert
$LN135@Convert:

; 601  : 				m_RequireLevel += 20;

  0092f	83 c0 14	 add	 eax, 20			; 00000014H
  00932	66 89 46 58	 mov	 WORD PTR [esi+88], ax
$LN134@Convert:

; 602  : 		}
; 603  : 	}
; 604  : 
; 605  : 	if ( m_SetOption != 0 )

  00936	8a 8e aa 00 00
	00		 mov	 cl, BYTE PTR [esi+170]
  0093c	88 4d 1f	 mov	 BYTE PTR tv4604[ebp], cl
  0093f	84 c9		 test	 cl, cl
  00941	74 0f		 je	 SHORT $LN477@Convert

; 606  : 	{
; 607  : 		ItemLevel = p->Level + 30;

  00943	0f b6 82 22 00
	00 00		 movzx	 eax, BYTE PTR ?ItemAttribute@@3PAUITEM_ATTRIBUTE@@A[edx+34]
  0094a	83 c0 1e	 add	 eax, 30			; 0000001eH
  0094d	89 45 2c	 mov	 DWORD PTR _ItemLevel$1$[ebp], eax
  00950	eb 03		 jmp	 SHORT $LN136@Convert
$LN477@Convert:
  00952	8b 45 2c	 mov	 eax, DWORD PTR _ItemLevel$1$[ebp]
$LN136@Convert:

; 608  : 	}
; 609  : 	
; 610  : 	m_Leadership = 0;

  00955	33 ff		 xor	 edi, edi
  00957	66 89 7e 5e	 mov	 WORD PTR [esi+94], di

; 611  : 
; 612  : 	if ( m_DamageMax > 0 )

  0095b	0f b7 7e 12	 movzx	 edi, WORD PTR [esi+18]
  0095f	66 85 ff	 test	 di, di
  00962	0f 84 bc 00 00
	00		 je	 $LN14@Convert

; 613  : 	{
; 614  : 		if ( m_SetOption != 0 && ItemLevel != 0 )

  00968	84 c9		 test	 cl, cl
  0096a	74 36		 je	 SHORT $LN138@Convert
  0096c	85 c0		 test	 eax, eax
  0096e	74 32		 je	 SHORT $LN138@Convert

; 615  : 		{
; 616  : 			m_DamageMax += (m_DamageMin * 25) / p->Level + 5;

  00970	0f b7 46 10	 movzx	 eax, WORD PTR [esi+16]
  00974	0f b6 8a 22 00
	00 00		 movzx	 ecx, BYTE PTR ?ItemAttribute@@3PAUITEM_ATTRIBUTE@@A[edx+34]
  0097b	6b c0 19	 imul	 eax, eax, 25
  0097e	99		 cdq
  0097f	f7 f9		 idiv	 ecx
  00981	83 c0 05	 add	 eax, 5
  00984	03 c7		 add	 eax, edi
  00986	0f b7 c8	 movzx	 ecx, ax

; 617  : 			m_DamageMax += ItemLevel / 40 + 5;

  00989	b8 67 66 66 66	 mov	 eax, 1717986919		; 66666667H
  0098e	f7 6d 2c	 imul	 DWORD PTR _ItemLevel$1$[ebp]
  00991	c1 fa 04	 sar	 edx, 4
  00994	8b c2		 mov	 eax, edx
  00996	c1 e8 1f	 shr	 eax, 31			; 0000001fH
  00999	83 c0 05	 add	 eax, 5
  0099c	03 c2		 add	 eax, edx
  0099e	03 c1		 add	 eax, ecx

; 618  : 		}
; 619  : 		else

  009a0	eb 29		 jmp	 SHORT $LN519@Convert
$LN138@Convert:

; 620  : 		{
; 621  : 			if ( (Attribute2 & 0x3F)  > 0 )

  009a2	80 7d 18 00	 cmp	 BYTE PTR tv3483[ebp], 0
  009a6	76 27		 jbe	 SHORT $LN143@Convert

; 622  : 			{
; 623  : 				if ( iChaosItem != 0 )

  009a8	8b 45 28	 mov	 eax, DWORD PTR _iChaosItem$2$[ebp]
  009ab	85 c0		 test	 eax, eax
  009ad	75 1a		 jne	 SHORT $LN520@Convert

; 624  : 				{
; 625  : 					m_DamageMax += iChaosItem;
; 626  : 				}
; 627  : 				else if ( p->Level != 0 )

  009af	8a 8a 22 00 00
	00		 mov	 cl, BYTE PTR ?ItemAttribute@@3PAUITEM_ATTRIBUTE@@A[edx+34]
  009b5	84 c9		 test	 cl, cl
  009b7	74 16		 je	 SHORT $LN143@Convert

; 628  : 				{
; 629  : 					m_DamageMax += (m_DamageMin * 25) / p->Level + 5;

  009b9	0f b7 46 10	 movzx	 eax, WORD PTR [esi+16]
  009bd	6b c0 19	 imul	 eax, eax, 25
  009c0	0f b6 c9	 movzx	 ecx, cl
  009c3	99		 cdq
  009c4	f7 f9		 idiv	 ecx
  009c6	83 c0 05	 add	 eax, 5
$LN520@Convert:
  009c9	03 c7		 add	 eax, edi
$LN519@Convert:
  009cb	66 89 46 12	 mov	 WORD PTR [esi+18], ax
$LN143@Convert:

; 630  : 				}
; 631  : 			}
; 632  : 		}
; 633  : 
; 634  : /*		m_DamageMax += m_Level*3;
; 635  : 
; 636  : 		if( m_Level >= 10 )
; 637  : 		{
; 638  : 			m_DamageMax += (m_Level - 9) * (m_Level - 8) / 2;
; 639  : 		}*/
; 640  : 
; 641  : 		int tmpLevel = (m_Level>9) ? 9 : m_Level;

  009cf	0f b7 4e 08	 movzx	 ecx, WORD PTR [esi+8]
  009d3	b8 09 00 00 00	 mov	 eax, 9
  009d8	66 83 f9 09	 cmp	 cx, 9
  009dc	7f 03		 jg	 SHORT $LN411@Convert
  009de	0f bf c1	 movsx	 eax, cx
$LN411@Convert:

; 642  : 		m_DamageMax += tmpLevel*3;

  009e1	8d 04 40	 lea	 eax, DWORD PTR [eax+eax*2]
  009e4	66 03 46 12	 add	 ax, WORD PTR [esi+18]
  009e8	0f b7 d0	 movzx	 edx, ax

; 643  : 
; 644  : 		switch(m_Level-9)

  009eb	0f bf c1	 movsx	 eax, cx
  009ee	83 c0 f6	 add	 eax, -10		; fffffff6H
  009f1	66 89 56 12	 mov	 WORD PTR [esi+18], dx
  009f5	83 f8 05	 cmp	 eax, 5
  009f8	77 27		 ja	 SHORT $LN489@Convert
  009fa	ff 24 85 00 00
	00 00		 jmp	 DWORD PTR $LN541@Convert[eax*4]
$LN144@Convert:

; 645  : 		{
; 646  : 		case 6: m_DamageMax += 9;

  00a01	8d 42 09	 lea	 eax, DWORD PTR [edx+9]
  00a04	66 89 46 12	 mov	 WORD PTR [esi+18], ax
$LN145@Convert:

; 647  : 		case 5:	m_DamageMax += 8;

  00a08	66 83 46 12 08	 add	 WORD PTR [esi+18], 8
$LN146@Convert:

; 648  : 		case 4:	m_DamageMax += 7;

  00a0d	66 83 46 12 07	 add	 WORD PTR [esi+18], 7
$LN147@Convert:

; 649  : 		case 3:	m_DamageMax += 6;

  00a12	66 83 46 12 06	 add	 WORD PTR [esi+18], 6
$LN148@Convert:

; 650  : 		case 2:	m_DamageMax += 5;

  00a17	66 83 46 12 05	 add	 WORD PTR [esi+18], 5
$LN149@Convert:

; 651  : 		case 1:	m_DamageMax += 4;

  00a1c	66 83 46 12 04	 add	 WORD PTR [esi+18], 4
$LN489@Convert:
  00a21	8a 4d 1f	 mov	 cl, BYTE PTR tv4604[ebp]
$LN14@Convert:

; 652  : 		}
; 653  : 	}
; 654  : 
; 655  : 	if ( m_DamageMin > 0 )	

  00a24	0f b7 7e 10	 movzx	 edi, WORD PTR [esi+16]
  00a28	66 85 ff	 test	 di, di
  00a2b	0f 84 bd 00 00
	00		 je	 $LN16@Convert

; 656  : 	{
; 657  : 		if ( m_SetOption != 0 && ItemLevel != 0 )

  00a31	84 c9		 test	 cl, cl
  00a33	74 39		 je	 SHORT $LN151@Convert
  00a35	83 7d 2c 00	 cmp	 DWORD PTR _ItemLevel$1$[ebp], 0
  00a39	74 33		 je	 SHORT $LN151@Convert

; 658  : 		{
; 659  : 			m_DamageMin += (m_DamageMin * 25) / p->Level + 5;

  00a3b	8b 4d 08	 mov	 ecx, DWORD PTR tv4661[ebp]
  00a3e	8b c7		 mov	 eax, edi
  00a40	6b c0 19	 imul	 eax, eax, 25
  00a43	0f b6 89 22 00
	00 00		 movzx	 ecx, BYTE PTR ?ItemAttribute@@3PAUITEM_ATTRIBUTE@@A[ecx+34]
  00a4a	99		 cdq
  00a4b	f7 f9		 idiv	 ecx
  00a4d	83 c0 05	 add	 eax, 5
  00a50	03 c7		 add	 eax, edi
  00a52	0f b7 c8	 movzx	 ecx, ax

; 660  : 			m_DamageMin += ItemLevel / 40 + 5;

  00a55	b8 67 66 66 66	 mov	 eax, 1717986919		; 66666667H
  00a5a	f7 6d 2c	 imul	 DWORD PTR _ItemLevel$1$[ebp]
  00a5d	c1 fa 04	 sar	 edx, 4
  00a60	8b c2		 mov	 eax, edx
  00a62	c1 e8 1f	 shr	 eax, 31			; 0000001fH
  00a65	83 c0 05	 add	 eax, 5
  00a68	03 c2		 add	 eax, edx
  00a6a	03 c1		 add	 eax, ecx

; 661  : 		}
; 662  : 		else

  00a6c	eb 2a		 jmp	 SHORT $LN521@Convert
$LN151@Convert:

; 663  : 		{
; 664  : 			if ( (Attribute2 & 0x3F)  > 0 )

  00a6e	80 7d 18 00	 cmp	 BYTE PTR tv3483[ebp], 0
  00a72	76 28		 jbe	 SHORT $LN156@Convert

; 665  : 			{
; 666  : 				if ( iChaosItem != 0 )

  00a74	8b 45 28	 mov	 eax, DWORD PTR _iChaosItem$2$[ebp]
  00a77	85 c0		 test	 eax, eax
  00a79	75 1b		 jne	 SHORT $LN522@Convert

; 667  : 				{
; 668  : 					m_DamageMin += iChaosItem;
; 669  : 				}
; 670  : 				else if ( p->Level != 0 )

  00a7b	8b 45 08	 mov	 eax, DWORD PTR tv4661[ebp]
  00a7e	8a 88 22 00 00
	00		 mov	 cl, BYTE PTR ?ItemAttribute@@3PAUITEM_ATTRIBUTE@@A[eax+34]
  00a84	84 c9		 test	 cl, cl
  00a86	74 14		 je	 SHORT $LN156@Convert

; 671  : 				{
; 672  : 					m_DamageMin += (m_DamageMin * 25) / p->Level + 5;

  00a88	8b c7		 mov	 eax, edi
  00a8a	0f b6 c9	 movzx	 ecx, cl
  00a8d	6b c0 19	 imul	 eax, eax, 25
  00a90	99		 cdq
  00a91	f7 f9		 idiv	 ecx
  00a93	83 c0 05	 add	 eax, 5
$LN522@Convert:
  00a96	03 c7		 add	 eax, edi
$LN521@Convert:
  00a98	66 89 46 10	 mov	 WORD PTR [esi+16], ax
$LN156@Convert:

; 673  : 				}
; 674  : 			}
; 675  : 		}
; 676  : 
; 677  : 		/*m_DamageMin += m_Level* 3;
; 678  : 
; 679  : 		if( m_Level >= 10 )
; 680  : 		{
; 681  : 			m_DamageMin += (m_Level - 9) * (m_Level - 8) / 2;
; 682  : 		}*/
; 683  : 		int tmpLevel = (m_Level>9) ? 9 : m_Level;

  00a9c	0f b7 4e 08	 movzx	 ecx, WORD PTR [esi+8]
  00aa0	b8 09 00 00 00	 mov	 eax, 9
  00aa5	66 83 f9 09	 cmp	 cx, 9
  00aa9	7f 03		 jg	 SHORT $LN413@Convert
  00aab	0f bf c1	 movsx	 eax, cx
$LN413@Convert:

; 684  : 		m_DamageMin += tmpLevel*3;

  00aae	8d 04 40	 lea	 eax, DWORD PTR [eax+eax*2]
  00ab1	66 03 46 10	 add	 ax, WORD PTR [esi+16]
  00ab5	0f b7 d0	 movzx	 edx, ax

; 685  : 
; 686  : 		switch(m_Level-9)

  00ab8	0f bf c1	 movsx	 eax, cx
  00abb	83 c0 f6	 add	 eax, -10		; fffffff6H
  00abe	66 89 56 10	 mov	 WORD PTR [esi+16], dx
  00ac2	83 f8 05	 cmp	 eax, 5
  00ac5	77 27		 ja	 SHORT $LN16@Convert
  00ac7	ff 24 85 00 00
	00 00		 jmp	 DWORD PTR $LN542@Convert[eax*4]
$LN157@Convert:

; 687  : 		{
; 688  : 		case 6: m_DamageMin += 9;

  00ace	8d 42 09	 lea	 eax, DWORD PTR [edx+9]
  00ad1	66 89 46 10	 mov	 WORD PTR [esi+16], ax
$LN158@Convert:

; 689  : 		case 5:	m_DamageMin += 8;

  00ad5	66 83 46 10 08	 add	 WORD PTR [esi+16], 8
$LN159@Convert:

; 690  : 		case 4:	m_DamageMin += 7;

  00ada	66 83 46 10 07	 add	 WORD PTR [esi+16], 7
$LN160@Convert:

; 691  : 		case 3:	m_DamageMin += 6;

  00adf	66 83 46 10 06	 add	 WORD PTR [esi+16], 6
$LN161@Convert:

; 692  : 		case 2:	m_DamageMin += 5;

  00ae4	66 83 46 10 05	 add	 WORD PTR [esi+16], 5
$LN162@Convert:

; 693  : 		case 1:	m_DamageMin += 4;

  00ae9	66 83 46 10 04	 add	 WORD PTR [esi+16], 4
$LN16@Convert:

; 694  : 		}
; 695  : 	}
; 696  : 
; 697  : 	if ( m_Magic > 0 )	

  00aee	0f b7 7e 20	 movzx	 edi, WORD PTR [esi+32]
  00af2	66 85 ff	 test	 di, di
  00af5	0f 84 c2 00 00
	00		 je	 $LN18@Convert

; 698  : 	{
; 699  : 		if ( m_SetOption != 0 && ItemLevel != 0 )

  00afb	80 7d 1f 00	 cmp	 BYTE PTR tv4604[ebp], 0
  00aff	74 3c		 je	 SHORT $LN164@Convert
  00b01	83 7d 2c 00	 cmp	 DWORD PTR _ItemLevel$1$[ebp], 0
  00b05	74 36		 je	 SHORT $LN164@Convert

; 700  : 		{
; 701  : 			m_Magic += (m_Magic * 25) / p->Level + 5;

  00b07	8b 4d 08	 mov	 ecx, DWORD PTR tv4661[ebp]
  00b0a	8b c7		 mov	 eax, edi
  00b0c	6b c0 19	 imul	 eax, eax, 25
  00b0f	0f b6 89 22 00
	00 00		 movzx	 ecx, BYTE PTR ?ItemAttribute@@3PAUITEM_ATTRIBUTE@@A[ecx+34]
  00b16	99		 cdq
  00b17	f7 f9		 idiv	 ecx
  00b19	83 c0 05	 add	 eax, 5
  00b1c	03 c7		 add	 eax, edi
  00b1e	0f b7 c8	 movzx	 ecx, ax

; 702  : 			m_Magic += ItemLevel / 60 + 2;

  00b21	b8 89 88 88 88	 mov	 eax, -2004318071	; 88888889H
  00b26	f7 6d 2c	 imul	 DWORD PTR _ItemLevel$1$[ebp]
  00b29	03 55 2c	 add	 edx, DWORD PTR _ItemLevel$1$[ebp]
  00b2c	c1 fa 05	 sar	 edx, 5
  00b2f	8b c2		 mov	 eax, edx
  00b31	c1 e8 1f	 shr	 eax, 31			; 0000001fH
  00b34	83 c0 02	 add	 eax, 2
  00b37	03 c2		 add	 eax, edx
  00b39	03 c1		 add	 eax, ecx

; 703  : 		}
; 704  : 		else

  00b3b	eb 2a		 jmp	 SHORT $LN523@Convert
$LN164@Convert:

; 705  : 		{
; 706  : 			if ( (Attribute2 & 0x3F)  > 0 )

  00b3d	80 7d 18 00	 cmp	 BYTE PTR tv3483[ebp], 0
  00b41	76 28		 jbe	 SHORT $LN169@Convert

; 707  : 			{
; 708  : 				if ( iChaosItem != 0 )

  00b43	8b 45 28	 mov	 eax, DWORD PTR _iChaosItem$2$[ebp]
  00b46	85 c0		 test	 eax, eax
  00b48	75 1b		 jne	 SHORT $LN524@Convert

; 709  : 				{
; 710  : 					m_Magic += iChaosItem;
; 711  : 				}
; 712  : 				else if ( p->Level != 0 )

  00b4a	8b 45 08	 mov	 eax, DWORD PTR tv4661[ebp]
  00b4d	8a 88 22 00 00
	00		 mov	 cl, BYTE PTR ?ItemAttribute@@3PAUITEM_ATTRIBUTE@@A[eax+34]
  00b53	84 c9		 test	 cl, cl
  00b55	74 14		 je	 SHORT $LN169@Convert

; 713  : 				{
; 714  : 					m_Magic += (m_Magic * 25) / p->Level + 5;

  00b57	8b c7		 mov	 eax, edi
  00b59	0f b6 c9	 movzx	 ecx, cl
  00b5c	6b c0 19	 imul	 eax, eax, 25
  00b5f	99		 cdq
  00b60	f7 f9		 idiv	 ecx
  00b62	83 c0 05	 add	 eax, 5
$LN524@Convert:
  00b65	03 c7		 add	 eax, edi
$LN523@Convert:
  00b67	66 89 46 20	 mov	 WORD PTR [esi+32], ax
$LN169@Convert:

; 715  : 				}
; 716  : 			}
; 717  : 		}
; 718  : 
; 719  : 		/*m_Magic += m_Level* 3;
; 720  : 
; 721  : 		if( m_Level >= 10 )
; 722  : 		{
; 723  : 			m_Magic += (m_Level - 9) * (m_Level - 8) / 2;
; 724  : 		}*/
; 725  : 
; 726  : 		int tmpLevel = (m_Level>9) ? 9 : m_Level;

  00b6b	0f b7 4e 08	 movzx	 ecx, WORD PTR [esi+8]
  00b6f	b8 09 00 00 00	 mov	 eax, 9
  00b74	66 83 f9 09	 cmp	 cx, 9
  00b78	7f 03		 jg	 SHORT $LN415@Convert
  00b7a	0f bf c1	 movsx	 eax, cx
$LN415@Convert:

; 727  : 		m_Magic += tmpLevel*3;

  00b7d	8d 04 40	 lea	 eax, DWORD PTR [eax+eax*2]
  00b80	66 03 46 20	 add	 ax, WORD PTR [esi+32]
  00b84	0f b7 d0	 movzx	 edx, ax

; 728  : 
; 729  : 		switch(m_Level-9)

  00b87	0f bf c1	 movsx	 eax, cx
  00b8a	83 c0 f6	 add	 eax, -10		; fffffff6H
  00b8d	66 89 56 20	 mov	 WORD PTR [esi+32], dx
  00b91	83 f8 05	 cmp	 eax, 5
  00b94	77 27		 ja	 SHORT $LN18@Convert
  00b96	ff 24 85 00 00
	00 00		 jmp	 DWORD PTR $LN543@Convert[eax*4]
$LN170@Convert:

; 730  : 		{
; 731  : 		case 6: m_Magic += 9;

  00b9d	8d 42 09	 lea	 eax, DWORD PTR [edx+9]
  00ba0	66 89 46 20	 mov	 WORD PTR [esi+32], ax
$LN171@Convert:

; 732  : 		case 5:	m_Magic += 8;

  00ba4	66 83 46 20 08	 add	 WORD PTR [esi+32], 8
$LN172@Convert:

; 733  : 		case 4:	m_Magic += 7;

  00ba9	66 83 46 20 07	 add	 WORD PTR [esi+32], 7
$LN173@Convert:

; 734  : 		case 3:	m_Magic += 6;

  00bae	66 83 46 20 06	 add	 WORD PTR [esi+32], 6
$LN174@Convert:

; 735  : 		case 2:	m_Magic += 5;

  00bb3	66 83 46 20 05	 add	 WORD PTR [esi+32], 5
$LN175@Convert:

; 736  : 		case 1:	m_Magic += 4;

  00bb8	66 83 46 20 04	 add	 WORD PTR [esi+32], 4
$LN18@Convert:

; 737  : 		}
; 738  : 	}
; 739  : 
; 740  : 	if ( m_CurseMagic > 0 )

  00bbd	0f b7 7e 22	 movzx	 edi, WORD PTR [esi+34]
  00bc1	66 85 ff	 test	 di, di
  00bc4	0f 84 c2 00 00
	00		 je	 $LN20@Convert

; 741  : 	{
; 742  : 		if ( m_SetOption != 0 && ItemLevel != 0 )

  00bca	80 7d 1f 00	 cmp	 BYTE PTR tv4604[ebp], 0
  00bce	74 3c		 je	 SHORT $LN177@Convert
  00bd0	83 7d 2c 00	 cmp	 DWORD PTR _ItemLevel$1$[ebp], 0
  00bd4	74 36		 je	 SHORT $LN177@Convert

; 743  : 		{
; 744  : 			m_CurseMagic += (m_CurseMagic * 25) / p->Level + 5;

  00bd6	8b 4d 08	 mov	 ecx, DWORD PTR tv4661[ebp]
  00bd9	8b c7		 mov	 eax, edi
  00bdb	6b c0 19	 imul	 eax, eax, 25
  00bde	0f b6 89 22 00
	00 00		 movzx	 ecx, BYTE PTR ?ItemAttribute@@3PAUITEM_ATTRIBUTE@@A[ecx+34]
  00be5	99		 cdq
  00be6	f7 f9		 idiv	 ecx
  00be8	83 c0 05	 add	 eax, 5
  00beb	03 c7		 add	 eax, edi
  00bed	0f b7 c8	 movzx	 ecx, ax

; 745  : 			m_CurseMagic += ItemLevel / 60 + 2;

  00bf0	b8 89 88 88 88	 mov	 eax, -2004318071	; 88888889H
  00bf5	f7 6d 2c	 imul	 DWORD PTR _ItemLevel$1$[ebp]
  00bf8	03 55 2c	 add	 edx, DWORD PTR _ItemLevel$1$[ebp]
  00bfb	c1 fa 05	 sar	 edx, 5
  00bfe	8b c2		 mov	 eax, edx
  00c00	c1 e8 1f	 shr	 eax, 31			; 0000001fH
  00c03	83 c0 02	 add	 eax, 2
  00c06	03 c2		 add	 eax, edx
  00c08	03 c1		 add	 eax, ecx

; 746  : 		}
; 747  : 		else

  00c0a	eb 2a		 jmp	 SHORT $LN525@Convert
$LN177@Convert:

; 748  : 		{
; 749  : 			if ( (Attribute2 & 0x3F)  > 0 )

  00c0c	80 7d 18 00	 cmp	 BYTE PTR tv3483[ebp], 0
  00c10	76 28		 jbe	 SHORT $LN182@Convert

; 750  : 			{
; 751  : 				if ( iChaosItem != 0 )

  00c12	8b 45 28	 mov	 eax, DWORD PTR _iChaosItem$2$[ebp]
  00c15	85 c0		 test	 eax, eax
  00c17	75 1b		 jne	 SHORT $LN526@Convert

; 752  : 				{
; 753  : 					m_CurseMagic += iChaosItem;
; 754  : 				}
; 755  : 				else if ( p->Level != 0 )

  00c19	8b 45 08	 mov	 eax, DWORD PTR tv4661[ebp]
  00c1c	8a 88 22 00 00
	00		 mov	 cl, BYTE PTR ?ItemAttribute@@3PAUITEM_ATTRIBUTE@@A[eax+34]
  00c22	84 c9		 test	 cl, cl
  00c24	74 14		 je	 SHORT $LN182@Convert

; 756  : 				{
; 757  : 					m_CurseMagic += (m_CurseMagic * 25) / p->Level + 5;

  00c26	8b c7		 mov	 eax, edi
  00c28	0f b6 c9	 movzx	 ecx, cl
  00c2b	6b c0 19	 imul	 eax, eax, 25
  00c2e	99		 cdq
  00c2f	f7 f9		 idiv	 ecx
  00c31	83 c0 05	 add	 eax, 5
$LN526@Convert:
  00c34	03 c7		 add	 eax, edi
$LN525@Convert:
  00c36	66 89 46 22	 mov	 WORD PTR [esi+34], ax
$LN182@Convert:

; 758  : 				}
; 759  : 			}
; 760  : 		}
; 761  : 
; 762  : 		/*m_CurseMagic += m_Level* 3;
; 763  : 
; 764  : 		if( m_Level >= 10 )
; 765  : 		{
; 766  : 			m_CurseMagic += (m_Level - 9) * (m_Level - 8) / 2;
; 767  : 		}*/
; 768  : 		int tmpLevel = (m_Level>9) ? 9 : m_Level;

  00c3a	0f b7 4e 08	 movzx	 ecx, WORD PTR [esi+8]
  00c3e	b8 09 00 00 00	 mov	 eax, 9
  00c43	66 83 f9 09	 cmp	 cx, 9
  00c47	7f 03		 jg	 SHORT $LN417@Convert
  00c49	0f bf c1	 movsx	 eax, cx
$LN417@Convert:

; 769  : 		m_CurseMagic += tmpLevel*3;

  00c4c	8d 04 40	 lea	 eax, DWORD PTR [eax+eax*2]
  00c4f	66 03 46 22	 add	 ax, WORD PTR [esi+34]
  00c53	0f b7 d0	 movzx	 edx, ax

; 770  : 
; 771  : 		switch(m_Level-9)

  00c56	0f bf c1	 movsx	 eax, cx
  00c59	83 c0 f6	 add	 eax, -10		; fffffff6H
  00c5c	66 89 56 22	 mov	 WORD PTR [esi+34], dx
  00c60	83 f8 05	 cmp	 eax, 5
  00c63	77 27		 ja	 SHORT $LN20@Convert
  00c65	ff 24 85 00 00
	00 00		 jmp	 DWORD PTR $LN544@Convert[eax*4]
$LN183@Convert:

; 772  : 		{
; 773  : 		case 6: m_CurseMagic += 9;

  00c6c	8d 42 09	 lea	 eax, DWORD PTR [edx+9]
  00c6f	66 89 46 22	 mov	 WORD PTR [esi+34], ax
$LN184@Convert:

; 774  : 		case 5:	m_CurseMagic += 8;

  00c73	66 83 46 22 08	 add	 WORD PTR [esi+34], 8
$LN185@Convert:

; 775  : 		case 4:	m_CurseMagic += 7;

  00c78	66 83 46 22 07	 add	 WORD PTR [esi+34], 7
$LN186@Convert:

; 776  : 		case 3:	m_CurseMagic += 6;

  00c7d	66 83 46 22 06	 add	 WORD PTR [esi+34], 6
$LN187@Convert:

; 777  : 		case 2:	m_CurseMagic += 5;

  00c82	66 83 46 22 05	 add	 WORD PTR [esi+34], 5
$LN188@Convert:

; 778  : 		case 1:	m_CurseMagic += 4;

  00c87	66 83 46 22 04	 add	 WORD PTR [esi+34], 4
$LN20@Convert:

; 779  : 		}
; 780  : 	}
; 781  : 
; 782  : 	if ( p->SuccessfulBlocking > 0 )	

  00c8c	8b 4d 08	 mov	 ecx, DWORD PTR tv4661[ebp]
  00c8f	80 b9 2c 00 00
	00 00		 cmp	 BYTE PTR ?ItemAttribute@@3PAUITEM_ATTRIBUTE@@A[ecx+44], 0
  00c96	0f 86 b5 00 00
	00		 jbe	 $LN22@Convert

; 783  : 	{
; 784  : 		if ( m_SetOption != 0 && ItemLevel != 0 )

  00c9c	80 7d 1f 00	 cmp	 BYTE PTR tv4604[ebp], 0
  00ca0	74 38		 je	 SHORT $LN190@Convert
  00ca2	8b 7d 2c	 mov	 edi, DWORD PTR _ItemLevel$1$[ebp]
  00ca5	85 ff		 test	 edi, edi
  00ca7	74 31		 je	 SHORT $LN190@Convert

; 785  : 		{
; 786  : 			m_SuccessfulBlocking += (m_SuccessfulBlocking * 25) / p->Level + 5;

  00ca9	8a 5e 14	 mov	 bl, BYTE PTR [esi+20]
  00cac	0f b6 89 22 00
	00 00		 movzx	 ecx, BYTE PTR ?ItemAttribute@@3PAUITEM_ATTRIBUTE@@A[ecx+34]
  00cb3	0f b6 c3	 movzx	 eax, bl
  00cb6	80 c3 05	 add	 bl, 5
  00cb9	6b c0 19	 imul	 eax, eax, 25
  00cbc	99		 cdq
  00cbd	f7 f9		 idiv	 ecx
  00cbf	8b c8		 mov	 ecx, eax

; 787  : 			m_SuccessfulBlocking += ItemLevel / 40 + 5;

  00cc1	b8 67 66 66 66	 mov	 eax, 1717986919		; 66666667H
  00cc6	f7 ef		 imul	 edi
  00cc8	02 cb		 add	 cl, bl
  00cca	c1 fa 04	 sar	 edx, 4
  00ccd	8b c2		 mov	 eax, edx
  00ccf	c1 e8 1f	 shr	 eax, 31			; 0000001fH
  00cd2	03 c2		 add	 eax, edx
  00cd4	04 05		 add	 al, 5
  00cd6	02 c1		 add	 al, cl

; 788  : 		}
; 789  : 		else

  00cd8	eb 24		 jmp	 SHORT $LN527@Convert
$LN190@Convert:

; 790  : 		{
; 791  : 			if ( (Attribute2 & 0x3F)  > 0 )

  00cda	80 7d 18 00	 cmp	 BYTE PTR tv3483[ebp], 0
  00cde	76 24		 jbe	 SHORT $LN193@Convert

; 792  : 			{
; 793  : 				if ( p->Level != 0 )

  00ce0	8a 89 22 00 00
	00		 mov	 cl, BYTE PTR ?ItemAttribute@@3PAUITEM_ATTRIBUTE@@A[ecx+34]
  00ce6	84 c9		 test	 cl, cl
  00ce8	74 1a		 je	 SHORT $LN193@Convert

; 794  : 				{
; 795  : 					m_SuccessfulBlocking += (m_SuccessfulBlocking * 25) / p->Level + 5;

  00cea	8a 5e 14	 mov	 bl, BYTE PTR [esi+20]
  00ced	0f b6 c3	 movzx	 eax, bl
  00cf0	80 c3 05	 add	 bl, 5
  00cf3	6b c0 19	 imul	 eax, eax, 25
  00cf6	0f b6 c9	 movzx	 ecx, cl
  00cf9	99		 cdq
  00cfa	f7 f9		 idiv	 ecx
  00cfc	02 c3		 add	 al, bl
$LN527@Convert:
  00cfe	8b 5d fc	 mov	 ebx, DWORD PTR __type$1$[ebp]
  00d01	88 46 14	 mov	 BYTE PTR [esi+20], al
$LN193@Convert:

; 796  : 				}
; 797  : 			}
; 798  : 		}
; 799  : 
; 800  : 		/*m_SuccessfulBlocking += m_Level* 3;
; 801  : 
; 802  : 		if ( m_Level >= 10 )
; 803  : 		{
; 804  : 			m_SuccessfulBlocking += (m_Level - 9) * (m_Level - 8) / 2;
; 805  : 		}*/
; 806  : 
; 807  : 		int tmpLevel = (m_Level>9) ? 9 : m_Level;

  00d04	0f b7 56 08	 movzx	 edx, WORD PTR [esi+8]
  00d08	b8 09 00 00 00	 mov	 eax, 9
  00d0d	66 83 fa 09	 cmp	 dx, 9
  00d11	7f 03		 jg	 SHORT $LN419@Convert
  00d13	0f bf c2	 movsx	 eax, dx
$LN419@Convert:

; 808  : 		m_SuccessfulBlocking += tmpLevel*3;

  00d16	8a c8		 mov	 cl, al
  00d18	02 c0		 add	 al, al
  00d1a	02 c8		 add	 cl, al

; 809  : 
; 810  : 		switch(m_Level-9)

  00d1c	0f bf c2	 movsx	 eax, dx
  00d1f	02 4e 14	 add	 cl, BYTE PTR [esi+20]
  00d22	83 c0 f6	 add	 eax, -10		; fffffff6H
  00d25	88 4e 14	 mov	 BYTE PTR [esi+20], cl
  00d28	83 f8 05	 cmp	 eax, 5
  00d2b	77 21		 ja	 SHORT $LN487@Convert
  00d2d	ff 24 85 00 00
	00 00		 jmp	 DWORD PTR $LN545@Convert[eax*4]
$LN194@Convert:

; 811  : 		{
; 812  : 		case 6: m_SuccessfulBlocking += 9;

  00d34	80 c1 09	 add	 cl, 9
  00d37	88 4e 14	 mov	 BYTE PTR [esi+20], cl
$LN195@Convert:

; 813  : 		case 5:	m_SuccessfulBlocking += 8;

  00d3a	80 46 14 08	 add	 BYTE PTR [esi+20], 8
$LN196@Convert:

; 814  : 		case 4:	m_SuccessfulBlocking += 7;

  00d3e	80 46 14 07	 add	 BYTE PTR [esi+20], 7
$LN197@Convert:

; 815  : 		case 3:	m_SuccessfulBlocking += 6;

  00d42	80 46 14 06	 add	 BYTE PTR [esi+20], 6
$LN198@Convert:

; 816  : 		case 2:	m_SuccessfulBlocking += 5;

  00d46	80 46 14 05	 add	 BYTE PTR [esi+20], 5
$LN199@Convert:

; 817  : 		case 1:	m_SuccessfulBlocking += 4;

  00d4a	80 46 14 04	 add	 BYTE PTR [esi+20], 4
$LN487@Convert:
  00d4e	8b 4d 08	 mov	 ecx, DWORD PTR tv4661[ebp]
$LN22@Convert:

; 818  : 		}
; 819  : 	}
; 820  : 
; 821  : 	if ( p->Defense > 0 )	

  00d51	80 b9 2d 00 00
	00 00		 cmp	 BYTE PTR ?ItemAttribute@@3PAUITEM_ATTRIBUTE@@A[ecx+45], 0
  00d58	0f 86 18 02 00
	00		 jbe	 $LN24@Convert

; 822  : 	{
; 823  : 		if ( m_Type >= ITEMGET(6,0) && m_Type < ITEMGET(7,0) )

  00d5e	0f b7 46 06	 movzx	 eax, WORD PTR [esi+6]
  00d62	ba 00 0c 00 00	 mov	 edx, 3072		; 00000c00H
  00d67	66 3b c2	 cmp	 ax, dx
  00d6a	7c 47		 jl	 SHORT $LN201@Convert
  00d6c	ba 00 0e 00 00	 mov	 edx, 3584		; 00000e00H
  00d71	66 3b c2	 cmp	 ax, dx
  00d74	7d 3d		 jge	 SHORT $LN201@Convert

; 824  : 		{
; 825  : 			m_Defense += m_Level;

  00d76	66 8b 46 08	 mov	 ax, WORD PTR [esi+8]
  00d7a	66 03 46 16	 add	 ax, WORD PTR [esi+22]

; 826  : 
; 827  : 			if ( m_SetOption != 0 && ItemLevel != 0 )

  00d7e	80 7d 1f 00	 cmp	 BYTE PTR tv4604[ebp], 0
  00d82	0f b7 c8	 movzx	 ecx, ax
  00d85	66 89 4e 16	 mov	 WORD PTR [esi+22], cx
  00d89	0f 84 e4 01 00
	00		 je	 $LN485@Convert
  00d8f	8b 7d 2c	 mov	 edi, DWORD PTR _ItemLevel$1$[ebp]
  00d92	85 ff		 test	 edi, edi
  00d94	0f 84 d9 01 00
	00		 je	 $LN485@Convert

; 828  : 			{
; 829  : 				m_Defense += (m_Defense * 20) / ItemLevel + 2;

  00d9a	8b c1		 mov	 eax, ecx
  00d9c	83 c1 02	 add	 ecx, 2
  00d9f	8d 04 80	 lea	 eax, DWORD PTR [eax+eax*4]
  00da2	c1 e0 02	 shl	 eax, 2
  00da5	99		 cdq
  00da6	f7 ff		 idiv	 edi
  00da8	03 c1		 add	 eax, ecx
  00daa	66 89 46 16	 mov	 WORD PTR [esi+22], ax

; 830  : 			}
; 831  : 		}
; 832  : 		else 

  00dae	e9 c0 01 00 00	 jmp	 $LN485@Convert
$LN201@Convert:

; 833  : 		{
; 834  : 			if ( m_SetOption != 0 && ItemLevel != 0 )

  00db3	80 7d 1f 00	 cmp	 BYTE PTR tv4604[ebp], 0
  00db7	74 61		 je	 SHORT $LN204@Convert
  00db9	83 7d 2c 00	 cmp	 DWORD PTR _ItemLevel$1$[ebp], 0
  00dbd	74 5b		 je	 SHORT $LN204@Convert

; 835  : 			{
; 836  : 				m_Defense += (m_Defense * 12) / p->Level + (p->Level / 5 ) + 4;

  00dbf	0f b6 b9 22 00
	00 00		 movzx	 edi, BYTE PTR ?ItemAttribute@@3PAUITEM_ATTRIBUTE@@A[ecx+34]
  00dc6	0f b7 5e 16	 movzx	 ebx, WORD PTR [esi+22]
  00dca	8b cb		 mov	 ecx, ebx
  00dcc	83 c3 04	 add	 ebx, 4
  00dcf	8d 04 49	 lea	 eax, DWORD PTR [ecx+ecx*2]
  00dd2	c1 e0 02	 shl	 eax, 2
  00dd5	99		 cdq
  00dd6	f7 ff		 idiv	 edi
  00dd8	8b f0		 mov	 esi, eax
  00dda	b8 67 66 66 66	 mov	 eax, 1717986919		; 66666667H
  00ddf	f7 ef		 imul	 edi
  00de1	03 f3		 add	 esi, ebx

; 837  : 				m_Defense += (m_Defense * 3) / ItemLevel  + ( ItemLevel / 30 ) + 2;

  00de3	8b 5d fc	 mov	 ebx, DWORD PTR __type$1$[ebp]
  00de6	d1 fa		 sar	 edx, 1
  00de8	8b ca		 mov	 ecx, edx
  00dea	c1 e9 1f	 shr	 ecx, 31			; 0000001fH
  00ded	03 ca		 add	 ecx, edx
  00def	03 ce		 add	 ecx, esi
  00df1	0f b7 f9	 movzx	 edi, cx
  00df4	8b cf		 mov	 ecx, edi
  00df6	8d 04 49	 lea	 eax, DWORD PTR [ecx+ecx*2]
  00df9	8b 4d 2c	 mov	 ecx, DWORD PTR _ItemLevel$1$[ebp]
  00dfc	99		 cdq
  00dfd	f7 f9		 idiv	 ecx
  00dff	8b f0		 mov	 esi, eax
  00e01	b8 89 88 88 88	 mov	 eax, -2004318071	; 88888889H
  00e06	f7 e9		 imul	 ecx
  00e08	8d 04 37	 lea	 eax, DWORD PTR [edi+esi]
  00e0b	03 d1		 add	 edx, ecx
  00e0d	c1 fa 04	 sar	 edx, 4
  00e10	8b ca		 mov	 ecx, edx
  00e12	c1 e9 1f	 shr	 ecx, 31			; 0000001fH
  00e15	83 c1 02	 add	 ecx, 2
  00e18	eb 37		 jmp	 SHORT $LN528@Convert
$LN204@Convert:

; 838  : 			}
; 839  : 			else if ( (Attribute2 & 0x3F) > 0 )

  00e1a	80 7d 18 00	 cmp	 BYTE PTR tv3483[ebp], 0
  00e1e	76 3c		 jbe	 SHORT $LN207@Convert

; 840  : 			{
; 841  : 				if ( p->Level != 0 )

  00e20	8a 81 22 00 00
	00		 mov	 al, BYTE PTR ?ItemAttribute@@3PAUITEM_ATTRIBUTE@@A[ecx+34]
  00e26	84 c0		 test	 al, al
  00e28	74 32		 je	 SHORT $LN207@Convert

; 842  : 				{
; 843  : 					m_Defense += (m_Defense * 12) / p->Level + (p->Level / 5 ) + 4;

  00e2a	0f b7 7e 16	 movzx	 edi, WORD PTR [esi+22]
  00e2e	0f b6 c8	 movzx	 ecx, al
  00e31	8b c7		 mov	 eax, edi
  00e33	8d 04 40	 lea	 eax, DWORD PTR [eax+eax*2]
  00e36	c1 e0 02	 shl	 eax, 2
  00e39	99		 cdq
  00e3a	f7 f9		 idiv	 ecx
  00e3c	8b f0		 mov	 esi, eax
  00e3e	b8 67 66 66 66	 mov	 eax, 1717986919		; 66666667H
  00e43	f7 e9		 imul	 ecx
  00e45	8d 47 04	 lea	 eax, DWORD PTR [edi+4]
  00e48	d1 fa		 sar	 edx, 1
  00e4a	8b ca		 mov	 ecx, edx
  00e4c	c1 e9 1f	 shr	 ecx, 31			; 0000001fH
  00e4f	03 c6		 add	 eax, esi
$LN528@Convert:
  00e51	8b 75 f8	 mov	 esi, DWORD PTR _this$1$[ebp]
  00e54	03 ca		 add	 ecx, edx
  00e56	03 c1		 add	 eax, ecx
  00e58	66 89 46 16	 mov	 WORD PTR [esi+22], ax
$LN207@Convert:

; 844  : 				}
; 845  : 			}
; 846  : 
; 847  : 			if ( (_type >= ITEMGET(12,3) && _type <= ITEMGET(12,6)) ||
; 848  : 				 _type == ITEMGET(12,42) ||

  00e5c	81 fb 03 18 00
	00		 cmp	 ebx, 6147		; 00001803H
  00e62	7c 08		 jl	 SHORT $LN211@Convert
  00e64	81 fb 06 18 00
	00		 cmp	 ebx, 6150		; 00001806H
  00e6a	7e 6e		 jle	 SHORT $LN210@Convert
$LN211@Convert:
  00e6c	81 fb 2a 18 00
	00		 cmp	 ebx, 6186		; 0000182aH
  00e72	74 66		 je	 SHORT $LN210@Convert
  00e74	81 fb 04 1a 00
	00		 cmp	 ebx, 6660		; 00001a04H
  00e7a	74 5e		 je	 SHORT $LN210@Convert

; 853  : 			}
; 854  : 			else if( _type == ITEMGET(13,30) ||	_type == ITEMGET(12,49) )

  00e7c	81 fb 1e 1a 00
	00		 cmp	 ebx, 6686		; 00001a1eH
  00e82	74 56		 je	 SHORT $LN210@Convert
  00e84	81 fb 31 18 00
	00		 cmp	 ebx, 6193		; 00001831H
  00e8a	74 4e		 je	 SHORT $LN210@Convert

; 855  : 			{
; 856  : 				int tmpLevel = (m_Level>9) ? 9 : m_Level;
; 857  : 				m_Defense += tmpLevel*2;
; 858  : 			}
; 859  : 			else if ( (_type >= ITEMGET(12,36) && _type <= ITEMGET(12,40)) || _type == ITEMGET(12,43) || _type == ITEMGET(12,50) )

  00e8c	81 fb 24 18 00
	00		 cmp	 ebx, 6180		; 00001824H
  00e92	7c 08		 jl	 SHORT $LN218@Convert
  00e94	81 fb 28 18 00
	00		 cmp	 ebx, 6184		; 00001828H
  00e9a	7e 27		 jle	 SHORT $LN217@Convert
$LN218@Convert:
  00e9c	81 fb 2b 18 00
	00		 cmp	 ebx, 6187		; 0000182bH
  00ea2	74 1f		 je	 SHORT $LN217@Convert
  00ea4	81 fb 32 18 00
	00		 cmp	 ebx, 6194		; 00001832H
  00eaa	74 17		 je	 SHORT $LN217@Convert

; 872  : 			{
; 873  : 				int tmpLevel = (m_Level>9) ? 9 : m_Level;

  00eac	0f b7 4e 08	 movzx	 ecx, WORD PTR [esi+8]
  00eb0	b8 09 00 00 00	 mov	 eax, 9
  00eb5	66 83 f9 09	 cmp	 cx, 9
  00eb9	7f 03		 jg	 SHORT $LN427@Convert
  00ebb	0f bf c1	 movsx	 eax, cx
$LN427@Convert:

; 874  : 				m_Defense += tmpLevel*3;

  00ebe	8d 04 40	 lea	 eax, DWORD PTR [eax+eax*2]
  00ec1	eb 2a		 jmp	 SHORT $LN529@Convert
$LN217@Convert:

; 860  : 			{
; 861  : 				int tmpLevel = (m_Level>9) ? 9 : m_Level;

  00ec3	0f b7 4e 08	 movzx	 ecx, WORD PTR [esi+8]
  00ec7	b8 09 00 00 00	 mov	 eax, 9
  00ecc	66 83 f9 09	 cmp	 cx, 9
  00ed0	7f 03		 jg	 SHORT $LN425@Convert
  00ed2	0f bf c1	 movsx	 eax, cx
$LN425@Convert:

; 862  : 				m_Defense += tmpLevel*4;

  00ed5	c1 e0 02	 shl	 eax, 2

; 863  : 			}
; 864  : #if (CUSTOM_WINGS == 1)
; 865  : 			else if ( _type >= ITEMGET(12,440) && _type <= ITEMGET(12,445) )
; 866  : 			{
; 867  : 				int tmpLevel = (m_Level>9) ? 9 : m_Level;
; 868  : 				m_Defense += tmpLevel*5;
; 869  : 			}
; 870  : #endif
; 871  : 			else

  00ed8	eb 13		 jmp	 SHORT $LN529@Convert
$LN210@Convert:

; 849  : 				 _type == ITEMGET(13,4) )
; 850  : 			{
; 851  : 				int tmpLevel = (m_Level>9) ? 9 : m_Level;

  00eda	0f b7 4e 08	 movzx	 ecx, WORD PTR [esi+8]
  00ede	b8 09 00 00 00	 mov	 eax, 9
  00ee3	66 3b c8	 cmp	 cx, ax
  00ee6	7f 03		 jg	 SHORT $LN421@Convert
  00ee8	0f bf c1	 movsx	 eax, cx
$LN421@Convert:

; 852  : 				m_Defense += tmpLevel*2;

  00eeb	03 c0		 add	 eax, eax
$LN529@Convert:
  00eed	66 01 46 16	 add	 WORD PTR [esi+22], ax

; 875  : 			}
; 876  : 
; 877  : 			if ( (_type >= ITEMGET(12,36) && _type <= ITEMGET(12,40)) || _type == ITEMGET(12,43) || _type == ITEMGET(12,50) )

  00ef1	81 fb 24 18 00
	00		 cmp	 ebx, 6180		; 00001824H
  00ef7	7c 08		 jl	 SHORT $LN222@Convert
  00ef9	81 fb 28 18 00
	00		 cmp	 ebx, 6184		; 00001828H
  00eff	7e 42		 jle	 SHORT $LN221@Convert
$LN222@Convert:
  00f01	81 fb 2b 18 00
	00		 cmp	 ebx, 6187		; 0000182bH
  00f07	74 3a		 je	 SHORT $LN221@Convert
  00f09	81 fb 32 18 00
	00		 cmp	 ebx, 6194		; 00001832H
  00f0f	74 32		 je	 SHORT $LN221@Convert

; 887  : 				}
; 888  : 			}
; 889  : 			else
; 890  : 			{
; 891  : 				switch(m_Level-9)

  00f11	0f bf c1	 movsx	 eax, cx
  00f14	83 c0 f6	 add	 eax, -10		; fffffff6H
  00f17	83 f8 05	 cmp	 eax, 5
  00f1a	77 57		 ja	 SHORT $LN485@Convert
  00f1c	ff 24 85 00 00
	00 00		 jmp	 DWORD PTR $LN546@Convert[eax*4]
$LN229@Convert:

; 892  : 				{
; 893  : 				case 6: m_Defense += 9;

  00f23	66 83 46 16 09	 add	 WORD PTR [esi+22], 9
$LN230@Convert:

; 894  : 				case 5:	m_Defense += 8;

  00f28	66 83 46 16 08	 add	 WORD PTR [esi+22], 8
$LN231@Convert:

; 895  : 				case 4:	m_Defense += 7;

  00f2d	66 83 46 16 07	 add	 WORD PTR [esi+22], 7
$LN232@Convert:

; 896  : 				case 3:	m_Defense += 6;

  00f32	66 83 46 16 06	 add	 WORD PTR [esi+22], 6
$LN233@Convert:

; 897  : 				case 2:	m_Defense += 5;

  00f37	66 83 46 16 05	 add	 WORD PTR [esi+22], 5
$LN234@Convert:

; 898  : 				case 1:	m_Defense += 4;

  00f3c	66 83 46 16 04	 add	 WORD PTR [esi+22], 4
  00f41	eb 30		 jmp	 SHORT $LN485@Convert
$LN221@Convert:

; 878  : 			{
; 879  : 				switch(m_Level-9)

  00f43	0f bf c1	 movsx	 eax, cx
  00f46	83 c0 f6	 add	 eax, -10		; fffffff6H
  00f49	83 f8 05	 cmp	 eax, 5
  00f4c	77 25		 ja	 SHORT $LN485@Convert
  00f4e	ff 24 85 00 00
	00 00		 jmp	 DWORD PTR $LN547@Convert[eax*4]
$LN223@Convert:

; 880  : 				{
; 881  : 				case 6: m_Defense += 10;

  00f55	66 83 46 16 0a	 add	 WORD PTR [esi+22], 10	; 0000000aH
$LN224@Convert:

; 882  : 				case 5:	m_Defense += 9;

  00f5a	66 83 46 16 09	 add	 WORD PTR [esi+22], 9
$LN225@Convert:

; 883  : 				case 4:	m_Defense += 8;

  00f5f	66 83 46 16 08	 add	 WORD PTR [esi+22], 8
$LN226@Convert:

; 884  : 				case 3:	m_Defense += 7;

  00f64	66 83 46 16 07	 add	 WORD PTR [esi+22], 7
$LN227@Convert:

; 885  : 				case 2:	m_Defense += 6;

  00f69	66 83 46 16 06	 add	 WORD PTR [esi+22], 6
$LN228@Convert:

; 886  : 				case 1:	m_Defense += 5;

  00f6e	66 83 46 16 05	 add	 WORD PTR [esi+22], 5
$LN485@Convert:
  00f73	8b 4d 08	 mov	 ecx, DWORD PTR tv4661[ebp]
$LN24@Convert:

; 899  : 				}
; 900  : 			}
; 901  : 		}
; 902  : 	}
; 903  : 
; 904  : 	if ( _type == ITEMGET(13,30) )

  00f76	81 fb 1e 1a 00
	00		 cmp	 ebx, 6686		; 00001a1eH
  00f7c	75 05		 jne	 SHORT $LN235@Convert

; 905  : 	{
; 906  : 		m_Defense += 15;

  00f7e	66 83 46 16 0f	 add	 WORD PTR [esi+22], 15	; 0000000fH
$LN235@Convert:

; 907  : 	}
; 908  : 
; 909  : 	if ( p->MagicDefense > 0 )

  00f83	80 b9 2e 00 00
	00 00		 cmp	 BYTE PTR ?ItemAttribute@@3PAUITEM_ATTRIBUTE@@A[ecx+46], 0
  00f8a	76 55		 jbe	 SHORT $LN28@Convert

; 910  : 	{
; 911  : 		/*
; 912  : 		m_MagicDefense += m_Level* 3;
; 913  : 
; 914  : 		if( m_Level >= 10 )
; 915  : 		{
; 916  : 			m_MagicDefense += (m_Level - 9) * (m_Level - 8) / 2;
; 917  : 		}*/
; 918  : 
; 919  : 		int tmpLevel = (m_Level>9) ? 9 : m_Level;

  00f8c	0f b7 4e 08	 movzx	 ecx, WORD PTR [esi+8]
  00f90	b8 09 00 00 00	 mov	 eax, 9
  00f95	66 83 f9 09	 cmp	 cx, 9
  00f99	7f 03		 jg	 SHORT $LN429@Convert
  00f9b	0f bf c1	 movsx	 eax, cx
$LN429@Convert:

; 920  : 		m_MagicDefense += tmpLevel*3;

  00f9e	8d 04 40	 lea	 eax, DWORD PTR [eax+eax*2]
  00fa1	66 03 46 18	 add	 ax, WORD PTR [esi+24]
  00fa5	0f b7 d0	 movzx	 edx, ax

; 921  : 
; 922  : 		switch(m_Level-9)

  00fa8	0f bf c1	 movsx	 eax, cx
  00fab	83 c0 f6	 add	 eax, -10		; fffffff6H
  00fae	66 89 56 18	 mov	 WORD PTR [esi+24], dx
  00fb2	83 f8 05	 cmp	 eax, 5
  00fb5	77 27		 ja	 SHORT $LN479@Convert
  00fb7	ff 24 85 00 00
	00 00		 jmp	 DWORD PTR $LN548@Convert[eax*4]
$LN237@Convert:

; 923  : 		{
; 924  : 		case 6: m_MagicDefense += 9;

  00fbe	8d 42 09	 lea	 eax, DWORD PTR [edx+9]
  00fc1	66 89 46 18	 mov	 WORD PTR [esi+24], ax
$LN238@Convert:

; 925  : 		case 5:	m_MagicDefense += 8;

  00fc5	66 83 46 18 08	 add	 WORD PTR [esi+24], 8
$LN239@Convert:

; 926  : 		case 4:	m_MagicDefense += 7;

  00fca	66 83 46 18 07	 add	 WORD PTR [esi+24], 7
$LN240@Convert:

; 927  : 		case 3:	m_MagicDefense += 6;

  00fcf	66 83 46 18 06	 add	 WORD PTR [esi+24], 6
$LN241@Convert:

; 928  : 		case 2:	m_MagicDefense += 5;

  00fd4	66 83 46 18 05	 add	 WORD PTR [esi+24], 5
$LN242@Convert:

; 929  : 		case 1:	m_MagicDefense += 4;

  00fd9	66 83 46 18 04	 add	 WORD PTR [esi+24], 4
$LN479@Convert:
  00fde	8b 4d 08	 mov	 ecx, DWORD PTR tv4661[ebp]
$LN28@Convert:

; 930  : 		}
; 931  : 	}
; 932  : 
; 933  : 	m_Level &= 15;

  00fe1	66 83 66 08 0f	 and	 WORD PTR [esi+8], 15	; 0000000fH
  00fe6	0f 57 c0	 xorps	 xmm0, xmm0

; 934  : 
; 935  : 	memset(m_Special, 0, sizeof(m_Special));
; 936  : 	memset(m_SpecialValue, 0, sizeof(m_SpecialValue));
; 937  : 
; 938  : 	m_SpecialNum = 0;
; 939  : 	m_Option1 = 0;
; 940  : 	m_Option2 = 0;
; 941  : 	m_Option3 = 0;
; 942  : 	m_SkillChange = FALSE;
; 943  : 
; 944  : 	if ( Option1 != 0 )

  00fe9	80 7d 0c 00	 cmp	 BYTE PTR _Option1$[ebp], 0
  00fed	0f 11 46 32	 movups	 XMMWORD PTR [esi+50], xmm0
  00ff1	0f 11 46 42	 movups	 XMMWORD PTR [esi+66], xmm0
  00ff5	c6 46 30 00	 mov	 BYTE PTR [esi+48], 0
  00ff9	66 c7 86 90 00
	00 00 00 00	 mov	 WORD PTR [esi+144], 0
  01002	c6 86 92 00 00
	00 00		 mov	 BYTE PTR [esi+146], 0
  01009	c6 86 a8 00 00
	00 00		 mov	 BYTE PTR [esi+168], 0
  01010	74 23		 je	 SHORT $LN246@Convert

; 945  : 	{
; 946  : 		if ( p->SkillType != 0 )

  01012	8b 81 68 00 00
	00		 mov	 eax, DWORD PTR ?ItemAttribute@@3PAUITEM_ATTRIBUTE@@A[ecx+104]
  01018	85 c0		 test	 eax, eax
  0101a	74 19		 je	 SHORT $LN246@Convert

; 947  : 		{
; 948  : 			if ( p->SkillType == AT_SKILL_LONGSPEAR )

  0101c	83 f8 42	 cmp	 eax, 66			; 00000042H
  0101f	75 09		 jne	 SHORT $LN245@Convert

; 949  : 			{
; 950  : 				m_SkillChange = TRUE;

  01021	c6 86 a8 00 00
	00 01		 mov	 BYTE PTR [esi+168], 1

; 951  : 				m_Special[m_SpecialNum] = 0;

  01028	33 c0		 xor	 eax, eax
$LN245@Convert:

; 952  : 				m_Option1 = 1;
; 953  : 			}
; 954  : 			else
; 955  : 			{
; 956  : 				m_Special[m_SpecialNum] = p->SkillType;

  0102a	66 89 46 32	 mov	 WORD PTR [esi+50], ax

; 957  : 				m_Option1 = 1;

  0102e	c6 86 90 00 00
	00 01		 mov	 BYTE PTR [esi+144], 1
$LN246@Convert:

; 958  : 			}
; 959  : 		}
; 960  : 	}
; 961  : 
; 962  : 	if ( m_Type == ITEMGET(13,3) )	// Dinorant

  01035	b8 03 1a 00 00	 mov	 eax, 6659		; 00001a03H
  0103a	66 39 46 06	 cmp	 WORD PTR [esi+6], ax
  0103e	75 15		 jne	 SHORT $LN247@Convert

; 963  : 	{
; 964  : 		m_Option1 = TRUE;
; 965  : 		m_Special[m_SpecialNum] = AT_SKILL_KNIGHTDINORANT;

  01040	0f b6 46 30	 movzx	 eax, BYTE PTR [esi+48]
  01044	ba 31 00 00 00	 mov	 edx, 49			; 00000031H
  01049	c6 86 90 00 00
	00 01		 mov	 BYTE PTR [esi+144], 1
  01050	66 89 54 46 32	 mov	 WORD PTR [esi+eax*2+50], dx
$LN247@Convert:

; 966  : 	}
; 967  : 
; 968  : 	if ( m_Type == ITEMGET(13,4) )	//Dark Horse

  01055	b8 04 1a 00 00	 mov	 eax, 6660		; 00001a04H
  0105a	66 39 46 06	 cmp	 WORD PTR [esi+6], ax
  0105e	75 15		 jne	 SHORT $LN248@Convert

; 969  : 	{
; 970  : 		m_Option1 = TRUE;
; 971  : 		m_Special[m_SpecialNum] = AT_SKILL_DARKHORSE_ATTACK;

  01060	0f b6 46 30	 movzx	 eax, BYTE PTR [esi+48]
  01064	ba 3e 00 00 00	 mov	 edx, 62			; 0000003eH
  01069	c6 86 90 00 00
	00 01		 mov	 BYTE PTR [esi+144], 1
  01070	66 89 54 46 32	 mov	 WORD PTR [esi+eax*2+50], dx
$LN248@Convert:

; 972  : 	}
; 973  : 
; 974  : 	if ( m_Type == ITEMGET(13,37) )

  01075	b8 25 1a 00 00	 mov	 eax, 6693		; 00001a25H
  0107a	66 39 46 06	 cmp	 WORD PTR [esi+6], ax
  0107e	75 15		 jne	 SHORT $LN249@Convert

; 975  : 	{
; 976  : 		m_Option1 = TRUE;
; 977  : 		m_Special[m_SpecialNum] = AT_SKILL_FENRIR_ATTACK;

  01080	0f b6 46 30	 movzx	 eax, BYTE PTR [esi+48]
  01084	ba 4c 00 00 00	 mov	 edx, 76			; 0000004cH
  01089	c6 86 90 00 00
	00 01		 mov	 BYTE PTR [esi+144], 1
  01090	66 89 54 46 32	 mov	 WORD PTR [esi+eax*2+50], dx
$LN249@Convert:

; 978  : 	}
; 979  : 
; 980  : 	m_SpecialNum++;

  01095	fe 46 30	 inc	 BYTE PTR [esi+48]

; 981  : 
; 982  : 	if ( Option2 != 0 )

  01098	80 7d 10 00	 cmp	 BYTE PTR _Option2$[ebp], 0
  0109c	8a 46 30	 mov	 al, BYTE PTR [esi+48]
  0109f	0f 84 c8 00 00
	00		 je	 $LN258@Convert

; 983  : 	{
; 984  : 		if ( _type >= ITEMGET(0,0) && _type < ITEMGET(12,0) )

  010a5	ba 54 00 00 00	 mov	 edx, 84			; 00000054H
  010aa	85 db		 test	 ebx, ebx
  010ac	78 17		 js	 SHORT $LN251@Convert
  010ae	81 fb 00 18 00
	00		 cmp	 ebx, 6144		; 00001800H
  010b4	7d 17		 jge	 SHORT $LN466@Convert

; 985  : 		{
; 986  : 			m_Special[m_SpecialNum] = 84;

  010b6	0f b6 c0	 movzx	 eax, al
  010b9	66 89 54 46 32	 mov	 WORD PTR [esi+eax*2+50], dx

; 987  : 			m_Option2 = 1;

  010be	c6 86 91 00 00
	00 01		 mov	 BYTE PTR [esi+145], 1
$LN251@Convert:

; 988  : 		}
; 989  : 
; 990  : 
; 991  : #if ( CUSTOM_WINGS == 1 )
; 992  : 
; 993  : 		if ( _type >= ITEMGET(12,440) && _type <= ITEMGET(12,445) )
; 994  : 		{
; 995  : 			m_Special[m_SpecialNum] = 84;
; 996  : 			m_Option2 = 1;
; 997  : 		}
; 998  : 
; 999  : #endif
; 1000 : 
; 1001 : 		if ( _type >= ITEMGET(12,0) && _type <= ITEMGET(12,6) )	// Wings

  010c5	81 fb 00 18 00
	00		 cmp	 ebx, 6144		; 00001800H
  010cb	7c 18		 jl	 SHORT $LN252@Convert
$LN466@Convert:
  010cd	81 fb 06 18 00
	00		 cmp	 ebx, 6150		; 00001806H
  010d3	7f 10		 jg	 SHORT $LN252@Convert

; 1002 : 		{
; 1003 : 			m_Special[m_SpecialNum] = 84;

  010d5	0f b6 46 30	 movzx	 eax, BYTE PTR [esi+48]
  010d9	66 89 54 46 32	 mov	 WORD PTR [esi+eax*2+50], dx

; 1004 : 			m_Option2 = 1;

  010de	c6 86 91 00 00
	00 01		 mov	 BYTE PTR [esi+145], 1
$LN252@Convert:

; 1005 : 		}
; 1006 : 
; 1007 : 		if ( _type == ITEMGET(13,30) )	// Cape of Lord

  010e5	81 fb 1e 1a 00
	00		 cmp	 ebx, 6686		; 00001a1eH
  010eb	74 70		 je	 SHORT $LN530@Convert

; 1008 : 		{
; 1009 : 			m_Special[m_SpecialNum] = 84;
; 1010 : 			m_Option2 = 1;
; 1011 : 		}
; 1012 : 		
; 1013 : 		if ( _type >= ITEMGET(12,36) && _type <= ITEMGET(12,40) )

  010ed	81 fb 24 18 00
	00		 cmp	 ebx, 6180		; 00001824H
  010f3	7c 18		 jl	 SHORT $LN254@Convert
  010f5	81 fb 28 18 00
	00		 cmp	 ebx, 6184		; 00001828H
  010fb	7f 10		 jg	 SHORT $LN254@Convert

; 1014 : 		{
; 1015 : 			m_Special[m_SpecialNum] = 84;

  010fd	0f b6 46 30	 movzx	 eax, BYTE PTR [esi+48]
  01101	66 89 54 46 32	 mov	 WORD PTR [esi+eax*2+50], dx

; 1016 : 			m_Option2 = 1;

  01106	c6 86 91 00 00
	00 01		 mov	 BYTE PTR [esi+145], 1
$LN254@Convert:

; 1017 : 		}
; 1018 : 		
; 1019 : 		if ( _type >= ITEMGET(12,41) && _type <= ITEMGET(12,43) )

  0110d	81 fb 29 18 00
	00		 cmp	 ebx, 6185		; 00001829H
  01113	7c 18		 jl	 SHORT $LN255@Convert
  01115	81 fb 2b 18 00
	00		 cmp	 ebx, 6187		; 0000182bH
  0111b	7f 10		 jg	 SHORT $LN255@Convert

; 1020 : 		{
; 1021 : 			m_Special[m_SpecialNum] = 84;

  0111d	0f b6 46 30	 movzx	 eax, BYTE PTR [esi+48]
  01121	66 89 54 46 32	 mov	 WORD PTR [esi+eax*2+50], dx

; 1022 : 			m_Option2 = 1;

  01126	c6 86 91 00 00
	00 01		 mov	 BYTE PTR [esi+145], 1
$LN255@Convert:

; 1023 : 		}
; 1024 : 
; 1025 : 		if ( _type == ITEMGET(12,49) || _type == ITEMGET(12,50) )

  0112d	81 fb 31 18 00
	00		 cmp	 ebx, 6193		; 00001831H
  01133	74 08		 je	 SHORT $LN257@Convert
  01135	81 fb 32 18 00
	00		 cmp	 ebx, 6194		; 00001832H
  0113b	75 10		 jne	 SHORT $LN256@Convert
$LN257@Convert:

; 1026 : 		{
; 1027 : 			m_Special[m_SpecialNum] = 84;

  0113d	0f b6 46 30	 movzx	 eax, BYTE PTR [esi+48]
  01141	66 89 54 46 32	 mov	 WORD PTR [esi+eax*2+50], dx

; 1028 : 			m_Option2 = 1;

  01146	c6 86 91 00 00
	00 01		 mov	 BYTE PTR [esi+145], 1
$LN256@Convert:

; 1029 : 		}
; 1030 : 
; 1031 : 		if ( _type >= ITEMGET(12,262) && _type <= ITEMGET(12,267) )

  0114d	81 fb 06 19 00
	00		 cmp	 ebx, 6406		; 00001906H
  01153	7c 18		 jl	 SHORT $LN258@Convert
  01155	81 fb 0b 19 00
	00		 cmp	 ebx, 6411		; 0000190bH
  0115b	7f 10		 jg	 SHORT $LN258@Convert
$LN530@Convert:

; 1032 : 		{
; 1033 : 			m_Special[m_SpecialNum] = 84;

  0115d	0f b6 46 30	 movzx	 eax, BYTE PTR [esi+48]
  01161	66 89 54 46 32	 mov	 WORD PTR [esi+eax*2+50], dx

; 1034 : 			m_Option2 = 1;

  01166	c6 86 91 00 00
	00 01		 mov	 BYTE PTR [esi+145], 1
$LN258@Convert:

; 1035 : 		}
; 1036 : 	}
; 1037 : 
; 1038 : 	m_SpecialNum++;

  0116d	fe 46 30	 inc	 BYTE PTR [esi+48]

; 1039 : 
; 1040 : 	if ( Option3 != 0 )

  01170	bf 61 00 00 00	 mov	 edi, 97			; 00000061H
  01175	8a 55 14	 mov	 dl, BYTE PTR _Option3$[ebp]
  01178	8a 46 30	 mov	 al, BYTE PTR [esi+48]
  0117b	84 d2		 test	 dl, dl
  0117d	0f 84 0c 05 00
	00		 je	 $LN345@Convert

; 1041 : 	{
; 1042 : 		if ( _type >= ITEMGET(0,0) && _type < ITEMGET(5,0) )

  01183	bf 50 00 00 00	 mov	 edi, 80			; 00000050H
  01188	85 db		 test	 ebx, ebx
  0118a	78 16		 js	 SHORT $LN260@Convert
  0118c	81 fb 00 0a 00
	00		 cmp	 ebx, 2560		; 00000a00H
  01192	7d 16		 jge	 SHORT $LN465@Convert

; 1043 : 		{
; 1044 : 			m_Special[m_SpecialNum] = 80;

  01194	0f b6 c0	 movzx	 eax, al
  01197	66 89 7c 46 32	 mov	 WORD PTR [esi+eax*2+50], di

; 1045 : 			m_Option3 = Option3;

  0119c	88 96 92 00 00
	00		 mov	 BYTE PTR [esi+146], dl
$LN260@Convert:

; 1046 : 			//m_RequireStrength +=  Option3 * 4;
; 1047 : 		}
; 1048 : 
; 1049 : 		if ( _type >= ITEMGET(5,0) && _type < ITEMGET(6,0) )

  011a2	81 fb 00 0a 00
	00		 cmp	 ebx, 2560		; 00000a00H
  011a8	7c 35		 jl	 SHORT $LN261@Convert
$LN465@Convert:
  011aa	81 fb 00 0c 00
	00		 cmp	 ebx, 3072		; 00000c00H
  011b0	7d 35		 jge	 SHORT $LN464@Convert

; 1050 : 		{
; 1051 : 			if( p->ItemSlot == 1 )

  011b2	83 b9 64 00 00
	00 01		 cmp	 DWORD PTR ?ItemAttribute@@3PAUITEM_ATTRIBUTE@@A[ecx+100], 1

; 1052 : 			{
; 1053 : 				m_Special[m_SpecialNum] = 113;

  011b9	b9 71 00 00 00	 mov	 ecx, 113		; 00000071H
  011be	0f b6 46 30	 movzx	 eax, BYTE PTR [esi+48]
  011c2	74 05		 je	 SHORT $LN531@Convert

; 1054 : 			}
; 1055 : 			else
; 1056 : 			{
; 1057 : 				m_Special[m_SpecialNum] = 81;

  011c4	b9 51 00 00 00	 mov	 ecx, 81			; 00000051H
$LN531@Convert:
  011c9	66 89 4c 46 32	 mov	 WORD PTR [esi+eax*2+50], cx

; 1058 : 			}
; 1059 : 
; 1060 : 			m_Option3 = Option3;
; 1061 : 			m_RequireStrength +=  Option3 * 4;

  011ce	0f b6 c2	 movzx	 eax, dl
  011d1	66 c1 e0 02	 shl	 ax, 2
  011d5	66 01 46 52	 add	 WORD PTR [esi+82], ax
  011d9	88 96 92 00 00
	00		 mov	 BYTE PTR [esi+146], dl
$LN261@Convert:

; 1062 : 		}
; 1063 : 		
; 1064 : 		if ( _type >= ITEMGET(6,0) && _type < ITEMGET(7,0) )

  011df	81 fb 00 0c 00
	00		 cmp	 ebx, 3072		; 00000c00H
  011e5	7c 27		 jl	 SHORT $LN264@Convert
$LN464@Convert:
  011e7	81 fb 00 0e 00
	00		 cmp	 ebx, 3584		; 00000e00H
  011ed	7d 27		 jge	 SHORT $LN463@Convert

; 1065 : 		{
; 1066 : 			m_Special[m_SpecialNum] = 82;

  011ef	0f b6 46 30	 movzx	 eax, BYTE PTR [esi+48]
  011f3	b9 52 00 00 00	 mov	 ecx, 82			; 00000052H
  011f8	66 89 4c 46 32	 mov	 WORD PTR [esi+eax*2+50], cx

; 1067 : 			m_Option3 = Option3;
; 1068 : 			m_RequireStrength +=  Option3 * 4;

  011fd	0f b6 c2	 movzx	 eax, dl
  01200	66 c1 e0 02	 shl	 ax, 2
  01204	66 01 46 52	 add	 WORD PTR [esi+82], ax
  01208	88 96 92 00 00
	00		 mov	 BYTE PTR [esi+146], dl
$LN264@Convert:

; 1069 : 		}
; 1070 : 
; 1071 : 		if ( _type >= ITEMGET(7,0) && _type < ITEMGET(12,0) )

  0120e	81 fb 00 0e 00
	00		 cmp	 ebx, 3584		; 00000e00H
  01214	7c 2d		 jl	 SHORT $LN265@Convert
$LN463@Convert:
  01216	81 fb 00 18 00
	00		 cmp	 ebx, 6144		; 00001800H
  0121c	7d 25		 jge	 SHORT $LN265@Convert

; 1072 : 		{
; 1073 : 			m_Special[m_SpecialNum] = 83;

  0121e	0f b6 46 30	 movzx	 eax, BYTE PTR [esi+48]
  01222	b9 53 00 00 00	 mov	 ecx, 83			; 00000053H
  01227	66 89 4c 46 32	 mov	 WORD PTR [esi+eax*2+50], cx

; 1074 : 			m_Option3 = Option3;
; 1075 : 			m_RequireStrength +=  Option3 * 5;

  0122c	0f b6 ca	 movzx	 ecx, dl
  0122f	66 8b c1	 mov	 ax, cx
  01232	88 96 92 00 00
	00		 mov	 BYTE PTR [esi+146], dl
  01238	66 c1 e1 02	 shl	 cx, 2
  0123c	66 03 c1	 add	 ax, cx
  0123f	66 01 46 52	 add	 WORD PTR [esi+82], ax
$LN265@Convert:

; 1076 : 		}
; 1077 : 
; 1078 : 		/*if ( (_type >= ITEMGET(13,8) && _type < ITEMGET(13,14)) || (_type >= ITEMGET(13,20) && _type <= ITEMGET(13,28)) )
; 1079 : 		{
; 1080 : 			if ( _type == ITEMGET(13,24) ) // Ring of MAgic
; 1081 : 			{
; 1082 : 				m_Special[m_SpecialNum] = 172;
; 1083 : 				m_Option3 = Option3;
; 1084 : 			}
; 1085 : 			else if ( _type == ITEMGET(13,28) ) // Pendant of abilit
; 1086 : 			{
; 1087 : 				m_Special[m_SpecialNum] = 173;
; 1088 : 				m_Option3 = Option3;
; 1089 : 			}
; 1090 : 			else  
; 1091 : 			{
; 1092 : 				m_Special[m_SpecialNum] = 85;
; 1093 : 				m_Option3 = Option3;
; 1094 : 			}
; 1095 : 		}*/
; 1096 : 		if ((_type >= ITEMGET(13,8) && _type < ITEMGET(13,14)) || (_type >= ITEMGET(13,20) && _type <= ITEMGET(13,28)) || (_type >= ITEMGET(13,109) && _type <= ITEMGET(13,115)))

  01243	b9 55 00 00 00	 mov	 ecx, 85			; 00000055H
  01248	81 fb 08 1a 00
	00		 cmp	 ebx, 6664		; 00001a08H
  0124e	7c 08		 jl	 SHORT $LN268@Convert
  01250	81 fb 0e 1a 00
	00		 cmp	 ebx, 6670		; 00001a0eH
  01256	7c 1b		 jl	 SHORT $LN267@Convert
$LN268@Convert:
  01258	81 fb 14 1a 00
	00		 cmp	 ebx, 6676		; 00001a14H
  0125e	7c 08		 jl	 SHORT $LN269@Convert
  01260	81 fb 1c 1a 00
	00		 cmp	 ebx, 6684		; 00001a1cH
  01266	7e 0b		 jle	 SHORT $LN267@Convert
$LN269@Convert:
  01268	8d 83 93 e5 ff
	ff		 lea	 eax, DWORD PTR [ebx-6765]
  0126e	83 f8 06	 cmp	 eax, 6
  01271	77 49		 ja	 SHORT $LN273@Convert
$LN267@Convert:

; 1097 : 		{
; 1098 : 			if (_type == ITEMGET(13,24))
; 1099 : 			{
; 1100 : 				m_Special[m_SpecialNum] = 172;

  01273	0f b6 46 30	 movzx	 eax, BYTE PTR [esi+48]
  01277	81 fb 18 1a 00
	00		 cmp	 ebx, 6680		; 00001a18H
  0127d	75 15		 jne	 SHORT $LN270@Convert
  0127f	b9 ac 00 00 00	 mov	 ecx, 172		; 000000acH
  01284	66 89 4c 46 32	 mov	 WORD PTR [esi+eax*2+50], cx

; 1101 : 				m_Option3 = Option3;

  01289	88 96 92 00 00
	00		 mov	 BYTE PTR [esi+146], dl
  0128f	e9 f6 03 00 00	 jmp	 $LN499@Convert
$LN270@Convert:

; 1102 : 			}
; 1103 : 			else if (_type == ITEMGET(13,28))

  01294	81 fb 1c 1a 00
	00		 cmp	 ebx, 6684		; 00001a1cH
  0129a	75 15		 jne	 SHORT $LN272@Convert

; 1104 : 			{
; 1105 : 				m_Special[m_SpecialNum] = 173;

  0129c	b9 ad 00 00 00	 mov	 ecx, 173		; 000000adH
  012a1	66 89 4c 46 32	 mov	 WORD PTR [esi+eax*2+50], cx

; 1106 : 				m_Option3 = Option3;

  012a6	88 96 92 00 00
	00		 mov	 BYTE PTR [esi+146], dl

; 1107 : 			}
; 1108 : 			else  

  012ac	e9 d9 03 00 00	 jmp	 $LN499@Convert
$LN272@Convert:

; 1109 : 			{
; 1110 : 				m_Special[m_SpecialNum] = 85;

  012b1	66 89 4c 46 32	 mov	 WORD PTR [esi+eax*2+50], cx

; 1111 : 				m_Option3 = Option3;

  012b6	88 96 92 00 00
	00		 mov	 BYTE PTR [esi+146], dl
$LN273@Convert:

; 1112 : 			}
; 1113 : 		}
; 1114 : 		
; 1115 : 		if ( _type == ITEMGET(13,30) ) // Cape of lord 

  012bc	81 fb 1e 1a 00
	00		 cmp	 ebx, 6686		; 00001a1eH
  012c2	75 1f		 jne	 SHORT $LN274@Convert
$LN533@Convert:

; 1116 : 		{
; 1117 : 			m_Special[m_SpecialNum] = 80;

  012c4	0f b6 46 30	 movzx	 eax, BYTE PTR [esi+48]
  012c8	66 89 7c 46 32	 mov	 WORD PTR [esi+eax*2+50], di
$LN532@Convert:

; 1118 : 			m_Option3 = Option3;
; 1119 : 			m_RequireStrength +=  Option3 * 4;

  012cd	0f b6 c2	 movzx	 eax, dl
  012d0	66 c1 e0 02	 shl	 ax, 2
  012d4	66 01 46 52	 add	 WORD PTR [esi+82], ax
  012d8	88 96 92 00 00
	00		 mov	 BYTE PTR [esi+146], dl

; 1120 : 		}
; 1121 : 
; 1122 : 		if ( _type == ITEMGET(12,0) )	// Wing elf

  012de	e9 a7 03 00 00	 jmp	 $LN499@Convert
$LN274@Convert:
  012e3	81 fb 00 18 00
	00		 cmp	 ebx, 6144		; 00001800H
  012e9	75 14		 jne	 SHORT $LN275@Convert

; 1123 : 		{
; 1124 : 			m_Special[m_SpecialNum] = 85;

  012eb	0f b6 46 30	 movzx	 eax, BYTE PTR [esi+48]
  012ef	66 89 4c 46 32	 mov	 WORD PTR [esi+eax*2+50], cx

; 1125 : 			m_Option3 = Option3;

  012f4	88 96 92 00 00
	00		 mov	 BYTE PTR [esi+146], dl
  012fa	e9 8b 03 00 00	 jmp	 $LN499@Convert
$LN275@Convert:

; 1126 : 		}
; 1127 : 		else if ( _type == ITEMGET(12,1) ) // winf Heaven

  012ff	81 fb 01 18 00
	00		 cmp	 ebx, 6145		; 00001801H
  01305	75 10		 jne	 SHORT $LN277@Convert

; 1128 : 		{
; 1129 : 			m_Special[m_SpecialNum] = 81;

  01307	0f b6 46 30	 movzx	 eax, BYTE PTR [esi+48]
  0130b	b9 51 00 00 00	 mov	 ecx, 81			; 00000051H
  01310	66 89 4c 46 32	 mov	 WORD PTR [esi+eax*2+50], cx

; 1130 : 			m_Option3 = Option3;
; 1131 : 			m_RequireStrength +=  Option3 * 4;

  01315	eb b6		 jmp	 SHORT $LN532@Convert
$LN277@Convert:

; 1132 : 		}
; 1133 : 		else if ( _type == ITEMGET(12,2) ) // wing devil

  01317	81 fb 02 18 00
	00		 cmp	 ebx, 6146		; 00001802H
  0131d	74 a5		 je	 SHORT $LN533@Convert

; 1134 : 		{
; 1135 : 			m_Special[m_SpecialNum] = 80;
; 1136 : 			m_Option3 = Option3;
; 1137 : 			m_RequireStrength +=  Option3 * 4;
; 1138 : 		}
; 1139 : 		else if ( _type == ITEMGET(12,3) ) // wing spitits

  0131f	81 fb 03 18 00
	00		 cmp	 ebx, 6147		; 00001803H
  01325	75 35		 jne	 SHORT $LN281@Convert

; 1140 : 		{
; 1141 : 			m_Special[m_SpecialNum] = 80;

  01327	0f b6 46 30	 movzx	 eax, BYTE PTR [esi+48]
  0132b	66 89 7c 46 32	 mov	 WORD PTR [esi+eax*2+50], di

; 1142 : 			m_Option3 = Option3;
; 1143 : 			m_RequireStrength +=  Option3 * 4;

  01330	0f b6 c2	 movzx	 eax, dl
  01333	66 c1 e0 02	 shl	 ax, 2
  01337	66 01 46 52	 add	 WORD PTR [esi+82], ax

; 1144 : 
; 1145 : 			if ( (m_NewOption&0x20) != 0 )

  0133b	f6 86 93 00 00
	00 20		 test	 BYTE PTR [esi+147], 32	; 00000020H

; 1146 : 			{
; 1147 : 				m_Special[m_SpecialNum] = 85;

  01342	0f b6 46 30	 movzx	 eax, BYTE PTR [esi+48]
  01346	88 96 92 00 00
	00		 mov	 BYTE PTR [esi+146], dl
  0134c	0f 84 33 03 00
	00		 je	 $LN283@Convert
$LN291@Convert:
  01352	66 89 4c 46 32	 mov	 WORD PTR [esi+eax*2+50], cx

; 1148 : 			}
; 1149 : 			else

  01357	e9 2e 03 00 00	 jmp	 $LN499@Convert
$LN281@Convert:

; 1150 : 			{
; 1151 : 				m_Special[m_SpecialNum] = 80;
; 1152 : 			}
; 1153 : 
; 1154 : 		}
; 1155 : 		else if ( _type == ITEMGET(12,4) ) // wing soul

  0135c	81 fb 04 18 00
	00		 cmp	 ebx, 6148		; 00001804H
  01362	75 36		 jne	 SHORT $LN285@Convert

; 1156 : 		{
; 1157 : 			m_Option3 = Option3;
; 1158 : 			m_RequireStrength +=  Option3 * 4;

  01364	0f b6 c2	 movzx	 eax, dl

; 1163 : 			}
; 1164 : 			else

  01367	bf 61 00 00 00	 mov	 edi, 97			; 00000061H
  0136c	66 c1 e0 02	 shl	 ax, 2
  01370	66 01 46 52	 add	 WORD PTR [esi+82], ax
  01374	f6 86 93 00 00
	00 20		 test	 BYTE PTR [esi+147], 32	; 00000020H
  0137b	0f b6 46 30	 movzx	 eax, BYTE PTR [esi+48]
  0137f	88 96 92 00 00
	00		 mov	 BYTE PTR [esi+146], dl
  01385	0f 84 d7 02 00
	00		 je	 $LN287@Convert

; 1159 : 
; 1160 : 			if ( (m_NewOption&0x20) != 0 )
; 1161 : 			{
; 1162 : 				m_Special[m_SpecialNum] = 81;

  0138b	b9 51 00 00 00	 mov	 ecx, 81			; 00000051H
  01390	66 89 4c 46 32	 mov	 WORD PTR [esi+eax*2+50], cx

; 1163 : 			}
; 1164 : 			else

  01395	e9 f5 02 00 00	 jmp	 $LN345@Convert
$LN285@Convert:

; 1165 : 			{
; 1166 : 				m_Special[m_SpecialNum] = 85;
; 1167 : 			}
; 1168 : 
; 1169 : 		}
; 1170 : 		else if ( _type == ITEMGET(12,5) ) // wing dragon

  0139a	81 fb 05 18 00
	00		 cmp	 ebx, 6149		; 00001805H
  013a0	75 23		 jne	 SHORT $LN289@Convert
$LN534@Convert:

; 1171 : 		{
; 1172 : 			m_Option3 = Option3;
; 1173 : 			m_RequireStrength +=  Option3 * 4;

  013a2	0f b6 c2	 movzx	 eax, dl
  013a5	66 c1 e0 02	 shl	 ax, 2
  013a9	66 01 46 52	 add	 WORD PTR [esi+82], ax

; 1174 : 
; 1175 : 			if ( (m_NewOption&0x20) != 0 )

  013ad	f6 86 93 00 00
	00 20		 test	 BYTE PTR [esi+147], 32	; 00000020H

; 1176 : 			{
; 1177 : 				m_Special[m_SpecialNum] = 80;

  013b4	0f b6 46 30	 movzx	 eax, BYTE PTR [esi+48]
  013b8	88 96 92 00 00
	00		 mov	 BYTE PTR [esi+146], dl
  013be	74 92		 je	 SHORT $LN291@Convert

; 1178 : 			}
; 1179 : 			else

  013c0	e9 c0 02 00 00	 jmp	 $LN283@Convert
$LN289@Convert:

; 1180 : 			{
; 1181 : 				m_Special[m_SpecialNum] = 85;
; 1182 : 			}
; 1183 : 
; 1184 : 		}			
; 1185 : 		else if ( _type == ITEMGET(12,6) ) // wing darkness

  013c5	81 fb 06 18 00
	00		 cmp	 ebx, 6150		; 00001806H
  013cb	75 27		 jne	 SHORT $LN293@Convert

; 1186 : 		{
; 1187 : 			m_Option3 = Option3;
; 1188 : 			m_RequireStrength +=  Option3 * 4;

  013cd	0f b6 c2	 movzx	 eax, dl
  013d0	66 c1 e0 02	 shl	 ax, 2
  013d4	66 01 46 52	 add	 WORD PTR [esi+82], ax

; 1189 : 
; 1190 : 			if ( (m_NewOption&0x20) != 0 )

  013d8	f6 86 93 00 00
	00 20		 test	 BYTE PTR [esi+147], 32	; 00000020H

; 1191 : 			{
; 1192 : 				m_Special[m_SpecialNum] = 80;

  013df	0f b6 46 30	 movzx	 eax, BYTE PTR [esi+48]
  013e3	88 96 92 00 00
	00		 mov	 BYTE PTR [esi+146], dl
  013e9	0f 84 d9 00 00
	00		 je	 $LN295@Convert

; 1193 : 			}
; 1194 : 			else

  013ef	e9 91 02 00 00	 jmp	 $LN283@Convert
$LN293@Convert:

; 1195 : 			{
; 1196 : 				m_Special[m_SpecialNum] = 81;
; 1197 : 			}
; 1198 : 
; 1199 : 		}
; 1200 : 		else if ( _type == ITEMGET(12,49) ) 

  013f4	81 fb 31 18 00
	00		 cmp	 ebx, 6193		; 00001831H
  013fa	74 a6		 je	 SHORT $LN534@Convert

; 1201 : 		{
; 1202 : 			m_Option3 = Option3;
; 1203 : 			m_RequireStrength +=  Option3 * 4;
; 1204 : 
; 1205 : 			if( (m_NewOption&0x20) != 0 )
; 1206 : 			{
; 1207 : 				m_Special[m_SpecialNum] = 80;
; 1208 : 			}
; 1209 : 			else
; 1210 : 			{
; 1211 : 				m_Special[m_SpecialNum] = 85;
; 1212 : 			}
; 1213 : 		}
; 1214 : 		else if ( _type == ITEMGET(13,3) ) // dinorant

  013fc	81 fb 03 1a 00
	00		 cmp	 ebx, 6659		; 00001a03H
  01402	75 5a		 jne	 SHORT $LN304@Convert

; 1215 : 		{
; 1216 : 			m_Option3 = Option3;
; 1217 : 	
; 1218 : 			if ( (m_Option3&0x02) != 0 )

  01404	88 96 92 00 00
	00		 mov	 BYTE PTR [esi+146], dl
  0140a	f6 c2 02	 test	 dl, 2
  0140d	74 11		 je	 SHORT $LN302@Convert

; 1219 : 			{
; 1220 : 				m_Special[m_SpecialNum] = 0x67;

  0140f	0f b6 46 30	 movzx	 eax, BYTE PTR [esi+48]
  01413	b9 67 00 00 00	 mov	 ecx, 103		; 00000067H
  01418	66 89 4c 46 32	 mov	 WORD PTR [esi+eax*2+50], cx

; 1221 : 				m_SpecialNum++;

  0141d	fe 46 30	 inc	 BYTE PTR [esi+48]
$LN302@Convert:

; 1222 : 			}
; 1223 : 		
; 1224 : 			if ( (m_Option3&0x04) != 0 )

  01420	f6 86 92 00 00
	00 04		 test	 BYTE PTR [esi+146], 4

; 1225 : 			{
; 1226 : 				m_Special[m_SpecialNum] = 0x61;

  01427	bf 61 00 00 00	 mov	 edi, 97			; 00000061H
  0142c	74 10		 je	 SHORT $LN303@Convert
  0142e	0f b6 46 30	 movzx	 eax, BYTE PTR [esi+48]
  01432	66 89 7c 46 32	 mov	 WORD PTR [esi+eax*2+50], di

; 1227 : 				m_SpecialNum++;

  01437	fe 46 30	 inc	 BYTE PTR [esi+48]

; 1228 : 				m_AttackSpeed+=5;

  0143a	80 46 0d 05	 add	 BYTE PTR [esi+13], 5
$LN303@Convert:

; 1229 : 			}
; 1230 : 		
; 1231 : 			if ( (m_Option3&0x01) != 0 )

  0143e	f6 86 92 00 00
	00 01		 test	 BYTE PTR [esi+146], 1
  01445	0f 84 44 02 00
	00		 je	 $LN345@Convert

; 1232 : 			{
; 1233 : 				m_Special[m_SpecialNum] = 0x68;

  0144b	0f b6 46 30	 movzx	 eax, BYTE PTR [esi+48]
  0144f	b9 68 00 00 00	 mov	 ecx, 104		; 00000068H
  01454	66 89 4c 46 32	 mov	 WORD PTR [esi+eax*2+50], cx

; 1234 : 			}
; 1235 : 		}
; 1236 : 
; 1237 : 		if ( _type == ITEMGET(12,36) ) // wings of storm

  01459	e9 31 02 00 00	 jmp	 $LN345@Convert
$LN304@Convert:
  0145e	81 fb 24 18 00
	00		 cmp	 ebx, 6180		; 00001824H
  01464	75 3d		 jne	 SHORT $LN308@Convert
$LN538@Convert:

; 1238 : 		{
; 1239 : 			m_Option3 = Option3;
; 1240 : 			m_Special[m_SpecialNum] = 85;

  01466	0f b6 46 30	 movzx	 eax, BYTE PTR [esi+48]
  0146a	88 96 92 00 00
	00		 mov	 BYTE PTR [esi+146], dl
  01470	66 89 4c 46 32	 mov	 WORD PTR [esi+eax*2+50], cx

; 1241 : 
; 1242 : 			if ( (m_NewOption&0x10) != 0 )

  01475	8a 86 93 00 00
	00		 mov	 al, BYTE PTR [esi+147]
  0147b	a8 10		 test	 al, 16			; 00000010H
  0147d	0f 85 fe 01 00
	00		 jne	 $LN539@Convert
$LN339@Convert:

; 1413 : 			}
; 1414 : 		}
; 1415 : 		else if ( _type == ITEMGET(12,262) ||

  01483	bf 61 00 00 00	 mov	 edi, 97			; 00000061H
  01488	a8 20		 test	 al, 32			; 00000020H
  0148a	0f 84 ff 01 00
	00		 je	 $LN345@Convert

; 1402 : 		{
; 1403 : 			m_Option3 = Option3;
; 1404 : 			m_Special[m_SpecialNum] = 85;
; 1405 : 
; 1406 : 			if ( (m_NewOption&0x10) != 0 )
; 1407 : 			{
; 1408 : 				m_Special[m_SpecialNum] = 80;
; 1409 : 			}
; 1410 : 			else if( (m_NewOption&0x20) != 0 )
; 1411 : 			{
; 1412 : 				m_Special[m_SpecialNum] = 83;

  01490	0f b6 46 30	 movzx	 eax, BYTE PTR [esi+48]
  01494	b9 53 00 00 00	 mov	 ecx, 83			; 00000053H
  01499	66 89 4c 46 32	 mov	 WORD PTR [esi+eax*2+50], cx

; 1413 : 			}
; 1414 : 		}
; 1415 : 		else if ( _type == ITEMGET(12,262) ||

  0149e	e9 ec 01 00 00	 jmp	 $LN345@Convert
$LN308@Convert:

; 1243 : 			{
; 1244 : 				m_Special[m_SpecialNum] = 80;
; 1245 : 			}
; 1246 : 			else if( (m_NewOption&0x20) != 0 )
; 1247 : 			{
; 1248 : 				m_Special[m_SpecialNum] = 83;
; 1249 : 			}
; 1250 : 		}
; 1251 : 		if ( _type == ITEMGET(12,37) ) // wings of redemption

  014a3	81 fb 25 18 00
	00		 cmp	 ebx, 6181		; 00001825H
  014a9	75 2c		 jne	 SHORT $LN312@Convert

; 1252 : 		{
; 1253 : 			m_Option3 = Option3;
; 1254 : 			m_Special[m_SpecialNum] = 85;

  014ab	0f b6 46 30	 movzx	 eax, BYTE PTR [esi+48]
  014af	88 96 92 00 00
	00		 mov	 BYTE PTR [esi+146], dl
  014b5	66 89 4c 46 32	 mov	 WORD PTR [esi+eax*2+50], cx

; 1255 : 
; 1256 : 			if ( (m_NewOption&0x10) != 0 )

  014ba	8a 86 93 00 00
	00		 mov	 al, BYTE PTR [esi+147]
  014c0	a8 10		 test	 al, 16			; 00000010H
  014c2	74 bf		 je	 SHORT $LN339@Convert

; 1257 : 			{
; 1258 : 				m_Special[m_SpecialNum] = 81;

  014c4	0f b6 46 30	 movzx	 eax, BYTE PTR [esi+48]
$LN295@Convert:
  014c8	b9 51 00 00 00	 mov	 ecx, 81			; 00000051H
  014cd	66 89 4c 46 32	 mov	 WORD PTR [esi+eax*2+50], cx
  014d2	e9 b3 01 00 00	 jmp	 $LN499@Convert
$LN312@Convert:

; 1259 : 			}
; 1260 : 			else if( (m_NewOption&0x20) != 0 )
; 1261 : 			{
; 1262 : 				m_Special[m_SpecialNum] = 83;
; 1263 : 			}
; 1264 : 		}
; 1265 : 		if ( _type == ITEMGET(12,38) ) // wings of fortitude

  014d7	81 fb 26 18 00
	00		 cmp	 ebx, 6182		; 00001826H
  014dd	74 87		 je	 SHORT $LN538@Convert

; 1266 : 		{
; 1267 : 			m_Option3 = Option3;
; 1268 : 			m_Special[m_SpecialNum] = 85;
; 1269 : 
; 1270 : 			if ( (m_NewOption&0x10) != 0 )
; 1271 : 			{
; 1272 : 				m_Special[m_SpecialNum] = 80;
; 1273 : 			}
; 1274 : 			else if( (m_NewOption&0x20) != 0 )
; 1275 : 			{
; 1276 : 				m_Special[m_SpecialNum] = 83;
; 1277 : 			}
; 1278 : 		}
; 1279 : 		if ( _type == ITEMGET(12,39) ) // wings of hurricane

  014df	81 fb 27 18 00
	00		 cmp	 ebx, 6183		; 00001827H
  014e5	75 3d		 jne	 SHORT $LN320@Convert

; 1280 : 		{
; 1281 : 			m_Option3 = Option3;
; 1282 : 			m_Special[m_SpecialNum] = 85;

  014e7	0f b6 46 30	 movzx	 eax, BYTE PTR [esi+48]
  014eb	88 96 92 00 00
	00		 mov	 BYTE PTR [esi+146], dl
  014f1	66 89 4c 46 32	 mov	 WORD PTR [esi+eax*2+50], cx

; 1283 : 
; 1284 : 			if ( (m_NewOption&0x10) != 0 )

  014f6	8a 86 93 00 00
	00		 mov	 al, BYTE PTR [esi+147]
  014fc	a8 10		 test	 al, 16			; 00000010H
  014fe	0f 85 7d 01 00
	00		 jne	 $LN539@Convert

; 1291 : 			}
; 1292 : 		}
; 1293 : 
; 1294 : #if ( CUSTOM_WINGS == 1)
; 1295 : 		if ( _type == ITEMGET(12,440) || _type == ITEMGET(12,441) || _type == ITEMGET(12,444) )
; 1296 : 		{
; 1297 : 			m_Option3 = Option3;
; 1298 : 			m_Special[m_SpecialNum] = 85;
; 1299 : 
; 1300 : 			if ( (m_NewOption&0x10) != 0 )
; 1301 : 			{
; 1302 : 				m_Special[m_SpecialNum] = 80;
; 1303 : 			}
; 1304 : 			else if( (m_NewOption&0x20) != 0 )
; 1305 : 			{
; 1306 : 				m_Special[m_SpecialNum] = 83;
; 1307 : 			}
; 1308 : 		}
; 1309 : 		else if ( _type == ITEMGET(12,442) )
; 1310 : 		{
; 1311 : 			m_Option3 = Option3;
; 1312 : 			m_Special[m_SpecialNum] = 85;
; 1313 : 
; 1314 : 			if ( (m_NewOption&0x10) != 0 )
; 1315 : 			{
; 1316 : 				m_Special[m_SpecialNum] = 81;
; 1317 : 			}
; 1318 : 			else if( (m_NewOption&0x20) != 0 )
; 1319 : 			{
; 1320 : 				m_Special[m_SpecialNum] = 83;
; 1321 : 			}
; 1322 : 		}
; 1323 : 		else if ( _type == ITEMGET(12,443) )
; 1324 : 		{
; 1325 : 			m_Option3 = Option3;
; 1326 : 			m_Special[m_SpecialNum] = 85;
; 1327 : 
; 1328 : 			if ( (m_NewOption&0x10) != 0 )
; 1329 : 			{
; 1330 : 				m_Special[m_SpecialNum] = 80;
; 1331 : 			}
; 1332 : 			else if( (m_NewOption&0x20) != 0 )
; 1333 : 			{
; 1334 : 				m_Special[m_SpecialNum] = 81;
; 1335 : 			}
; 1336 : 		}
; 1337 : 		else if ( _type == ITEMGET(12,445)	)
; 1338 : 		{
; 1339 : 			m_Option3 = Option3;
; 1340 : 			m_Special[m_SpecialNum] = 85;
; 1341 : 
; 1342 : 			if( (m_NewOption&0x10) != 0 )
; 1343 : 			{
; 1344 : 				m_Special[m_SpecialNum] = 81;
; 1345 : 			}
; 1346 : 			else if( (m_NewOption&0x20) != 0 )
; 1347 : 			{
; 1348 : 				m_Special[m_SpecialNum] = 0x71;
; 1349 : 			}
; 1350 : 		}
; 1351 : #endif
; 1352 : 		
; 1353 : 		if ( _type == ITEMGET(12,40) )

  01504	bf 61 00 00 00	 mov	 edi, 97			; 00000061H
  01509	a8 20		 test	 al, 32			; 00000020H
  0150b	0f 84 7e 01 00
	00		 je	 $LN345@Convert

; 1285 : 			{
; 1286 : 				m_Special[m_SpecialNum] = 80;
; 1287 : 			}
; 1288 : 			else if( (m_NewOption&0x20) != 0 )
; 1289 : 			{
; 1290 : 				m_Special[m_SpecialNum] = 81;

  01511	0f b6 46 30	 movzx	 eax, BYTE PTR [esi+48]
  01515	b9 51 00 00 00	 mov	 ecx, 81			; 00000051H
  0151a	66 89 4c 46 32	 mov	 WORD PTR [esi+eax*2+50], cx

; 1291 : 			}
; 1292 : 		}
; 1293 : 
; 1294 : #if ( CUSTOM_WINGS == 1)
; 1295 : 		if ( _type == ITEMGET(12,440) || _type == ITEMGET(12,441) || _type == ITEMGET(12,444) )
; 1296 : 		{
; 1297 : 			m_Option3 = Option3;
; 1298 : 			m_Special[m_SpecialNum] = 85;
; 1299 : 
; 1300 : 			if ( (m_NewOption&0x10) != 0 )
; 1301 : 			{
; 1302 : 				m_Special[m_SpecialNum] = 80;
; 1303 : 			}
; 1304 : 			else if( (m_NewOption&0x20) != 0 )
; 1305 : 			{
; 1306 : 				m_Special[m_SpecialNum] = 83;
; 1307 : 			}
; 1308 : 		}
; 1309 : 		else if ( _type == ITEMGET(12,442) )
; 1310 : 		{
; 1311 : 			m_Option3 = Option3;
; 1312 : 			m_Special[m_SpecialNum] = 85;
; 1313 : 
; 1314 : 			if ( (m_NewOption&0x10) != 0 )
; 1315 : 			{
; 1316 : 				m_Special[m_SpecialNum] = 81;
; 1317 : 			}
; 1318 : 			else if( (m_NewOption&0x20) != 0 )
; 1319 : 			{
; 1320 : 				m_Special[m_SpecialNum] = 83;
; 1321 : 			}
; 1322 : 		}
; 1323 : 		else if ( _type == ITEMGET(12,443) )
; 1324 : 		{
; 1325 : 			m_Option3 = Option3;
; 1326 : 			m_Special[m_SpecialNum] = 85;
; 1327 : 
; 1328 : 			if ( (m_NewOption&0x10) != 0 )
; 1329 : 			{
; 1330 : 				m_Special[m_SpecialNum] = 80;
; 1331 : 			}
; 1332 : 			else if( (m_NewOption&0x20) != 0 )
; 1333 : 			{
; 1334 : 				m_Special[m_SpecialNum] = 81;
; 1335 : 			}
; 1336 : 		}
; 1337 : 		else if ( _type == ITEMGET(12,445)	)
; 1338 : 		{
; 1339 : 			m_Option3 = Option3;
; 1340 : 			m_Special[m_SpecialNum] = 85;
; 1341 : 
; 1342 : 			if( (m_NewOption&0x10) != 0 )
; 1343 : 			{
; 1344 : 				m_Special[m_SpecialNum] = 81;
; 1345 : 			}
; 1346 : 			else if( (m_NewOption&0x20) != 0 )
; 1347 : 			{
; 1348 : 				m_Special[m_SpecialNum] = 0x71;
; 1349 : 			}
; 1350 : 		}
; 1351 : #endif
; 1352 : 		
; 1353 : 		if ( _type == ITEMGET(12,40) )

  0151f	e9 6b 01 00 00	 jmp	 $LN345@Convert
$LN320@Convert:
  01524	81 fb 28 18 00
	00		 cmp	 ebx, 6184		; 00001828H
  0152a	0f 84 36 ff ff
	ff		 je	 $LN538@Convert

; 1354 : 		{
; 1355 : 			m_Option3 = Option3;
; 1356 : 			m_Special[m_SpecialNum] = 85;
; 1357 : 
; 1358 : 			if ( (m_NewOption&0x10) != 0 )
; 1359 : 			{
; 1360 : 				m_Special[m_SpecialNum] = 80;
; 1361 : 			}
; 1362 : 			else if( (m_NewOption&0x20) != 0 )
; 1363 : 			{
; 1364 : 				m_Special[m_SpecialNum] = 83;
; 1365 : 			}
; 1366 : 		}
; 1367 : 		else if ( _type == ITEMGET(12,41) ) // summoner 1st wings

  01530	81 fb 29 18 00
	00		 cmp	 ebx, 6185		; 00001829H
  01536	75 13		 jne	 SHORT $LN326@Convert

; 1368 : 		{
; 1369 : 			m_Special[m_SpecialNum] = 81;

  01538	0f b6 46 30	 movzx	 eax, BYTE PTR [esi+48]
  0153c	b9 51 00 00 00	 mov	 ecx, 81			; 00000051H
  01541	66 89 4c 46 32	 mov	 WORD PTR [esi+eax*2+50], cx

; 1370 : 			m_Option3 = Option3;
; 1371 : 			m_RequireStrength +=  Option3 * 4;

  01546	e9 82 fd ff ff	 jmp	 $LN532@Convert
$LN326@Convert:

; 1372 : 		}
; 1373 : 		else if ( _type == ITEMGET(12,42)	) // summoner 2nd wings

  0154b	81 fb 2a 18 00
	00		 cmp	 ebx, 6186		; 0000182aH
  01551	75 32		 jne	 SHORT $LN328@Convert

; 1374 : 		{
; 1375 : 			m_Option3 = Option3;
; 1376 : 			m_RequireStrength +=  Option3 * 4;

  01553	0f b6 c2	 movzx	 eax, dl

; 1381 : 			}
; 1382 : 			else

  01556	bf 61 00 00 00	 mov	 edi, 97			; 00000061H
  0155b	66 c1 e0 02	 shl	 ax, 2
  0155f	66 01 46 52	 add	 WORD PTR [esi+82], ax
  01563	f6 86 93 00 00
	00 20		 test	 BYTE PTR [esi+147], 32	; 00000020H
  0156a	0f b6 46 30	 movzx	 eax, BYTE PTR [esi+48]
  0156e	88 96 92 00 00
	00		 mov	 BYTE PTR [esi+146], dl
  01574	74 54		 je	 SHORT $LN330@Convert

; 1377 : 
; 1378 : 			if ( (m_NewOption&0x20) != 0 )
; 1379 : 			{
; 1380 : 				m_Special[m_SpecialNum] = 81;

  01576	b9 51 00 00 00	 mov	 ecx, 81			; 00000051H
  0157b	66 89 4c 46 32	 mov	 WORD PTR [esi+eax*2+50], cx

; 1381 : 			}
; 1382 : 			else

  01580	e9 0a 01 00 00	 jmp	 $LN345@Convert
$LN328@Convert:

; 1383 : 			{
; 1384 : 				m_Special[m_SpecialNum] = 0x71;
; 1385 : 			}
; 1386 : 		}
; 1387 : 		else if ( _type == ITEMGET(12,43)	)

  01585	81 fb 2b 18 00
	00		 cmp	 ebx, 6187		; 0000182bH
  0158b	75 4c		 jne	 SHORT $LN332@Convert

; 1388 : 		{
; 1389 : 			m_Option3 = Option3;
; 1390 : 			m_Special[m_SpecialNum] = 85;

  0158d	0f b6 46 30	 movzx	 eax, BYTE PTR [esi+48]
  01591	88 96 92 00 00
	00		 mov	 BYTE PTR [esi+146], dl
  01597	66 89 4c 46 32	 mov	 WORD PTR [esi+eax*2+50], cx

; 1391 : 
; 1392 : 			if( (m_NewOption&0x10) != 0 )

  0159c	8a 86 93 00 00
	00		 mov	 al, BYTE PTR [esi+147]
  015a2	a8 10		 test	 al, 16			; 00000010H
  015a4	74 13		 je	 SHORT $LN334@Convert

; 1393 : 			{
; 1394 : 				m_Special[m_SpecialNum] = 81;

  015a6	0f b6 46 30	 movzx	 eax, BYTE PTR [esi+48]
  015aa	b9 51 00 00 00	 mov	 ecx, 81			; 00000051H
  015af	66 89 4c 46 32	 mov	 WORD PTR [esi+eax*2+50], cx
  015b4	e9 d1 00 00 00	 jmp	 $LN499@Convert
$LN334@Convert:

; 1399 : 			}
; 1400 : 		}

  015b9	bf 61 00 00 00	 mov	 edi, 97			; 00000061H
  015be	a8 20		 test	 al, 32			; 00000020H
  015c0	0f 84 c9 00 00
	00		 je	 $LN345@Convert

; 1395 : 			}
; 1396 : 			else if( (m_NewOption&0x20) != 0 )
; 1397 : 			{
; 1398 : 				m_Special[m_SpecialNum] = 0x71;

  015c6	0f b6 46 30	 movzx	 eax, BYTE PTR [esi+48]
$LN330@Convert:
  015ca	b9 71 00 00 00	 mov	 ecx, 113		; 00000071H
  015cf	66 89 4c 46 32	 mov	 WORD PTR [esi+eax*2+50], cx

; 1399 : 			}
; 1400 : 		}

  015d4	e9 b6 00 00 00	 jmp	 $LN345@Convert
$LN332@Convert:

; 1401 : 		else if ( _type == ITEMGET(12,50) )

  015d9	81 fb 32 18 00
	00		 cmp	 ebx, 6194		; 00001832H
  015df	0f 84 81 fe ff
	ff		 je	 $LN538@Convert

; 1416 : 				  _type == ITEMGET(12,263) ||

  015e5	81 fb 06 19 00
	00		 cmp	 ebx, 6406		; 00001906H
  015eb	74 7c		 je	 SHORT $LN344@Convert
  015ed	81 fb 07 19 00
	00		 cmp	 ebx, 6407		; 00001907H
  015f3	74 74		 je	 SHORT $LN344@Convert
  015f5	81 fb 09 19 00
	00		 cmp	 ebx, 6409		; 00001909H
  015fb	74 6c		 je	 SHORT $LN344@Convert

; 1425 : 			}
; 1426 : 		}
; 1427 : 		else if ( _type == ITEMGET(12,264) )	// DW/SUM/MG 2.5

  015fd	81 fb 08 19 00
	00		 cmp	 ebx, 6408		; 00001908H
  01603	75 2d		 jne	 SHORT $LN346@Convert

; 1428 : 		{
; 1429 : 			m_Option3 = Option3;
; 1430 : 			m_Special[m_SpecialNum] = 85;

  01605	0f b6 46 30	 movzx	 eax, BYTE PTR [esi+48]

; 1435 : 			}
; 1436 : 		}

  01609	bf 61 00 00 00	 mov	 edi, 97			; 00000061H
  0160e	88 96 92 00 00
	00		 mov	 BYTE PTR [esi+146], dl
  01614	66 89 4c 46 32	 mov	 WORD PTR [esi+eax*2+50], cx
  01619	f6 86 93 00 00
	00 10		 test	 BYTE PTR [esi+147], 16	; 00000010H
  01620	74 6d		 je	 SHORT $LN345@Convert

; 1431 : 
; 1432 : 			if ( (m_NewOption&0x10) != 0 )
; 1433 : 			{
; 1434 : 				m_Special[m_SpecialNum] = 81;

  01622	0f b6 46 30	 movzx	 eax, BYTE PTR [esi+48]
  01626	b9 51 00 00 00	 mov	 ecx, 81			; 00000051H
  0162b	66 89 4c 46 32	 mov	 WORD PTR [esi+eax*2+50], cx

; 1435 : 			}
; 1436 : 		}

  01630	eb 5d		 jmp	 SHORT $LN345@Convert
$LN346@Convert:

; 1437 : 		else if ( _type == ITEMGET(12,266) )

  01632	81 fb 0a 19 00
	00		 cmp	 ebx, 6410		; 0000190aH
  01638	75 11		 jne	 SHORT $LN349@Convert

; 1438 : 		{
; 1439 : 			m_Option3 = Option3;
; 1440 : 			m_Special[m_SpecialNum] = 85;

  0163a	0f b6 46 30	 movzx	 eax, BYTE PTR [esi+48]
  0163e	88 96 92 00 00
	00		 mov	 BYTE PTR [esi+146], dl
  01644	66 89 4c 46 32	 mov	 WORD PTR [esi+eax*2+50], cx
  01649	eb 3f		 jmp	 SHORT $LN499@Convert
$LN349@Convert:

; 1441 : 		}
; 1442 : 		else if ( _type == ITEMGET(12,267) )
; 1443 : 		{
; 1444 : 			m_Option3 = Option3;
; 1445 : 			m_Special[m_SpecialNum] = 85;

  0164b	bf 61 00 00 00	 mov	 edi, 97			; 00000061H
  01650	81 fb 0b 19 00
	00		 cmp	 ebx, 6411		; 0000190bH
  01656	75 37		 jne	 SHORT $LN345@Convert
  01658	0f b6 46 30	 movzx	 eax, BYTE PTR [esi+48]
  0165c	88 96 92 00 00
	00		 mov	 BYTE PTR [esi+146], dl
$LN287@Convert:
  01662	66 89 4c 46 32	 mov	 WORD PTR [esi+eax*2+50], cx
  01667	eb 26		 jmp	 SHORT $LN345@Convert
$LN344@Convert:

; 1417 : 				  _type == ITEMGET(12,265) )	// DL / RF / DK / ELF/MG	2.5
; 1418 : 		{
; 1419 : 			m_Option3 = Option3;
; 1420 : 			m_Special[m_SpecialNum] = 85;

  01669	0f b6 46 30	 movzx	 eax, BYTE PTR [esi+48]
  0166d	88 96 92 00 00
	00		 mov	 BYTE PTR [esi+146], dl
  01673	66 89 4c 46 32	 mov	 WORD PTR [esi+eax*2+50], cx

; 1421 : 
; 1422 : 			if ( (m_NewOption&0x10) != 0 )

  01678	f6 86 93 00 00
	00 10		 test	 BYTE PTR [esi+147], 16	; 00000010H
  0167f	74 09		 je	 SHORT $LN499@Convert
$LN539@Convert:

; 1423 : 			{
; 1424 : 				m_Special[m_SpecialNum] = 80;

  01681	0f b6 46 30	 movzx	 eax, BYTE PTR [esi+48]
$LN283@Convert:
  01685	66 89 7c 46 32	 mov	 WORD PTR [esi+eax*2+50], di
$LN499@Convert:
  0168a	bf 61 00 00 00	 mov	 edi, 97			; 00000061H
$LN345@Convert:

; 1446 : 		}
; 1447 : 	}
; 1448 : 
; 1449 : 	m_SpecialNum++;

  0168f	fe 46 30	 inc	 BYTE PTR [esi+48]
  01692	8a 56 30	 mov	 dl, BYTE PTR [esi+48]

; 1450 : 
; 1451 : 	if ( (_type >=ITEMGET(6,0) && _type <ITEMGET(12,0) ) || ( _type >=ITEMGET(13,8) && _type <= ITEMGET(13,9)) || (_type>=ITEMGET(13,21) && _type <= ITEMGET(13,24) ) )

  01695	81 fb 00 0c 00
	00		 cmp	 ebx, 3072		; 00000c00H
  0169b	7c 08		 jl	 SHORT $LN354@Convert
  0169d	81 fb 00 18 00
	00		 cmp	 ebx, 6144		; 00001800H
  016a3	7c 1f		 jl	 SHORT $LN353@Convert
$LN354@Convert:
  016a5	81 fb 08 1a 00
	00		 cmp	 ebx, 6664		; 00001a08H
  016ab	7c 08		 jl	 SHORT $LN355@Convert
  016ad	81 fb 09 1a 00
	00		 cmp	 ebx, 6665		; 00001a09H
  016b3	7e 0f		 jle	 SHORT $LN353@Convert
$LN355@Convert:
  016b5	8d 83 eb e5 ff
	ff		 lea	 eax, DWORD PTR [ebx-6677]
  016bb	83 f8 03	 cmp	 eax, 3
  016be	0f 87 a8 00 00
	00		 ja	 $LN361@Convert
$LN353@Convert:

; 1452 : 	{
; 1453 : 		if ( ((m_NewOption>>5)&1) != 0 )

  016c4	f6 86 93 00 00
	00 20		 test	 BYTE PTR [esi+147], 32	; 00000020H
  016cb	74 13		 je	 SHORT $LN356@Convert

; 1454 : 		{
; 1455 : 			m_Special[m_SpecialNum] = 0x56;

  016cd	0f b6 c2	 movzx	 eax, dl
  016d0	b9 56 00 00 00	 mov	 ecx, 86			; 00000056H
  016d5	66 89 4c 46 32	 mov	 WORD PTR [esi+eax*2+50], cx

; 1456 : 			m_SpecialNum++;

  016da	fe 46 30	 inc	 BYTE PTR [esi+48]
  016dd	8a 56 30	 mov	 dl, BYTE PTR [esi+48]
$LN356@Convert:

; 1457 : 		}
; 1458 : 
; 1459 : 		if ( ((m_NewOption>>4)&1) != 0 )

  016e0	f6 86 93 00 00
	00 10		 test	 BYTE PTR [esi+147], 16	; 00000010H
  016e7	74 13		 je	 SHORT $LN357@Convert

; 1460 : 		{
; 1461 : 			m_Special[m_SpecialNum] = 0x57;

  016e9	0f b6 c2	 movzx	 eax, dl
  016ec	b9 57 00 00 00	 mov	 ecx, 87			; 00000057H
  016f1	66 89 4c 46 32	 mov	 WORD PTR [esi+eax*2+50], cx

; 1462 : 			m_SpecialNum++;

  016f6	fe 46 30	 inc	 BYTE PTR [esi+48]
  016f9	8a 56 30	 mov	 dl, BYTE PTR [esi+48]
$LN357@Convert:

; 1463 : 		}
; 1464 : 
; 1465 : 		if ( ((m_NewOption>>3)&1) != 0 )

  016fc	f6 86 93 00 00
	00 08		 test	 BYTE PTR [esi+147], 8
  01703	74 13		 je	 SHORT $LN358@Convert

; 1466 : 		{
; 1467 : 			m_Special[m_SpecialNum] = 0x58;

  01705	0f b6 c2	 movzx	 eax, dl
  01708	b9 58 00 00 00	 mov	 ecx, 88			; 00000058H
  0170d	66 89 4c 46 32	 mov	 WORD PTR [esi+eax*2+50], cx

; 1468 : 			m_SpecialNum++;

  01712	fe 46 30	 inc	 BYTE PTR [esi+48]
  01715	8a 56 30	 mov	 dl, BYTE PTR [esi+48]
$LN358@Convert:

; 1469 : 		}
; 1470 : 
; 1471 : 		if ( ((m_NewOption>>2)&1) != 0 )

  01718	f6 86 93 00 00
	00 04		 test	 BYTE PTR [esi+147], 4
  0171f	74 13		 je	 SHORT $LN359@Convert

; 1472 : 		{
; 1473 : 			m_Special[m_SpecialNum] = 0x59;

  01721	0f b6 c2	 movzx	 eax, dl
  01724	b9 59 00 00 00	 mov	 ecx, 89			; 00000059H
  01729	66 89 4c 46 32	 mov	 WORD PTR [esi+eax*2+50], cx

; 1474 : 			m_SpecialNum++;

  0172e	fe 46 30	 inc	 BYTE PTR [esi+48]
  01731	8a 56 30	 mov	 dl, BYTE PTR [esi+48]
$LN359@Convert:

; 1475 : 		}
; 1476 : 
; 1477 : 		if ( ((m_NewOption>>1)&1) != 0 )

  01734	f6 86 93 00 00
	00 02		 test	 BYTE PTR [esi+147], 2
  0173b	74 13		 je	 SHORT $LN360@Convert

; 1478 : 		{
; 1479 : 			m_Special[m_SpecialNum] = 0x5A;

  0173d	0f b6 c2	 movzx	 eax, dl
  01740	b9 5a 00 00 00	 mov	 ecx, 90			; 0000005aH
  01745	66 89 4c 46 32	 mov	 WORD PTR [esi+eax*2+50], cx

; 1480 : 			m_SpecialNum++;

  0174a	fe 46 30	 inc	 BYTE PTR [esi+48]
  0174d	8a 56 30	 mov	 dl, BYTE PTR [esi+48]
$LN360@Convert:

; 1481 : 		}
; 1482 : 
; 1483 : 		if ( ((m_NewOption)&1) != 0 )

  01750	f6 86 93 00 00
	00 01		 test	 BYTE PTR [esi+147], 1
  01757	74 13		 je	 SHORT $LN361@Convert

; 1484 : 		{
; 1485 : 			m_Special[m_SpecialNum] = 0x5B;

  01759	0f b6 c2	 movzx	 eax, dl
  0175c	b9 5b 00 00 00	 mov	 ecx, 91			; 0000005bH
  01761	66 89 4c 46 32	 mov	 WORD PTR [esi+eax*2+50], cx

; 1486 : 			m_SpecialNum++;

  01766	fe 46 30	 inc	 BYTE PTR [esi+48]
  01769	8a 56 30	 mov	 dl, BYTE PTR [esi+48]
$LN361@Convert:

; 1487 : 		}
; 1488 : 	}
; 1489 : 
; 1490 : 	/*if ( (_type >=ITEMGET(0,0) && _type <ITEMGET(6,0) ) || ( _type >=ITEMGET(13,12) && _type <= ITEMGET(13,13)) || (_type>=ITEMGET(13,25) && _type <= ITEMGET(13,28) ) )
; 1491 : 	{
; 1492 : 		if ( ((m_NewOption>>5)&1) != 0 )
; 1493 : 		{
; 1494 : 			m_Special[m_SpecialNum] = 0x5C;
; 1495 : 			m_SpecialNum++;
; 1496 : 		}
; 1497 : 
; 1498 : 		if ( (_type >=ITEMGET(5,0) && _type <ITEMGET(6,0) ) || (_type ==ITEMGET(13,12) ) || (_type == ITEMGET(13,25)) || (_type == ITEMGET(13,27) ) )
; 1499 : 		{
; 1500 : 			if ( ((m_NewOption>>4)&1) != 0 )
; 1501 : 			{
; 1502 : 				m_Special[m_SpecialNum] = 0x5F;
; 1503 : 				m_SpecialNum++;
; 1504 : 			}
; 1505 : 			if ( ((m_NewOption>>3)&1) != 0 )
; 1506 : 			{
; 1507 : 				m_Special[m_SpecialNum] = 0x60;
; 1508 : 				m_SpecialNum++;
; 1509 : 			}
; 1510 : 		}
; 1511 : 		else
; 1512 : 		{
; 1513 : 			if ( ((m_NewOption>>4)&1) != 0 )
; 1514 : 			{
; 1515 : 				m_Special[m_SpecialNum] = 0x5D;
; 1516 : 				m_SpecialNum++;
; 1517 : 			}
; 1518 : 			if ( ((m_NewOption>>3)&1) != 0 )
; 1519 : 			{
; 1520 : 				m_Special[m_SpecialNum] = 0x5E;
; 1521 : 				m_SpecialNum++;
; 1522 : 			}
; 1523 : 		}
; 1524 : 
; 1525 : 		if ( ((m_NewOption>>2)&1) != 0 )
; 1526 : 		{
; 1527 : 			m_Special[m_SpecialNum] = 0x61;
; 1528 : 			m_SpecialNum++;
; 1529 : 		}
; 1530 : 
; 1531 : 		if ( ((m_NewOption>>1)&1) != 0 )
; 1532 : 		{
; 1533 : 			m_Special[m_SpecialNum] = 0x62;
; 1534 : 			m_SpecialNum++;
; 1535 : 		}
; 1536 : 
; 1537 : 		if ( ((m_NewOption)&1) != 0 )
; 1538 : 		{
; 1539 : 			m_Special[m_SpecialNum] = 0x63;
; 1540 : 			m_SpecialNum++;
; 1541 : 		}
; 1542 : 	}*/
; 1543 : 
; 1544 : 	if ((_type >= ITEMGET(0,0)    && _type <ITEMGET(6,0) )    ||
; 1545 : 		(_type >= ITEMGET(13,12)  && _type <= ITEMGET(13,13)) ||
; 1546 : 		(_type >= ITEMGET(13,25)  && _type <= ITEMGET(13,28))	||
; 1547 : 		_type == ITEMGET(13,109) || _type == ITEMGET(13,113) || 
; 1548 : 		_type == ITEMGET(13,114) || _type == ITEMGET(13,115))

  0176c	85 db		 test	 ebx, ebx
  0176e	78 08		 js	 SHORT $LN364@Convert
  01770	81 fb 00 0c 00
	00		 cmp	 ebx, 3072		; 00000c00H
  01776	7c 44		 jl	 SHORT $LN363@Convert
$LN364@Convert:
  01778	81 fb 0c 1a 00
	00		 cmp	 ebx, 6668		; 00001a0cH
  0177e	7c 08		 jl	 SHORT $LN365@Convert
  01780	81 fb 0d 1a 00
	00		 cmp	 ebx, 6669		; 00001a0dH
  01786	7e 34		 jle	 SHORT $LN363@Convert
$LN365@Convert:
  01788	81 fb 19 1a 00
	00		 cmp	 ebx, 6681		; 00001a19H
  0178e	7c 08		 jl	 SHORT $LN366@Convert
  01790	81 fb 1c 1a 00
	00		 cmp	 ebx, 6684		; 00001a1cH
  01796	7e 24		 jle	 SHORT $LN363@Convert
$LN366@Convert:
  01798	81 fb 6d 1a 00
	00		 cmp	 ebx, 6765		; 00001a6dH
  0179e	74 1c		 je	 SHORT $LN363@Convert
  017a0	81 fb 71 1a 00
	00		 cmp	 ebx, 6769		; 00001a71H
  017a6	74 14		 je	 SHORT $LN363@Convert
  017a8	81 fb 72 1a 00
	00		 cmp	 ebx, 6770		; 00001a72H
  017ae	74 0c		 je	 SHORT $LN363@Convert
  017b0	81 fb 73 1a 00
	00		 cmp	 ebx, 6771		; 00001a73H
  017b6	0f 85 0b 01 00
	00		 jne	 $LN378@Convert
$LN363@Convert:

; 1549 : 	{
; 1550 : 		if (((m_NewOption>>5)&1) != 0)

  017bc	f6 86 93 00 00
	00 20		 test	 BYTE PTR [esi+147], 32	; 00000020H
  017c3	74 13		 je	 SHORT $LN367@Convert

; 1551 : 		{
; 1552 : 			m_Special[m_SpecialNum] = 0x5C;

  017c5	0f b6 c2	 movzx	 eax, dl
  017c8	b9 5c 00 00 00	 mov	 ecx, 92			; 0000005cH
  017cd	66 89 4c 46 32	 mov	 WORD PTR [esi+eax*2+50], cx

; 1553 : 			m_SpecialNum++;

  017d2	fe 46 30	 inc	 BYTE PTR [esi+48]
  017d5	8a 56 30	 mov	 dl, BYTE PTR [esi+48]
$LN367@Convert:

; 1554 : 		}
; 1555 : 		
; 1556 : 		if ((_type >= ITEMGET(5,0)    &&  _type <ITEMGET(6,0))      ||
; 1557 : 			(_type == ITEMGET(13,12)) || (_type == ITEMGET(13,25))  ||
; 1558 : 			(_type == ITEMGET(13,27)) || (_type == ITEMGET(13,109)) ||

  017d8	81 fb 00 0a 00
	00		 cmp	 ebx, 2560		; 00000a00H
  017de	7c 08		 jl	 SHORT $LN371@Convert
  017e0	81 fb 00 0c 00
	00		 cmp	 ebx, 3072		; 00000c00H
  017e6	7c 54		 jl	 SHORT $LN370@Convert
$LN371@Convert:
  017e8	81 fb 0c 1a 00
	00		 cmp	 ebx, 6668		; 00001a0cH
  017ee	74 4c		 je	 SHORT $LN370@Convert
  017f0	81 fb 19 1a 00
	00		 cmp	 ebx, 6681		; 00001a19H
  017f6	74 44		 je	 SHORT $LN370@Convert
  017f8	81 fb 1b 1a 00
	00		 cmp	 ebx, 6683		; 00001a1bH
  017fe	74 3c		 je	 SHORT $LN370@Convert
  01800	81 fb 6d 1a 00
	00		 cmp	 ebx, 6765		; 00001a6dH
  01806	74 34		 je	 SHORT $LN370@Convert
  01808	81 fb 73 1a 00
	00		 cmp	 ebx, 6771		; 00001a73H
  0180e	74 2c		 je	 SHORT $LN370@Convert

; 1571 : 			}
; 1572 : 		}
; 1573 : 		else
; 1574 : 		{
; 1575 : 			if (((m_NewOption>>4)&1) != 0)

  01810	f6 86 93 00 00
	00 10		 test	 BYTE PTR [esi+147], 16	; 00000010H
  01817	74 13		 je	 SHORT $LN374@Convert

; 1576 : 			{
; 1577 : 				m_Special[m_SpecialNum] = 0x5D;

  01819	0f b6 c2	 movzx	 eax, dl
  0181c	b9 5d 00 00 00	 mov	 ecx, 93			; 0000005dH
  01821	66 89 4c 46 32	 mov	 WORD PTR [esi+eax*2+50], cx

; 1578 : 				m_SpecialNum++;

  01826	fe 46 30	 inc	 BYTE PTR [esi+48]
  01829	8a 56 30	 mov	 dl, BYTE PTR [esi+48]
$LN374@Convert:

; 1579 : 			}
; 1580 : 			if (((m_NewOption>>3)&1) != 0)

  0182c	f6 86 93 00 00
	00 08		 test	 BYTE PTR [esi+147], 8
  01833	74 3f		 je	 SHORT $LN373@Convert

; 1581 : 			{
; 1582 : 				m_Special[m_SpecialNum] = 0x5E;

  01835	b9 5e 00 00 00	 mov	 ecx, 94			; 0000005eH

; 1583 : 				m_SpecialNum++;

  0183a	eb 2a		 jmp	 SHORT $LN535@Convert
$LN370@Convert:

; 1559 : 			(_type == ITEMGET(13,115)))
; 1560 : 		{
; 1561 : 			if (((m_NewOption>>4)&1) != 0)

  0183c	f6 86 93 00 00
	00 10		 test	 BYTE PTR [esi+147], 16	; 00000010H
  01843	74 13		 je	 SHORT $LN372@Convert

; 1562 : 			{
; 1563 : 				m_Special[m_SpecialNum] = 0x5F;

  01845	0f b6 c2	 movzx	 eax, dl
  01848	b9 5f 00 00 00	 mov	 ecx, 95			; 0000005fH
  0184d	66 89 4c 46 32	 mov	 WORD PTR [esi+eax*2+50], cx

; 1564 : 				m_SpecialNum++;

  01852	fe 46 30	 inc	 BYTE PTR [esi+48]
  01855	8a 56 30	 mov	 dl, BYTE PTR [esi+48]
$LN372@Convert:

; 1565 : 			}
; 1566 : 			
; 1567 : 			if (((m_NewOption>>3)&1) != 0)

  01858	f6 86 93 00 00
	00 08		 test	 BYTE PTR [esi+147], 8
  0185f	74 13		 je	 SHORT $LN373@Convert

; 1568 : 			{
; 1569 : 				m_Special[m_SpecialNum] = 0x60;

  01861	b9 60 00 00 00	 mov	 ecx, 96			; 00000060H
$LN535@Convert:
  01866	0f b6 c2	 movzx	 eax, dl
  01869	66 89 4c 46 32	 mov	 WORD PTR [esi+eax*2+50], cx

; 1570 : 				m_SpecialNum++;

  0186e	fe 46 30	 inc	 BYTE PTR [esi+48]
  01871	8a 56 30	 mov	 dl, BYTE PTR [esi+48]
$LN373@Convert:

; 1584 : 			}
; 1585 : 		}
; 1586 : 		
; 1587 : 		if (((m_NewOption>>2)&1) != 0)

  01874	f6 86 93 00 00
	00 04		 test	 BYTE PTR [esi+147], 4
  0187b	74 12		 je	 SHORT $LN376@Convert

; 1588 : 		{
; 1589 : 			m_Special[m_SpecialNum]		= 0x61;

  0187d	0f b6 c2	 movzx	 eax, dl
  01880	66 89 7c 46 32	 mov	 WORD PTR [esi+eax*2+50], di

; 1590 : 			m_SpecialNum++;

  01885	fe 46 30	 inc	 BYTE PTR [esi+48]
  01888	8a 56 30	 mov	 dl, BYTE PTR [esi+48]

; 1591 : 			m_AttackSpeed					   += 7;

  0188b	80 46 0d 07	 add	 BYTE PTR [esi+13], 7
$LN376@Convert:

; 1592 : 		}
; 1593 : 		
; 1594 : 		if (((m_NewOption>>1)&1) != 0)

  0188f	f6 86 93 00 00
	00 02		 test	 BYTE PTR [esi+147], 2
  01896	74 13		 je	 SHORT $LN377@Convert

; 1595 : 		{
; 1596 : 			m_Special[m_SpecialNum]		= 0x62;

  01898	0f b6 c2	 movzx	 eax, dl
  0189b	b9 62 00 00 00	 mov	 ecx, 98			; 00000062H
  018a0	66 89 4c 46 32	 mov	 WORD PTR [esi+eax*2+50], cx

; 1597 : 			m_SpecialNum++;

  018a5	fe 46 30	 inc	 BYTE PTR [esi+48]
  018a8	8a 56 30	 mov	 dl, BYTE PTR [esi+48]
$LN377@Convert:

; 1598 : 		}
; 1599 : 		
; 1600 : 		if (((m_NewOption)&1) != 0)

  018ab	f6 86 93 00 00
	00 01		 test	 BYTE PTR [esi+147], 1
  018b2	74 13		 je	 SHORT $LN378@Convert

; 1601 : 		{
; 1602 : 			m_Special[m_SpecialNum]		= 0x63;

  018b4	0f b6 c2	 movzx	 eax, dl
  018b7	b9 63 00 00 00	 mov	 ecx, 99			; 00000063H
  018bc	66 89 4c 46 32	 mov	 WORD PTR [esi+eax*2+50], cx

; 1603 : 			m_SpecialNum++;

  018c1	fe 46 30	 inc	 BYTE PTR [esi+48]
  018c4	8a 56 30	 mov	 dl, BYTE PTR [esi+48]
$LN378@Convert:

; 1604 : 		}
; 1605 : 	}
; 1606 : 
; 1607 : 	if ( ((_type >= ITEMGET(12,3)) && (_type <= ITEMGET(12,6))) || _type ==ITEMGET(13,30) || _type == ITEMGET(12,42) || _type == ITEMGET(12,49) )

  018c7	81 fb 03 18 00
	00		 cmp	 ebx, 6147		; 00001803H
  018cd	7c 08		 jl	 SHORT $LN381@Convert
  018cf	81 fb 06 18 00
	00		 cmp	 ebx, 6150		; 00001806H
  018d5	7e 18		 jle	 SHORT $LN380@Convert
$LN381@Convert:
  018d7	81 fb 1e 1a 00
	00		 cmp	 ebx, 6686		; 00001a1eH
  018dd	74 10		 je	 SHORT $LN380@Convert
  018df	81 fb 2a 18 00
	00		 cmp	 ebx, 6186		; 0000182aH
  018e5	74 08		 je	 SHORT $LN380@Convert
  018e7	81 fb 31 18 00
	00		 cmp	 ebx, 6193		; 00001831H
  018ed	75 70		 jne	 SHORT $LN385@Convert
$LN380@Convert:

; 1608 : 	{
; 1609 : 		if ( ((m_NewOption)&1) != 0 )

  018ef	f6 86 93 00 00
	00 01		 test	 BYTE PTR [esi+147], 1
  018f6	74 13		 je	 SHORT $LN382@Convert

; 1610 : 		{
; 1611 : 			m_Special[m_SpecialNum] = 0x64;

  018f8	0f b6 c2	 movzx	 eax, dl
  018fb	b9 64 00 00 00	 mov	 ecx, 100		; 00000064H
  01900	66 89 4c 46 32	 mov	 WORD PTR [esi+eax*2+50], cx

; 1612 : 			m_SpecialNum++;

  01905	fe 46 30	 inc	 BYTE PTR [esi+48]
  01908	8a 56 30	 mov	 dl, BYTE PTR [esi+48]
$LN382@Convert:

; 1613 : 		}
; 1614 : 
; 1615 : 		if ( ((m_NewOption)&2) != 0 )

  0190b	f6 86 93 00 00
	00 02		 test	 BYTE PTR [esi+147], 2
  01912	74 13		 je	 SHORT $LN383@Convert

; 1616 : 		{
; 1617 : 			m_Special[m_SpecialNum] = 0x65;

  01914	0f b6 c2	 movzx	 eax, dl
  01917	b9 65 00 00 00	 mov	 ecx, 101		; 00000065H
  0191c	66 89 4c 46 32	 mov	 WORD PTR [esi+eax*2+50], cx

; 1618 : 			m_SpecialNum++;

  01921	fe 46 30	 inc	 BYTE PTR [esi+48]
  01924	8a 56 30	 mov	 dl, BYTE PTR [esi+48]
$LN383@Convert:

; 1619 : 		}
; 1620 : 
; 1621 : 		if ( ((m_NewOption)&4) != 0 )

  01927	f6 86 93 00 00
	00 04		 test	 BYTE PTR [esi+147], 4
  0192e	74 13		 je	 SHORT $LN384@Convert

; 1622 : 		{
; 1623 : 			m_Special[m_SpecialNum] = 0x66;

  01930	0f b6 c2	 movzx	 eax, dl
  01933	b9 66 00 00 00	 mov	 ecx, 102		; 00000066H
  01938	66 89 4c 46 32	 mov	 WORD PTR [esi+eax*2+50], cx

; 1624 : 			m_SpecialNum++;

  0193d	fe 46 30	 inc	 BYTE PTR [esi+48]
  01940	8a 56 30	 mov	 dl, BYTE PTR [esi+48]
$LN384@Convert:

; 1625 : 		}
; 1626 : 
; 1627 : 		if ( ((m_NewOption)&8) != 0 )

  01943	f6 86 93 00 00
	00 08		 test	 BYTE PTR [esi+147], 8
  0194a	74 13		 je	 SHORT $LN385@Convert

; 1628 : 		{
; 1629 : 			m_Special[m_SpecialNum] = 0x69;

  0194c	0f b6 c2	 movzx	 eax, dl
  0194f	b9 69 00 00 00	 mov	 ecx, 105		; 00000069H
  01954	66 89 4c 46 32	 mov	 WORD PTR [esi+eax*2+50], cx

; 1630 : 			m_SpecialNum++;

  01959	fe 46 30	 inc	 BYTE PTR [esi+48]
  0195c	8a 56 30	 mov	 dl, BYTE PTR [esi+48]
$LN385@Convert:

; 1631 : 		}
; 1632 : 	}
; 1633 : 
; 1634 : 	if ( _type == ITEMGET(13,37) )

  0195f	81 fb 25 1a 00
	00		 cmp	 ebx, 6693		; 00001a25H
  01965	75 34		 jne	 SHORT $LN391@Convert

; 1635 : 	{
; 1636 : 		if ( (m_NewOption &1) )

  01967	8a 86 93 00 00
	00		 mov	 al, BYTE PTR [esi+147]
  0196d	a8 01		 test	 al, 1
  0196f	74 0a		 je	 SHORT $LN387@Convert

; 1637 : 		{
; 1638 : 			m_Special[m_SpecialNum] = 0x6A;

  01971	b9 6a 00 00 00	 mov	 ecx, 106		; 0000006aH

; 1639 : 			m_SpecialNum++;

  01976	e9 e8 00 00 00	 jmp	 $LN536@Convert
$LN387@Convert:

; 1640 : 		}
; 1641 : 		else if ( (m_NewOption &2) )

  0197b	a8 02		 test	 al, 2
  0197d	74 0a		 je	 SHORT $LN389@Convert

; 1642 : 		{
; 1643 : 			m_Special[m_SpecialNum] = 0x6B;

  0197f	b9 6b 00 00 00	 mov	 ecx, 107		; 0000006bH

; 1644 : 			m_SpecialNum++;

  01984	e9 da 00 00 00	 jmp	 $LN536@Convert
$LN389@Convert:

; 1645 : 		}
; 1646 : 		else if ( (m_NewOption &4) )

  01989	a8 04		 test	 al, 4
  0198b	0f 84 e0 00 00
	00		 je	 $LN401@Convert

; 1647 : 		{
; 1648 : 			m_Special[m_SpecialNum] = 0x70;

  01991	b9 70 00 00 00	 mov	 ecx, 112		; 00000070H

; 1649 : 			m_SpecialNum++;
; 1650 : 		}
; 1651 : 	}
; 1652 : 
; 1653 : 	if ( (_type >= ITEMGET(12,36) && _type <= ITEMGET(12,40)) || _type == ITEMGET(12,43) || _type == ITEMGET(12,50) )

  01996	e9 c8 00 00 00	 jmp	 $LN536@Convert
$LN391@Convert:
  0199b	bf 6c 00 00 00	 mov	 edi, 108		; 0000006cH
  019a0	8d 4f 02	 lea	 ecx, DWORD PTR [edi+2]
  019a3	81 fb 24 18 00
	00		 cmp	 ebx, 6180		; 00001824H
  019a9	7c 08		 jl	 SHORT $LN394@Convert
  019ab	81 fb 28 18 00
	00		 cmp	 ebx, 6184		; 00001828H
  019b1	7e 10		 jle	 SHORT $LN393@Convert
$LN394@Convert:
  019b3	81 fb 2b 18 00
	00		 cmp	 ebx, 6187		; 0000182bH
  019b9	74 08		 je	 SHORT $LN393@Convert
  019bb	81 fb 32 18 00
	00		 cmp	 ebx, 6194		; 00001832H
  019c1	75 6b		 jne	 SHORT $LN398@Convert
$LN393@Convert:

; 1654 : 	{
; 1655 : 		if ( (m_NewOption &1) )

  019c3	f6 86 93 00 00
	00 01		 test	 BYTE PTR [esi+147], 1
  019ca	74 0e		 je	 SHORT $LN395@Convert

; 1656 : 		{
; 1657 : 			m_Special[m_SpecialNum] = 0x6C;

  019cc	0f b6 c2	 movzx	 eax, dl
  019cf	66 89 7c 46 32	 mov	 WORD PTR [esi+eax*2+50], di

; 1658 : 			m_SpecialNum++;

  019d4	fe 46 30	 inc	 BYTE PTR [esi+48]
  019d7	8a 56 30	 mov	 dl, BYTE PTR [esi+48]
$LN395@Convert:

; 1659 : 		}
; 1660 : 
; 1661 : 		if ( (m_NewOption &2) )

  019da	f6 86 93 00 00
	00 02		 test	 BYTE PTR [esi+147], 2
  019e1	74 18		 je	 SHORT $LN396@Convert

; 1662 : 		{
; 1663 : 			m_Special[m_SpecialNum] = 0x6D;

  019e3	0f b6 c2	 movzx	 eax, dl
  019e6	b9 6d 00 00 00	 mov	 ecx, 109		; 0000006dH
  019eb	66 89 4c 46 32	 mov	 WORD PTR [esi+eax*2+50], cx
  019f0	b9 6e 00 00 00	 mov	 ecx, 110		; 0000006eH

; 1664 : 			m_SpecialNum++;

  019f5	fe 46 30	 inc	 BYTE PTR [esi+48]
  019f8	8a 56 30	 mov	 dl, BYTE PTR [esi+48]
$LN396@Convert:

; 1665 : 		}
; 1666 : 
; 1667 : 		if ( (m_NewOption &4) )

  019fb	f6 86 93 00 00
	00 04		 test	 BYTE PTR [esi+147], 4
  01a02	74 0e		 je	 SHORT $LN397@Convert

; 1668 : 		{
; 1669 : 			m_Special[m_SpecialNum] = 0x6E;

  01a04	0f b6 c2	 movzx	 eax, dl
  01a07	66 89 4c 46 32	 mov	 WORD PTR [esi+eax*2+50], cx

; 1670 : 			m_SpecialNum++;

  01a0c	fe 46 30	 inc	 BYTE PTR [esi+48]
  01a0f	8a 56 30	 mov	 dl, BYTE PTR [esi+48]
$LN397@Convert:

; 1671 : 		}
; 1672 : 
; 1673 : 		if ( (m_NewOption &8) )

  01a12	f6 86 93 00 00
	00 08		 test	 BYTE PTR [esi+147], 8
  01a19	74 13		 je	 SHORT $LN398@Convert

; 1674 : 		{
; 1675 : 			m_Special[m_SpecialNum] = 0x6F;

  01a1b	0f b6 c2	 movzx	 eax, dl
  01a1e	b9 6f 00 00 00	 mov	 ecx, 111		; 0000006fH
  01a23	66 89 4c 46 32	 mov	 WORD PTR [esi+eax*2+50], cx

; 1676 : 			m_SpecialNum++;

  01a28	fe 46 30	 inc	 BYTE PTR [esi+48]
  01a2b	8a 56 30	 mov	 dl, BYTE PTR [esi+48]
$LN398@Convert:

; 1677 : 		}
; 1678 : 	}
; 1679 : 
; 1680 : #if (CUSTOM_WINGS == 1)
; 1681 : 	if ( _type >= ITEMGET(12,440) && _type <= ITEMGET(12,445) )
; 1682 : 	{
; 1683 : 		if ( (m_NewOption &1) )
; 1684 : 		{
; 1685 : 			m_Special[m_SpecialNum] = 0x6C;
; 1686 : 			m_SpecialNum++;
; 1687 : 		}
; 1688 : 
; 1689 : 		if ( (m_NewOption &2) )
; 1690 : 		{
; 1691 : 			m_Special[m_SpecialNum] = 0x6D;
; 1692 : 			m_SpecialNum++;
; 1693 : 		}
; 1694 : 
; 1695 : 		if ( (m_NewOption &4) )
; 1696 : 		{
; 1697 : 			m_Special[m_SpecialNum] = 0x6E;
; 1698 : 			m_SpecialNum++;
; 1699 : 		}
; 1700 : 
; 1701 : 		if ( (m_NewOption &8) )
; 1702 : 		{
; 1703 : 			m_Special[m_SpecialNum] = 0xC8;
; 1704 : 			m_SpecialNum++;
; 1705 : 		}
; 1706 : 	}
; 1707 : #endif
; 1708 : 
; 1709 : 	if ( _type >= ITEMGET(12,262) && _type <= ITEMGET(12,265) )

  01a2e	81 fb 06 19 00
	00		 cmp	 ebx, 6406		; 00001906H
  01a34	7c 3b		 jl	 SHORT $LN401@Convert
  01a36	81 fb 09 19 00
	00		 cmp	 ebx, 6409		; 00001909H
  01a3c	7f 33		 jg	 SHORT $LN401@Convert

; 1710 : 	{
; 1711 : 		if ( (m_NewOption &1) )

  01a3e	f6 86 93 00 00
	00 01		 test	 BYTE PTR [esi+147], 1
  01a45	74 0e		 je	 SHORT $LN400@Convert

; 1712 : 		{
; 1713 : 			m_Special[m_SpecialNum] = 0x6C;

  01a47	0f b6 c2	 movzx	 eax, dl
  01a4a	66 89 7c 46 32	 mov	 WORD PTR [esi+eax*2+50], di

; 1714 : 			m_SpecialNum++;

  01a4f	fe 46 30	 inc	 BYTE PTR [esi+48]
  01a52	8a 56 30	 mov	 dl, BYTE PTR [esi+48]
$LN400@Convert:

; 1715 : 		}
; 1716 : 
; 1717 : 		if ( (m_NewOption &2) )

  01a55	f6 86 93 00 00
	00 02		 test	 BYTE PTR [esi+147], 2
  01a5c	74 13		 je	 SHORT $LN401@Convert

; 1718 : 		{
; 1719 : 			m_Special[m_SpecialNum] = 0x6E;

  01a5e	b9 6e 00 00 00	 mov	 ecx, 110		; 0000006eH
$LN536@Convert:
  01a63	0f b6 c2	 movzx	 eax, dl
  01a66	66 89 4c 46 32	 mov	 WORD PTR [esi+eax*2+50], cx

; 1720 : 			m_SpecialNum++;

  01a6b	fe 46 30	 inc	 BYTE PTR [esi+48]
  01a6e	8a 56 30	 mov	 dl, BYTE PTR [esi+48]
$LN401@Convert:

; 1721 : 		}
; 1722 : 	}
; 1723 : 
; 1724 : 	if ( SOptionStatValue != 0 )

  01a71	8b 5d f4	 mov	 ebx, DWORD PTR _SOptionStatValue$1$[ebp]
  01a74	85 db		 test	 ebx, ebx
  01a76	74 30		 je	 SHORT $LN403@Convert

; 1725 : 	{
; 1726 : 		if (p->SetAttr != 0 )

  01a78	8b 45 08	 mov	 eax, DWORD PTR tv4661[ebp]
  01a7b	8a 80 61 00 00
	00		 mov	 al, BYTE PTR ?ItemAttribute@@3PAUITEM_ATTRIBUTE@@A[eax+97]
  01a81	84 c0		 test	 al, al
  01a83	74 23		 je	 SHORT $LN403@Convert

; 1727 : 		{
; 1728 : 			m_Special[m_SpecialNum] = p->SetAttr + 0xC3;

  01a85	0f b6 c8	 movzx	 ecx, al
  01a88	b8 c3 00 00 00	 mov	 eax, 195		; 000000c3H
  01a8d	66 03 c8	 add	 cx, ax
  01a90	0f b6 c2	 movzx	 eax, dl
  01a93	66 89 4c 46 32	 mov	 WORD PTR [esi+eax*2+50], cx

; 1729 : 			m_SetAddStat = SOptionStatValue * 5;

  01a98	8a c3		 mov	 al, bl
  01a9a	c0 e3 02	 shl	 bl, 2
  01a9d	02 c3		 add	 al, bl

; 1730 : 			m_SpecialNum++;

  01a9f	fe 46 30	 inc	 BYTE PTR [esi+48]
  01aa2	88 86 ab 00 00
	00		 mov	 BYTE PTR [esi+171], al
$LN403@Convert:

; 1731 : 		}
; 1732 : 	}
; 1733 : 
; 1734 : 	m_Part = p->ItemSlot;

  01aa8	8b 45 08	 mov	 eax, DWORD PTR tv4661[ebp]

; 1735 : 	Value();

  01aab	8b ce		 mov	 ecx, esi
  01aad	8a 80 64 00 00
	00		 mov	 al, BYTE PTR ?ItemAttribute@@3PAUITEM_ATTRIBUTE@@A[eax+100]
  01ab3	88 46 0a	 mov	 BYTE PTR [esi+10], al
  01ab6	e8 00 00 00 00	 call	 ?Value@CItem@@QAEXXZ	; CItem::Value

; 1736 : 
; 1737 : 	if ( m_Type != ITEMGET(4,7) && m_Type != ITEMGET(4,15) ) // arrow and bolts

  01abb	0f b7 46 06	 movzx	 eax, WORD PTR [esi+6]
  01abf	b9 07 08 00 00	 mov	 ecx, 2055		; 00000807H
  01ac4	66 3b c1	 cmp	 ax, cx
  01ac7	0f 84 9b 00 00
	00		 je	 $LN405@Convert
  01acd	b9 0f 08 00 00	 mov	 ecx, 2063		; 0000080fH
  01ad2	66 3b c1	 cmp	 ax, cx
  01ad5	0f 84 8d 00 00
	00		 je	 $LN405@Convert

; 1738 : 	{
; 1739 : 		m_DamageMinOrigin = m_DamageMin;

  01adb	0f b7 4e 10	 movzx	 ecx, WORD PTR [esi+16]

; 1740 : 		m_DefenseOrigin = m_Defense;
; 1741 : 		m_DamageMin -= (int)(m_DamageMin * m_CurrentDurabilityState);

  01adf	f3 0f 10 8e a4
	00 00 00	 movss	 xmm1, DWORD PTR [esi+164]
  01ae7	8b c1		 mov	 eax, ecx
  01ae9	66 89 4e 1c	 mov	 WORD PTR [esi+28], cx
  01aed	0f b7 56 16	 movzx	 edx, WORD PTR [esi+22]
  01af1	66 89 56 1e	 mov	 WORD PTR [esi+30], dx
  01af5	66 0f 6e c0	 movd	 xmm0, eax
  01af9	0f 5b c0	 cvtdq2ps xmm0, xmm0
  01afc	f3 0f 59 c1	 mulss	 xmm0, xmm1
  01b00	f3 0f 2c c0	 cvttss2si eax, xmm0
  01b04	2b c8		 sub	 ecx, eax
  01b06	66 89 4e 10	 mov	 WORD PTR [esi+16], cx

; 1742 : 		m_DamageMax -= (int)(m_DamageMax * m_CurrentDurabilityState);

  01b0a	0f b7 4e 12	 movzx	 ecx, WORD PTR [esi+18]
  01b0e	8b c1		 mov	 eax, ecx
  01b10	66 0f 6e c0	 movd	 xmm0, eax
  01b14	0f 5b c0	 cvtdq2ps xmm0, xmm0
  01b17	f3 0f 59 c1	 mulss	 xmm0, xmm1
  01b1b	f3 0f 2c c0	 cvttss2si eax, xmm0
  01b1f	2b c8		 sub	 ecx, eax

; 1743 : 		m_Defense -= (int)(m_Defense * m_CurrentDurabilityState);

  01b21	8b c2		 mov	 eax, edx
  01b23	66 89 4e 12	 mov	 WORD PTR [esi+18], cx

; 1744 : 		m_SuccessfulBlocking -= (int)(m_SuccessfulBlocking * m_CurrentDurabilityState);

  01b27	8a 4e 14	 mov	 cl, BYTE PTR [esi+20]
  01b2a	66 0f 6e c0	 movd	 xmm0, eax
  01b2e	0f 5b c0	 cvtdq2ps xmm0, xmm0
  01b31	f3 0f 59 c1	 mulss	 xmm0, xmm1
  01b35	f3 0f 2c c0	 cvttss2si eax, xmm0
  01b39	2b d0		 sub	 edx, eax
  01b3b	0f b6 c1	 movzx	 eax, cl
  01b3e	66 89 56 16	 mov	 WORD PTR [esi+22], dx
  01b42	66 0f 6e c0	 movd	 xmm0, eax
  01b46	0f 5b c0	 cvtdq2ps xmm0, xmm0
  01b49	f3 0f 59 c1	 mulss	 xmm0, xmm1
  01b4d	f3 0f 2c c0	 cvttss2si eax, xmm0

; 1745 : 
; 1746 : 		if ( m_Durability < 1.0f )

  01b51	f3 0f 10 05 00
	00 00 00	 movss	 xmm0, DWORD PTR __real@3f800000
  01b59	2a c8		 sub	 cl, al
  01b5b	0f 2f 46 24	 comiss	 xmm0, DWORD PTR [esi+36]
  01b5f	88 4e 14	 mov	 BYTE PTR [esi+20], cl
  01b62	76 04		 jbe	 SHORT $LN405@Convert

; 1747 : 		{
; 1748 : 			m_AttackSpeed = 0;

  01b64	c6 46 0d 00	 mov	 BYTE PTR [esi+13], 0
$LN405@Convert:

; 1749 : 		}
; 1750 : 	}
; 1751 : 	
; 1752 : 	if ( m_Durability == 0.0f )

  01b68	f3 0f 10 46 24	 movss	 xmm0, DWORD PTR [esi+36]
  01b6d	0f 57 c9	 xorps	 xmm1, xmm1
  01b70	0f 2e c1	 ucomiss xmm0, xmm1
  01b73	9f		 lahf
  01b74	f6 c4 44	 test	 ah, 68			; 00000044H
  01b77	7a 0c		 jp	 SHORT $LN406@Convert

; 1753 : 	{
; 1754 : 		memset(m_Resistance , 0, sizeof(m_Resistance));

  01b79	33 c0		 xor	 eax, eax
  01b7b	89 46 67	 mov	 DWORD PTR [esi+103], eax
  01b7e	66 89 46 6b	 mov	 WORD PTR [esi+107], ax
  01b82	88 46 6d	 mov	 BYTE PTR [esi+109], al
$LN406@Convert:

; 1755 : 	}
; 1756 : 
; 1757 : 	int ItemIndex = m_Type/MAX_SUBTYPE_ITEMS;

  01b85	0f bf 4e 06	 movsx	 ecx, WORD PTR [esi+6]
  01b89	8b c1		 mov	 eax, ecx
  01b8b	99		 cdq
  01b8c	81 e2 ff 01 00
	00		 and	 edx, 511		; 000001ffH
  01b92	03 c2		 add	 eax, edx
  01b94	c1 f8 09	 sar	 eax, 9

; 1758 : 	int ItemNumber = m_Type%MAX_SUBTYPE_ITEMS;

  01b97	81 e1 ff 01 00
	80		 and	 ecx, -2147483137	; 800001ffH
  01b9d	79 08		 jns	 SHORT $LN503@Convert
  01b9f	49		 dec	 ecx
  01ba0	81 c9 00 fe ff
	ff		 or	 ecx, -512		; fffffe00H
  01ba6	41		 inc	 ecx
$LN503@Convert:

; 1759 : 
; 1760 : 	m_bLuckySet = FALSE;
; 1761 : 
; 1762 : 	if( ItemIndex >= 7 && ItemIndex <= 11 )

  01ba7	83 c0 f9	 add	 eax, -7			; fffffff9H
  01baa	c6 86 ce 00 00
	00 00		 mov	 BYTE PTR [esi+206], 0
  01bb1	83 f8 04	 cmp	 eax, 4
  01bb4	77 0f		 ja	 SHORT $LN408@Convert

; 1763 : 	{
; 1764 : 		if( ItemNumber >= 62 && ItemNumber <= 72 )

  01bb6	8d 41 c2	 lea	 eax, DWORD PTR [ecx-62]
  01bb9	83 f8 0a	 cmp	 eax, 10			; 0000000aH
  01bbc	77 07		 ja	 SHORT $LN408@Convert

; 1765 : 		{
; 1766 : 			m_bLuckySet = TRUE;

  01bbe	c6 86 ce 00 00
	00 01		 mov	 BYTE PTR [esi+206], 1
$LN408@Convert:
  01bc5	5f		 pop	 edi
  01bc6	5e		 pop	 esi
  01bc7	5b		 pop	 ebx

; 1767 : 		}
; 1768 : 	}
; 1769 : }

  01bc8	8b e5		 mov	 esp, ebp
  01bca	5d		 pop	 ebp
  01bcb	c2 28 00	 ret	 40			; 00000028H
  01bce	66 90		 npad	 2
$LN541@Convert:
  01bd0	00 00 00 00	 DD	 $LN149@Convert
  01bd4	00 00 00 00	 DD	 $LN148@Convert
  01bd8	00 00 00 00	 DD	 $LN147@Convert
  01bdc	00 00 00 00	 DD	 $LN146@Convert
  01be0	00 00 00 00	 DD	 $LN145@Convert
  01be4	00 00 00 00	 DD	 $LN144@Convert
$LN542@Convert:
  01be8	00 00 00 00	 DD	 $LN162@Convert
  01bec	00 00 00 00	 DD	 $LN161@Convert
  01bf0	00 00 00 00	 DD	 $LN160@Convert
  01bf4	00 00 00 00	 DD	 $LN159@Convert
  01bf8	00 00 00 00	 DD	 $LN158@Convert
  01bfc	00 00 00 00	 DD	 $LN157@Convert
$LN543@Convert:
  01c00	00 00 00 00	 DD	 $LN175@Convert
  01c04	00 00 00 00	 DD	 $LN174@Convert
  01c08	00 00 00 00	 DD	 $LN173@Convert
  01c0c	00 00 00 00	 DD	 $LN172@Convert
  01c10	00 00 00 00	 DD	 $LN171@Convert
  01c14	00 00 00 00	 DD	 $LN170@Convert
$LN544@Convert:
  01c18	00 00 00 00	 DD	 $LN188@Convert
  01c1c	00 00 00 00	 DD	 $LN187@Convert
  01c20	00 00 00 00	 DD	 $LN186@Convert
  01c24	00 00 00 00	 DD	 $LN185@Convert
  01c28	00 00 00 00	 DD	 $LN184@Convert
  01c2c	00 00 00 00	 DD	 $LN183@Convert
$LN545@Convert:
  01c30	00 00 00 00	 DD	 $LN199@Convert
  01c34	00 00 00 00	 DD	 $LN198@Convert
  01c38	00 00 00 00	 DD	 $LN197@Convert
  01c3c	00 00 00 00	 DD	 $LN196@Convert
  01c40	00 00 00 00	 DD	 $LN195@Convert
  01c44	00 00 00 00	 DD	 $LN194@Convert
$LN546@Convert:
  01c48	00 00 00 00	 DD	 $LN234@Convert
  01c4c	00 00 00 00	 DD	 $LN233@Convert
  01c50	00 00 00 00	 DD	 $LN232@Convert
  01c54	00 00 00 00	 DD	 $LN231@Convert
  01c58	00 00 00 00	 DD	 $LN230@Convert
  01c5c	00 00 00 00	 DD	 $LN229@Convert
$LN547@Convert:
  01c60	00 00 00 00	 DD	 $LN228@Convert
  01c64	00 00 00 00	 DD	 $LN227@Convert
  01c68	00 00 00 00	 DD	 $LN226@Convert
  01c6c	00 00 00 00	 DD	 $LN225@Convert
  01c70	00 00 00 00	 DD	 $LN224@Convert
  01c74	00 00 00 00	 DD	 $LN223@Convert
$LN548@Convert:
  01c78	00 00 00 00	 DD	 $LN242@Convert
  01c7c	00 00 00 00	 DD	 $LN241@Convert
  01c80	00 00 00 00	 DD	 $LN240@Convert
  01c84	00 00 00 00	 DD	 $LN239@Convert
  01c88	00 00 00 00	 DD	 $LN238@Convert
  01c8c	00 00 00 00	 DD	 $LN237@Convert
?Convert@CItem@@QAEXHEEEEEEPAEEE@Z ENDP			; CItem::Convert
_TEXT	ENDS
; Function compile flags: /Ogtp
; File c:\users\michel\desktop\source\gameserver\common\zzzitem.cpp
;	COMDAT ??0CItem@@QAE@XZ
_TEXT	SEGMENT
??0CItem@@QAE@XZ PROC					; CItem::CItem, COMDAT
; _this$ = ecx

; 36   : {

  00000	56		 push	 esi
  00001	8b f1		 mov	 esi, ecx

; 37   : 	Clear();

  00003	e8 00 00 00 00	 call	 ?Clear@CItem@@QAEXXZ	; CItem::Clear

; 38   : }

  00008	8b c6		 mov	 eax, esi
  0000a	5e		 pop	 esi
  0000b	c3		 ret	 0
??0CItem@@QAE@XZ ENDP					; CItem::CItem
_TEXT	ENDS
; Function compile flags: /Ogtp
; File c:\program files (x86)\microsoft visual studio 14.0\vc\include\cmath
;	COMDAT ??$_Pow_int@M@@YAMMH@Z
_TEXT	SEGMENT
__Xx$ = 8						; size = 4
tv74 = 12						; size = 4
__Yx$ = 12						; size = 4
??$_Pow_int@M@@YAMMH@Z PROC				; _Pow_int<float>, COMDAT

; 19   : 	{

  00000	55		 push	 ebp
  00001	8b ec		 mov	 ebp, esp

; 20   : 	unsigned int _Nx;
; 21   : 	if (_Yx >= 0)

  00003	8b 4d 0c	 mov	 ecx, DWORD PTR __Yx$[ebp]

; 22   : 		_Nx = static_cast<unsigned int>(_Yx);

  00006	8b c1		 mov	 eax, ecx
  00008	85 c9		 test	 ecx, ecx
  0000a	79 02		 jns	 SHORT $LN6@Pow_int

; 23   : 	else
; 24   : 		_Nx = static_cast<unsigned int>(-_Yx);

  0000c	f7 d8		 neg	 eax
$LN6@Pow_int:

; 25   : 
; 26   : 	for (_Ty _Zx = static_cast<_Ty>(1); ; _Xx *= _Xx)

  0000e	f3 0f 10 1d 00
	00 00 00	 movss	 xmm3, DWORD PTR __real@3f800000
  00016	f3 0f 10 55 08	 movss	 xmm2, DWORD PTR __Xx$[ebp]
  0001b	0f 28 cb	 movaps	 xmm1, xmm3
  0001e	66 90		 npad	 2
$LL4@Pow_int:

; 27   : 		{
; 28   : 		if ((_Nx & 1) != 0)

  00020	a8 01		 test	 al, 1
  00022	74 04		 je	 SHORT $LN7@Pow_int

; 29   : 			_Zx *= _Xx;

  00024	f3 0f 59 ca	 mulss	 xmm1, xmm2
$LN7@Pow_int:

; 30   : 		if ((_Nx >>= 1) == 0)

  00028	d1 e8		 shr	 eax, 1
  0002a	74 09		 je	 SHORT $LN14@Pow_int

; 25   : 
; 26   : 	for (_Ty _Zx = static_cast<_Ty>(1); ; _Xx *= _Xx)

  0002c	0f 28 c2	 movaps	 xmm0, xmm2
  0002f	f3 0f 59 d0	 mulss	 xmm2, xmm0
  00033	eb eb		 jmp	 SHORT $LL4@Pow_int
$LN14@Pow_int:

; 31   : 			return (_Yx < 0 ? static_cast<_Ty>(1) / _Zx : _Zx);

  00035	85 c9		 test	 ecx, ecx
  00037	79 0e		 jns	 SHORT $LN10@Pow_int
  00039	f3 0f 5e d9	 divss	 xmm3, xmm1
  0003d	f3 0f 11 5d 0c	 movss	 DWORD PTR tv74[ebp], xmm3
  00042	d9 45 0c	 fld	 DWORD PTR tv74[ebp]

; 32   : 		}
; 33   : 	}

  00045	5d		 pop	 ebp
  00046	c3		 ret	 0
$LN10@Pow_int:

; 31   : 			return (_Yx < 0 ? static_cast<_Ty>(1) / _Zx : _Zx);

  00047	f3 0f 11 4d 0c	 movss	 DWORD PTR tv74[ebp], xmm1
  0004c	d9 45 0c	 fld	 DWORD PTR tv74[ebp]

; 32   : 		}
; 33   : 	}

  0004f	5d		 pop	 ebp
  00050	c3		 ret	 0
??$_Pow_int@M@@YAMMH@Z ENDP				; _Pow_int<float>
_TEXT	ENDS
; Function compile flags: /Ogtp
; File c:\program files (x86)\microsoft visual studio 14.0\vc\include\cmath
;	COMDAT ?pow@@YAMMH@Z
_TEXT	SEGMENT
$T1 = 8							; size = 4
__Xx$ = 8						; size = 4
__Yx$ = 12						; size = 4
?pow@@YAMMH@Z PROC					; pow, COMDAT

; 270  : 	{

  00000	55		 push	 ebp
  00001	8b ec		 mov	 ebp, esp

; 21   : 	if (_Yx >= 0)

  00003	8b 4d 0c	 mov	 ecx, DWORD PTR __Yx$[ebp]

; 22   : 		_Nx = static_cast<unsigned int>(_Yx);

  00006	8b c1		 mov	 eax, ecx

; 271  : 	return (_Pow_int(_Xx, _Yx));

  00008	f3 0f 10 55 08	 movss	 xmm2, DWORD PTR __Xx$[ebp]

; 21   : 	if (_Yx >= 0)

  0000d	85 c9		 test	 ecx, ecx
  0000f	79 02		 jns	 SHORT $LN8@pow

; 23   : 	else
; 24   : 		_Nx = static_cast<unsigned int>(-_Yx);

  00011	f7 d8		 neg	 eax
$LN8@pow:

; 25   : 
; 26   : 	for (_Ty _Zx = static_cast<_Ty>(1); ; _Xx *= _Xx)

  00013	f3 0f 10 1d 00
	00 00 00	 movss	 xmm3, DWORD PTR __real@3f800000
  0001b	0f 28 cb	 movaps	 xmm1, xmm3
  0001e	66 90		 npad	 2
$LL6@pow:

; 27   : 		{
; 28   : 		if ((_Nx & 1) != 0)

  00020	a8 01		 test	 al, 1
  00022	74 04		 je	 SHORT $LN9@pow

; 29   : 			_Zx *= _Xx;

  00024	f3 0f 59 ca	 mulss	 xmm1, xmm2
$LN9@pow:

; 30   : 		if ((_Nx >>= 1) == 0)

  00028	d1 e8		 shr	 eax, 1
  0002a	74 09		 je	 SHORT $LN17@pow

; 25   : 
; 26   : 	for (_Ty _Zx = static_cast<_Ty>(1); ; _Xx *= _Xx)

  0002c	0f 28 c2	 movaps	 xmm0, xmm2
  0002f	f3 0f 59 d0	 mulss	 xmm2, xmm0
  00033	eb eb		 jmp	 SHORT $LL6@pow
$LN17@pow:

; 31   : 			return (_Yx < 0 ? static_cast<_Ty>(1) / _Zx : _Zx);

  00035	85 c9		 test	 ecx, ecx
  00037	79 0e		 jns	 SHORT $LN12@pow
  00039	f3 0f 5e d9	 divss	 xmm3, xmm1
  0003d	f3 0f 11 5d 08	 movss	 DWORD PTR $T1[ebp], xmm3

; 271  : 	return (_Pow_int(_Xx, _Yx));

  00042	d9 45 08	 fld	 DWORD PTR $T1[ebp]

; 272  : 	}

  00045	5d		 pop	 ebp
  00046	c3		 ret	 0
$LN12@pow:

; 31   : 			return (_Yx < 0 ? static_cast<_Ty>(1) / _Zx : _Zx);

  00047	f3 0f 11 4d 08	 movss	 DWORD PTR $T1[ebp], xmm1

; 271  : 	return (_Pow_int(_Xx, _Yx));

  0004c	d9 45 08	 fld	 DWORD PTR $T1[ebp]

; 272  : 	}

  0004f	5d		 pop	 ebp
  00050	c3		 ret	 0
?pow@@YAMMH@Z ENDP					; pow
_TEXT	ENDS
; Function compile flags: /Ogtp
; File c:\users\michel\desktop\source\gameserver\common\zzzitem.cpp
;	COMDAT ?__empty_global_delete@@YAXPAXI@Z
_TEXT	SEGMENT
___formal$ = 8						; size = 4
___formal$ = 12						; size = 4
?__empty_global_delete@@YAXPAXI@Z PROC			; __empty_global_delete, COMDAT

  00000	c3		 ret	 0
?__empty_global_delete@@YAXPAXI@Z ENDP			; __empty_global_delete
_TEXT	ENDS
; Function compile flags: /Ogtp
; File c:\users\michel\desktop\source\gameserver\common\zzzitem.cpp
;	COMDAT ?__empty_global_delete@@YAXPAX@Z
_TEXT	SEGMENT
___formal$ = 8						; size = 4
?__empty_global_delete@@YAXPAX@Z PROC			; __empty_global_delete, COMDAT

; 5996 : // ItemAttribute Begin:9439368 END 9446B68 Array[512]

  00000	c3		 ret	 0
?__empty_global_delete@@YAXPAX@Z ENDP			; __empty_global_delete
_TEXT	ENDS
END
